 mysqld-nt

 Timestamp is 48077f2d (Thu Apr 17 17:47:41 2008)

 Preferred load address is 00400000

 Start         Length     Name                   Class
 0001:00000000 0033789dH .text                   CODE
 0001:003378a0 000045cfH .text$yc                CODE
 0001:0033be70 0000238aH .text$yd                CODE
 0002:00000000 000cb9beH .rdata                  DATA
 0002:000cb9c0 00000192H .rdata$debug            DATA
 0002:000cbb54 000100a5H .rdata$r                DATA
 0002:000dbc00 00000109H .rdata$sxdata           DATA
 0002:000dbd0c 00000104H .rtc$IAA                DATA
 0002:000dbe10 00000104H .rtc$IZZ                DATA
 0002:000dbf14 00000104H .rtc$TAA                DATA
 0002:000dc018 00000104H .rtc$TZZ                DATA
 0002:000dc11c 00000000H .edata                  DATA
 0003:00000000 00000104H .CRT$XCA                DATA
 0003:00000104 00000104H .CRT$XCAA               DATA
 0003:00000208 0000055cH .CRT$XCU                DATA
 0003:00000764 00000104H .CRT$XCZ                DATA
 0003:00000868 00000104H .CRT$XIA                DATA
 0003:0000096c 00000118H .CRT$XIC                DATA
 0003:00000a84 00000104H .CRT$XIZ                DATA
 0003:00000b88 00000004H .CRT$XLA                DATA
 0003:00000b8c 00000004H .CRT$XLZ                DATA
 0003:00000b90 00000104H .CRT$XPA                DATA
 0003:00000c94 00000104H .CRT$XPX                DATA
 0003:00000d98 00000104H .CRT$XPZ                DATA
 0003:00000e9c 00000104H .CRT$XTA                DATA
 0003:00000fa0 00000104H .CRT$XTZ                DATA
 0003:000010b0 0015988cH .data                   DATA
 0003:0015a940 0000af44H .bss                    DATA
 0004:00000000 00000050H .idata$2                DATA
 0004:00000050 00000014H .idata$3                DATA
 0004:00000064 000004b0H .idata$4                DATA
 0004:00000514 000004b0H .idata$5                DATA
 0004:000009c4 00001015H .idata$6                DATA
 0005:00000000 00000101H .tls                    DATA
 0005:00000108 00000198H .tls$                   DATA
 0005:000002a0 00000101H .tls$ZZZ                DATA
 0006:00000000 00000169H .rsrc$01                DATA
 0006:00000170 000001dcH .rsrc$02                DATA

  Address         Publics by Value              Rva+Base     Lib:Object

 0000:00000000       __except_list              00000000     <absolute>
 0000:00000002       ___safe_se_handler_count   00000002     <absolute>
 0000:0000002c       __tls_array                0000002c     <absolute>
 0001:00016470       _my_connect                00417470 f   client.obj
 0001:00016490       _create_named_pipe         00417490 f   client.obj
 0001:00016780       _free_rows                 00417780 f   client.obj
 0001:000167b0       _free_old_query            004177b0 f   client.obj
 0001:00016820       _set_mysql_error           00417820 f   client.obj
 0001:00016900       _end_server                00417900 f   client.obj
 0001:00016950       _mysql_free_result@4       00417950 f   client.obj
 0001:00016aa0       _mysql_read_default_options 00417aa0 f   client.obj
 0001:00017030       _unpack_fields             00418030 f   client.obj
 0001:00017440       _mysql_init@4              00418440 f   client.obj
 0001:00017500       _mysql_ssl_set@24          00418500 f   client.obj
 0001:00017680       _mysql_get_ssl_cipher@4    00418680 f   client.obj
 0001:00017800       _mysql_init_character_set  00418800 f   client.obj
 0001:00017ad0       _mysql_select_db@8         00418ad0 f   client.obj
 0001:00017cd0       _mysql_detach_stmt_list    00418cd0 f   client.obj
 0001:00017ce0       _mysql_close@4             00418ce0 f   client.obj
 0001:00017dc0       _mysql_send_query@12       00418dc0 f   client.obj
 0001:00017e00       _mysql_real_query@12       00418e00 f   client.obj
 0001:00017e70       _mysql_store_result@4      00418e70 f   client.obj
 0001:00018160       _mysql_fetch_lengths@4     00419160 f   client.obj
 0001:000181a0       _mysql_options@12          004191a0 f   client.obj
 0001:00018500       _mysql_num_rows@4          00419500 f   client.obj
 0001:00018510       _mysql_num_fields@4        00419510 f   client.obj
 0001:00018520       _mysql_errno@4             00419520 f   client.obj
 0001:00018530       _mysql_error@4             00419530 f   client.obj
 0001:00018540       _mysql_get_server_version@4 00419540 f   client.obj
 0001:000185b0       _mysql_set_character_set@8 004195b0 f   client.obj
 0001:00018720       _cli_safe_read             00419720 f   client.obj
 0001:00018940       _cli_read_rows             00419940 f   client.obj
 0001:00018e10       _mysql_real_connect@32     00419e10 f   client.obj
 0001:00019ec0       _mysql_reconnect           0041aec0 f   client.obj
 0001:0001a390       _mysql_fetch_row@4         0041b390 f   client.obj
 0001:0001a490       _cli_advanced_command      0041b490 f   client.obj
 0001:0001a690       ??_H@YGXPAXIHP6EPAX0@Z@Z   0041b690 f i derror.obj
 0001:0001a6d0       ??_I@YGXPAXIHP6EX0@Z@Z     0041b6d0 f i derror.obj
 0001:0001aae0       ?init_errmessage@@YAHXZ    0041bae0 f   derror.obj
 0001:0001ab80       ?load_des_key_file@@YAHPBD@Z 0041bb80 f   des_key_file.obj
 0001:0001ae40       ?readfrm@@YAHPBDPAPBXPAI@Z 0041be40 f   discover.obj
 0001:0001af60       ?writefrm@@YAHPBDPBXI@Z    0041bf60 f   discover.obj
 0001:0001b020       _init_client_errs          0041c020 f   errmsg.obj
 0001:0001b040       _finish_client_errs        0041c040 f   errmsg.obj
 0001:0001b060       ?rint@@YANN@Z              0041c060 f i field.obj
 0001:0001b0c0       ?ulonglong2double@@YAN_K@Z 0041c0c0 f i field.obj
 0001:0001b0f0       ?length@?$Bitmap@$0EA@@@QBEIXZ 0041c0f0 f i field.obj
 0001:0001b100       ?set_all@?$Bitmap@$0EA@@@QAEXXZ 0041c100 f i field.obj
 0001:0001b120       ?_current_thd@@YAPAVTHD@@XZ 0041c120 f i field.obj
 0001:0001b140       ??0String@@QAE@XZ          0041c140 f i field.obj
 0001:0001b160       ??0String@@QAE@PBDKPAUcharset_info_st@@@Z 0041c160 f i field.obj
 0001:0001b190       ??0String@@QAE@PADKPAUcharset_info_st@@@Z 0041c190 f i field.obj
 0001:0001b1c0       ?set_charset@String@@QAEXPAUcharset_info_st@@@Z 0041c1c0 f i field.obj
 0001:0001b1d0       ?charset@String@@QBEPAUcharset_info_st@@XZ 0041c1d0 f i field.obj
 0001:0001b1e0       ?length@String@@QBEKXZ     0041c1e0 f i field.obj
 0001:0001b1f0       ?alloced_length@String@@QBEKXZ 0041c1f0 f i field.obj
 0001:0001b200       ?length@String@@QAEXK@Z    0041c200 f i field.obj
 0001:0001b210       ?ptr@String@@QBEPBDXZ      0041c210 f i field.obj
 0001:0001b220       ?c_ptr@String@@QAEPADXZ    0041c220 f i field.obj
 0001:0001b250       ?c_ptr_quick@String@@QAEPADXZ 0041c250 f i field.obj
 0001:0001b270       ?free@String@@QAEXXZ       0041c270 f i field.obj
 0001:0001b2b0       ?alloc@String@@QAEHK@Z     0041c2b0 f i field.obj
 0001:0001b2d0       ?append@String@@QAEHD@Z    0041c2d0 f i field.obj
 0001:0001b340       ??2Sql_alloc@@SAPAXI@Z     0041c340 f i field.obj
 0001:0001b350       ??0Sql_alloc@@QAE@XZ       0041c350 f i field.obj
 0001:0001b360       ??1Sql_alloc@@QAE@XZ       0041c360 f i field.obj
 0001:0001b370       ??0list_node@@QAE@PAXPAU0@@Z 0041c370 f i field.obj
 0001:0001b390       ?empty@base_list@@QAEXXZ   0041c390 f i field.obj
 0001:0001b3b0       ??0base_list@@QAE@XZ       0041c3b0 f i field.obj
 0001:0001b3d0       ?push_back@base_list@@QAEHPAX@Z 0041c3d0 f i field.obj
 0001:0001b430       ?init@base_list_iterator@@QAEXAAVbase_list@@@Z 0041c430 f i field.obj
 0001:0001b450       ?next@base_list_iterator@@QAEPAXXZ 0041c450 f i field.obj
 0001:0001b470       ?init@my_decimal@@QAEXXZ   0041c470 f i field.obj
 0001:0001b490       ??0my_decimal@@QAE@XZ      0041c490 f i field.obj
 0001:0001b4b0       ?fix_buffer_pointer@my_decimal@@QAEXXZ 0041c4b0 f i field.obj
 0001:0001b4c0       ?sign@my_decimal@@QBEHXZ   0041c4c0 f i field.obj
 0001:0001b4d0       ?sign@my_decimal@@QAEXH@Z  0041c4d0 f i field.obj
 0001:0001b4e0       ?max_my_decimal@@YAXPAVmy_decimal@@HH@Z 0041c4e0 f i field.obj
 0001:0001b500       ?max_internal_decimal@@YAXPAVmy_decimal@@@Z 0041c500 f i field.obj
 0001:0001b520       ?check_result@@YAHIH@Z     0041c520 f i field.obj
 0001:0001b540       ?check_result_and_overflow@@YAHIHPAVmy_decimal@@@Z 0041c540 f i field.obj
 0001:0001b5a0       ?my_decimal_length_to_precision@@YAIIIH@Z 0041c5a0 f i field.obj
 0001:0001b5d0       ?my_decimal_precision_to_length@@YAKIEH@Z 0041c5d0 f i field.obj
 0001:0001b610       ?my_decimal_get_binary_size@@YAHII@Z 0041c610 f i field.obj
 0001:0001b620       ?binary2my_decimal@@YAHIPBDPAVmy_decimal@@HH@Z 0041c620 f i field.obj
 0001:0001b670       ?my_decimal_set_zero@@YAHPAVmy_decimal@@@Z 0041c670 f i field.obj
 0001:0001b690       ?my_decimal2int@@YAHIPBVmy_decimal@@DPA_J@Z 0041c690 f i field.obj
 0001:0001b720       ?my_decimal2double@@YAHIPBVmy_decimal@@PAN@Z 0041c720 f i field.obj
 0001:0001b740       ?double2my_decimal@@YAHINPAVmy_decimal@@@Z 0041c740 f i field.obj
 0001:0001b7b0       ?int2my_decimal@@YAHI_JDPAVmy_decimal@@@Z 0041c7b0 f i field.obj
 0001:0001b800       ?my_decimal_trim@@YAXPAKPAI@Z 0041c800 f i field.obj
 0001:0001b830       ?get_enum_pack_length@@YAIH@Z 0041c830 f i field.obj
 0001:0001b850       ?get_set_pack_length@@YAIH@Z 0041c850 f i field.obj
 0001:0001b880       ??2Field@@SAPAXI@Z         0041c880 f i field.obj
 0001:0001b890       ??1Field@@UAE@XZ           0041c890 f i field.obj
 0001:0001b8a0       ?val_str@Field@@QAEPAVString@@PAV2@@Z 0041c8a0 f i field.obj
 0001:0001b8c0       ?cmp_type@Field@@UBE?AW4Item_result@@XZ 0041c8c0 f i field.obj
 0001:0001b8d0       ?cast_to_int_type@Field@@UBE?AW4Item_result@@XZ 0041c8d0 f i field.obj
 0001:0001b8e0       ?eq@Field@@UAEHPAV1@@Z     0041c8e0 f i field.obj
 0001:0001b920       ?pack_length@Field@@UBEKXZ 0041c920 f i field.obj
 0001:0001b930       ?pack_length_in_rec@Field@@UBEKXZ 0041c930 f i field.obj
 0001:0001b940       ?data_length@Field@@UAEKPBD@Z 0041c940 f i field.obj
 0001:0001b950       ?sort_length@Field@@UBEKXZ 0041c950 f i field.obj
 0001:0001b960       ?reset@Field@@UAEHXZ       0041c960 f i field.obj
 0001:0001b990       ?reset_fields@Field@@UAEXXZ 0041c990 f i field.obj
 0001:0001b9a0       ?set_default@Field@@UAEXXZ 0041c9a0 f i field.obj
 0001:0001ba00       ?binary@Field@@UBEHXZ      0041ca00 f i field.obj
 0001:0001ba10       ?zero_pack@Field@@UBEHXZ   0041ca10 f i field.obj
 0001:0001ba20       ?key_type@Field@@UBE?AW4ha_base_keytype@@XZ 0041ca20 f i field.obj
 0001:0001ba30       ?key_length@Field@@UBEKXZ  0041ca30 f i field.obj
 0001:0001ba40       ?real_type@Field@@UBE?AW4enum_field_types@@XZ 0041ca40 f i field.obj
 0001:0001ba50       ?cmp_binary@Field@@UAEHPBD0K@Z 0041ca50 f i field.obj
 0001:0001ba80       ?cmp_offset@Field@@UAEHI@Z 0041ca80 f i field.obj
 0001:0001baa0       ?cmp_binary_offset@Field@@UAEHI@Z 0041caa0 f i field.obj
 0001:0001bac0       ?key_cmp@Field@@UAEHPBE0@Z 0041cac0 f i field.obj
 0001:0001bad0       ?key_cmp@Field@@UAEHPBEI@Z 0041cad0 f i field.obj
 0001:0001baf0       ?decimals@Field@@UBEIXZ    0041caf0 f i field.obj
 0001:0001bb00       ?is_real_null@Field@@QAEHI@Z 0041cb00 f i field.obj
 0001:0001bb30       ?set_null@Field@@QAEXH@Z   0041cb30 f i field.obj
 0001:0001bb50       ?set_notnull@Field@@QAEXH@Z 0041cb50 f i field.obj
 0001:0001bb80       ?maybe_null@Field@@QAEHXZ  0041cb80 f i field.obj
 0001:0001bbb0       ?can_be_compared_as_longlong@Field@@UBEHXZ 0041cbb0 f i field.obj
 0001:0001bbc0       ?free@Field@@UAEXXZ        0041cbc0 f i field.obj
 0001:0001bbd0       ?move_field@Field@@UAEXJ@Z 0041cbd0 f i field.obj
 0001:0001bc00       ?get_image@Field@@UAEXPADIPAUcharset_info_st@@@Z 0041cc00 f i field.obj
 0001:0001bc30       ?set_image@Field@@UAEXPADIPAUcharset_info_st@@@Z 0041cc30 f i field.obj
 0001:0001bc60       ?get_key_image@Field@@UAEIPADIW4imagetype@1@@Z 0041cc60 f i field.obj
 0001:0001bc90       ?set_key_image@Field@@UAEXPADI@Z 0041cc90 f i field.obj
 0001:0001bcb0       ?pack@Field@@UAEPADPADPBDI@Z 0041ccb0 f i field.obj
 0001:0001bcf0       ?unpack@Field@@UAEPBDPADPBD@Z 0041ccf0 f i field.obj
 0001:0001bd30       ?pack_key@Field@@UAEPADPADPBDI@Z 0041cd30 f i field.obj
 0001:0001bd40       ?pack_key_from_key_image@Field@@UAEPADPADPBDI@Z 0041cd40 f i field.obj
 0001:0001bd50       ?unpack_key@Field@@UAEPBDPADPBDI@Z 0041cd50 f i field.obj
 0001:0001bd70       ?packed_col_length@Field@@UAEIPBDI@Z 0041cd70 f i field.obj
 0001:0001bd80       ?max_packed_col_length@Field@@UAEII@Z 0041cd80 f i field.obj
 0001:0001bd90       ?pack_cmp@Field@@UAEHPBD0ID@Z 0041cd90 f i field.obj
 0001:0001bdb0       ?pack_cmp@Field@@UAEHPBDID@Z 0041cdb0 f i field.obj
 0001:0001bdd0       ?charset@Field@@UBEPAUcharset_info_st@@XZ 0041cdd0 f i field.obj
 0001:0001bde0       ?sort_charset@Field@@UBEPAUcharset_info_st@@XZ 0041cde0 f i field.obj
 0001:0001bdf0       ?has_charset@Field@@UBEHXZ 0041cdf0 f i field.obj
 0001:0001be00       ?set_charset@Field@@UAEXPAUcharset_info_st@@@Z 0041ce00 f i field.obj
 0001:0001be10       ?derivation@Field@@UBE?AW4Derivation@@XZ 0041ce10 f i field.obj
 0001:0001be20       ?set_derivation@Field@@UAEXW4Derivation@@@Z 0041ce20 f i field.obj
 0001:0001be30       ?check_overflow@Field@@QAEHH@Z 0041ce30 f i field.obj
 0001:0001be50       ?get_geometry_type@Field@@UAE?AW4geometry_type@1@XZ 0041ce50 f i field.obj
 0001:0001be60       ??_GField@@UAEPAXI@Z       0041ce60 f i field.obj
 0001:0001be60       ??_EField@@UAEPAXI@Z       0041ce60 f i field.obj
 0001:0001be70       ??1Field_str@@UAE@XZ       0041ce70 f i field.obj
 0001:0001be80       ??1Field_longstr@@UAE@XZ   0041ce80 f i field.obj
 0001:0001be90       ??1Field_num@@UAE@XZ       0041ce90 f i field.obj
 0001:0001bea0       ??1Field_real@@UAE@XZ      0041cea0 f i field.obj
 0001:0001beb0       ??1Field_tiny@@UAE@XZ      0041ceb0 f i field.obj
 0001:0001bec0       ?pack_length@Field_blob@@UBEKXZ 0041cec0 f i field.obj
 0001:0001bee0       ?max_data_length@Field_blob@@QBEKXZ 0041cee0 f i field.obj
 0001:0001bf00       ?get_ptr@Field_blob@@QAEXPAPAD@Z 0041cf00 f i field.obj
 0001:0001bf20       ??1Field_enum@@UAE@XZ      0041cf20 f i field.obj
 0001:0001bf30       ??1base_list@@QAE@XZ       0041cf30 f i field.obj
 0001:0001bf40       ?set@DTCollation@@QAEXPAUcharset_info_st@@W4Derivation@@I@Z 0041cf40 f i field.obj
 0001:0001bf60       ??2Item@@SAPAXI@Z          0041cf60 f i field.obj
 0001:0001bf70       ??0MBR@@QAE@XZ             0041cf70 f i field.obj
 0001:0001bfa0       ?query_start@THD@@QAEJXZ   0041cfa0 f i field.obj
 0001:0001bfc0       ?really_abort_on_warning@THD@@QAEHXZ 0041cfc0 f i field.obj
 0001:0001c000       ?field_type2index@@YAHW4enum_field_types@@@Z 0041d000 f i field.obj
 0001:0001c020       ?field_type_merge@Field@@SA?AW4enum_field_types@@W42@0@Z 0041d020 f   field.obj
 0001:0001c090       ?result_merge_type@Field@@SA?AW4Item_result@@W4enum_field_types@@@Z 0041d090 f   field.obj
 0001:0001c0b0       ?type_can_have_key_part@Field@@SAHW4enum_field_types@@@Z 0041d0b0 f   field.obj
 0001:0001c0e0       ?prepend_zeros@Field_num@@QAEXPAVString@@@Z 0041d0e0 f   field.obj
 0001:0001c150       ?val_int_as_str@Field@@QAEPAVString@@PAV2@D@Z 0041d150 f   field.obj
 0001:0001c1d0       ?offset@Field@@QAEIXZ      0041d1d0 f   field.obj
 0001:0001c1e0       ?copy_from_tmp@Field@@QAEXH@Z 0041d1e0 f   field.obj
 0001:0001c240       ?val_decimal@Field@@UAEPAVmy_decimal@@PAV2@@Z 0041d240 f   field.obj
 0001:0001c250       ?add_zerofill_and_unsigned@Field_num@@QBEXAAVString@@@Z 0041d250 f   field.obj
 0001:0001c2a0       ?make_field@Field@@UAEXPAVSend_field@@@Z 0041d2a0 f   field.obj
 0001:0001c370       ?val_decimal@Field_num@@UAEPAVmy_decimal@@PAV2@@Z 0041d370 f   field.obj
 0001:0001c3c0       ?make_field@Field_num@@UAEXPAVSend_field@@@Z 0041d3c0 f   field.obj
 0001:0001c3e0       ?val_decimal@Field_str@@UAEPAVmy_decimal@@PAV2@@Z 0041d3e0 f   field.obj
 0001:0001c420       ?fill_cache_field@Field@@QAEIPAUst_cache_field@@@Z 0041d420 f   field.obj
 0001:0001c4d0       ?store_time@Field@@UAEHPAUst_mysql_time@@W4enum_mysql_timestamp_type@@@Z 0041d4d0 f   field.obj
 0001:0001c530       ?optimize_range@Field@@UAEHII@Z 0041d530 f   field.obj
 0001:0001c560       ?new_key_field@Field@@UAEPAV1@PAUst_mem_root@@PAUst_table@@PADPAEI@Z 0041d560 f   field.obj
 0001:0001c5b0       ?sql_type@Field_null@@UBEXAAVString@@@Z 0041d5b0 f   field.obj
 0001:0001c5d0       ?val_real@Field_decimal@@UAENXZ 0041d5d0 f   field.obj
 0001:0001c600       ?val_int@Field_decimal@@UAE_JXZ 0041d600 f   field.obj
 0001:0001c670       ?val_str@Field_decimal@@UAEPAVString@@PAV2@0@Z 0041d670 f   field.obj
 0001:0001c6d0       ?cmp@Field_decimal@@UAEHPBD0@Z 0041d6d0 f   field.obj
 0001:0001c7d0       ?sort_string@Field_decimal@@UAEXPADI@Z 0041d7d0 f   field.obj
 0001:0001c8a0       ?sql_type@Field_decimal@@UBEXAAVString@@@Z 0041d8a0 f   field.obj
 0001:0001c940       ?set_value_on_overflow@Field_new_decimal@@QAEXPAVmy_decimal@@H@Z 0041d940 f   field.obj
 0001:0001c9a0       ?val_real@Field_new_decimal@@UAENXZ 0041d9a0 f   field.obj
 0001:0001c9e0       ?val_int@Field_new_decimal@@UAE_JXZ 0041d9e0 f   field.obj
 0001:0001ca30       ?val_decimal@Field_new_decimal@@UAEPAVmy_decimal@@PAV2@@Z 0041da30 f   field.obj
 0001:0001ca70       ?val_str@Field_new_decimal@@UAEPAVString@@PAV2@0@Z 0041da70 f   field.obj
 0001:0001cad0       ?cmp@Field_new_decimal@@UAEHPBD0@Z 0041dad0 f   field.obj
 0001:0001cb00       ?sort_string@Field_new_decimal@@UAEXPADI@Z 0041db00 f   field.obj
 0001:0001cb30       ?sql_type@Field_new_decimal@@UBEXAAVString@@@Z 0041db30 f   field.obj
 0001:0001cbb0       ?val_real@Field_tiny@@UAENXZ 0041dbb0 f   field.obj
 0001:0001cbe0       ?val_int@Field_tiny@@UAE_JXZ 0041dbe0 f   field.obj
 0001:0001cc00       ?val_str@Field_tiny@@UAEPAVString@@PAV2@0@Z 0041dc00 f   field.obj
 0001:0001ccb0       ?send_binary@Field_tiny@@UAEHPAVProtocol@@@Z 0041dcb0 f   field.obj
 0001:0001ccd0       ?cmp@Field_tiny@@UAEHPBD0@Z 0041dcd0 f   field.obj
 0001:0001cd20       ?sort_string@Field_tiny@@UAEXPADI@Z 0041dd20 f   field.obj
 0001:0001cd40       ?sql_type@Field_tiny@@UBEXAAVString@@@Z 0041dd40 f   field.obj
 0001:0001cdc0       ?val_real@Field_short@@UAENXZ 0041ddc0 f   field.obj
 0001:0001cdf0       ?val_int@Field_short@@UAE_JXZ 0041ddf0 f   field.obj
 0001:0001ce10       ?val_str@Field_short@@UAEPAVString@@PAV2@0@Z 0041de10 f   field.obj
 0001:0001ceb0       ?send_binary@Field_short@@UAEHPAVProtocol@@@Z 0041deb0 f   field.obj
 0001:0001cf00       ?cmp@Field_short@@UAEHPBD0@Z 0041df00 f   field.obj
 0001:0001cf50       ?sort_string@Field_short@@UAEXPADI@Z 0041df50 f   field.obj
 0001:0001cf80       ?sql_type@Field_short@@UBEXAAVString@@@Z 0041df80 f   field.obj
 0001:0001d000       ?val_real@Field_medium@@UAENXZ 0041e000 f   field.obj
 0001:0001d080       ?val_int@Field_medium@@UAE_JXZ 0041e080 f   field.obj
 0001:0001d0f0       ?val_str@Field_medium@@UAEPAVString@@PAV2@0@Z 0041e0f0 f   field.obj
 0001:0001d1d0       ?send_binary@Field_medium@@UAEHPAVProtocol@@@Z 0041e1d0 f   field.obj
 0001:0001d1f0       ?cmp@Field_medium@@UAEHPBD0@Z 0041e1f0 f   field.obj
 0001:0001d2c0       ?sort_string@Field_medium@@UAEXPADI@Z 0041e2c0 f   field.obj
 0001:0001d300       ?sql_type@Field_medium@@UBEXAAVString@@@Z 0041e300 f   field.obj
 0001:0001d380       ?val_real@Field_long@@UAENXZ 0041e380 f   field.obj
 0001:0001d3b0       ?val_int@Field_long@@UAE_JXZ 0041e3b0 f   field.obj
 0001:0001d3d0       ?val_str@Field_long@@UAEPAVString@@PAV2@0@Z 0041e3d0 f   field.obj
 0001:0001d480       ?send_binary@Field_long@@UAEHPAVProtocol@@@Z 0041e480 f   field.obj
 0001:0001d4c0       ?cmp@Field_long@@UAEHPBD0@Z 0041e4c0 f   field.obj
 0001:0001d510       ?sort_string@Field_long@@UAEXPADI@Z 0041e510 f   field.obj
 0001:0001d550       ?sql_type@Field_long@@UBEXAAVString@@@Z 0041e550 f   field.obj
 0001:0001d5d0       ?val_real@Field_longlong@@UAENXZ 0041e5d0 f   field.obj
 0001:0001d620       ?val_int@Field_longlong@@UAE_JXZ 0041e620 f   field.obj
 0001:0001d630       ?val_str@Field_longlong@@UAEPAVString@@PAV2@0@Z 0041e630 f   field.obj
 0001:0001d6d0       ?send_binary@Field_longlong@@UAEHPAVProtocol@@@Z 0041e6d0 f   field.obj
 0001:0001d700       ?cmp@Field_longlong@@UAEHPBD0@Z 0041e700 f   field.obj
 0001:0001d780       ?sort_string@Field_longlong@@UAEXPADI@Z 0041e780 f   field.obj
 0001:0001d7f0       ?sql_type@Field_longlong@@UBEXAAVString@@@Z 0041e7f0 f   field.obj
 0001:0001d870       ?store@Field_float@@UAEH_JH@Z 0041e870 f   field.obj
 0001:0001d8d0       ?val_real@Field_float@@UAENXZ 0041e8d0 f   field.obj
 0001:0001d8f0       ?val_int@Field_float@@UAE_JXZ 0041e8f0 f   field.obj
 0001:0001d960       ?val_str@Field_float@@UAEPAVString@@PAV2@0@Z 0041e960 f   field.obj
 0001:0001da20       ?cmp@Field_float@@UAEHPBD0@Z 0041ea20 f   field.obj
 0001:0001da80       ?sort_string@Field_float@@UAEXPADI@Z 0041ea80 f   field.obj
 0001:0001db40       ?send_binary@Field_float@@UAEHPAVProtocol@@@Z 0041eb40 f   field.obj
 0001:0001db80       ?sql_type@Field_float@@UBEXAAVString@@@Z 0041eb80 f   field.obj
 0001:0001dc20       ?store@Field_double@@UAEH_JH@Z 0041ec20 f   field.obj
 0001:0001dc80       ?store_decimal@Field_real@@UAEHPBVmy_decimal@@@Z 0041ec80 f   field.obj
 0001:0001dcc0       ?val_real@Field_double@@UAENXZ 0041ecc0 f   field.obj
 0001:0001dce0       ?val_decimal@Field_real@@UAEPAVmy_decimal@@PAV2@@Z 0041ece0 f   field.obj
 0001:0001dd10       ?val_str@Field_double@@UAEPAVString@@PAV2@0@Z 0041ed10 f   field.obj
 0001:0001dde0       ?send_binary@Field_double@@UAEHPAVProtocol@@@Z 0041ede0 f   field.obj
 0001:0001de30       ?cmp@Field_double@@UAEHPBD0@Z 0041ee30 f   field.obj
 0001:0001deb0       ?sort_string@Field_double@@UAEXPADI@Z 0041eeb0 f   field.obj
 0001:0001def0       ?sql_type@Field_double@@UBEXAAVString@@@Z 0041eef0 f   field.obj
 0001:0001df90       ?get_auto_set_type@Field_timestamp@@QBE?AW4timestamp_auto_set_type@@XZ 0041ef90 f   field.obj
 0001:0001dfe0       ?val_int@Field_timestamp@@UAE_JXZ 0041efe0 f   field.obj
 0001:0001e0b0       ?get_date@Field_timestamp@@UAEHPAUst_mysql_time@@I@Z 0041f0b0 f   field.obj
 0001:0001e160       ?get_time@Field_timestamp@@UAEHPAUst_mysql_time@@@Z 0041f160 f   field.obj
 0001:0001e180       ?send_binary@Field_timestamp@@UAEHPAVProtocol@@@Z 0041f180 f   field.obj
 0001:0001e1b0       ?cmp@Field_timestamp@@UAEHPBD0@Z 0041f1b0 f   field.obj
 0001:0001e1e0       ?sort_string@Field_timestamp@@UAEXPADI@Z 0041f1e0 f   field.obj
 0001:0001e220       ?sql_type@Field_timestamp@@UBEXAAVString@@@Z 0041f220 f   field.obj
 0001:0001e240       ?set_time@Field_timestamp@@QAEXXZ 0041f240 f   field.obj
 0001:0001e2b0       ?val_real@Field_time@@UAENXZ 0041f2b0 f   field.obj
 0001:0001e2e0       ?val_int@Field_time@@UAE_JXZ 0041f2e0 f   field.obj
 0001:0001e330       ?val_str@Field_time@@UAEPAVString@@PAV2@0@Z 0041f330 f   field.obj
 0001:0001e420       ?get_date@Field_time@@UAEHPAUst_mysql_time@@I@Z 0041f420 f   field.obj
 0001:0001e540       ?get_time@Field_time@@UAEHPAUst_mysql_time@@@Z 0041f540 f   field.obj
 0001:0001e600       ?send_binary@Field_time@@UAEHPAVProtocol@@@Z 0041f600 f   field.obj
 0001:0001e650       ?cmp@Field_time@@UAEHPBD0@Z 0041f650 f   field.obj
 0001:0001e700       ?sort_string@Field_time@@UAEXPADI@Z 0041f700 f   field.obj
 0001:0001e730       ?sql_type@Field_time@@UBEXAAVString@@@Z 0041f730 f   field.obj
 0001:0001e750       ?val_int@Field_year@@UAE_JXZ 0041f750 f   field.obj
 0001:0001e780       ?val_str@Field_year@@UAEPAVString@@PAV2@0@Z 0041f780 f   field.obj
 0001:0001e820       ?sql_type@Field_year@@UBEXAAVString@@@Z 0041f820 f   field.obj
 0001:0001e860       ?val_real@Field_date@@UAENXZ 0041f860 f   field.obj
 0001:0001e880       ?val_int@Field_date@@UAE_JXZ 0041f880 f   field.obj
 0001:0001e890       ?val_str@Field_date@@UAEPAVString@@PAV2@0@Z 0041f890 f   field.obj
 0001:0001e930       ?cmp@Field_date@@UAEHPBD0@Z 0041f930 f   field.obj
 0001:0001e960       ?sort_string@Field_date@@UAEXPADI@Z 0041f960 f   field.obj
 0001:0001e9a0       ?sql_type@Field_date@@UBEXAAVString@@@Z 0041f9a0 f   field.obj
 0001:0001e9c0       ?val_int@Field_newdate@@UAE_JXZ 0041f9c0 f   field.obj
 0001:0001ea00       ?val_str@Field_newdate@@UAEPAVString@@PAV2@0@Z 0041fa00 f   field.obj
 0001:0001ead0       ?get_date@Field_newdate@@UAEHPAUst_mysql_time@@I@Z 0041fad0 f   field.obj
 0001:0001eb40       ?get_time@Field_newdate@@UAEHPAUst_mysql_time@@@Z 0041fb40 f   field.obj
 0001:0001ebb0       ?cmp@Field_newdate@@UAEHPBD0@Z 0041fbb0 f   field.obj
 0001:0001ebf0       ?sort_string@Field_newdate@@UAEXPADI@Z 0041fbf0 f   field.obj
 0001:0001ec20       ?sql_type@Field_newdate@@UBEXAAVString@@@Z 0041fc20 f   field.obj
 0001:0001ec40       ?val_int@Field_datetime@@UAE_JXZ 0041fc40 f   field.obj
 0001:0001ec50       ?val_str@Field_datetime@@UAEPAVString@@PAV2@0@Z 0041fc50 f   field.obj
 0001:0001ed80       ?get_date@Field_datetime@@UAEHPAUst_mysql_time@@I@Z 0041fd80 f   field.obj
 0001:0001ee50       ?get_time@Field_datetime@@UAEHPAUst_mysql_time@@@Z 0041fe50 f   field.obj
 0001:0001ee70       ?cmp@Field_datetime@@UAEHPBD0@Z 0041fe70 f   field.obj
 0001:0001eec0       ?sort_string@Field_datetime@@UAEXPADI@Z 0041fec0 f   field.obj
 0001:0001ef20       ?sql_type@Field_datetime@@UBEXAAVString@@@Z 0041ff20 f   field.obj
 0001:0001f080       ?store@Field_str@@UAEHN@Z  00420080 f   field.obj
 0001:0001f1e0       ?cmp@Field_string@@UAEHPBD0@Z 004201e0 f   field.obj
 0001:0001f270       ?sort_string@Field_string@@UAEXPADI@Z 00420270 f   field.obj
 0001:0001f2a0       ?sql_type@Field_string@@UBEXAAVString@@@Z 004202a0 f   field.obj
 0001:0001f3e0       ?pack@Field_string@@UAEPADPADPBDI@Z 004203e0 f   field.obj
 0001:0001f480       ?unpack@Field_string@@UAEPBDPADPBD@Z 00420480 f   field.obj
 0001:0001f500       ?pack_cmp@Field_string@@UAEHPBD0ID@Z 00420500 f   field.obj
 0001:0001f560       ?pack_cmp@Field_string@@UAEHPBDID@Z 00420560 f   field.obj
 0001:0001f5e0       ?packed_col_length@Field_string@@UAEIPBDI@Z 004205e0 f   field.obj
 0001:0001f610       ?max_packed_col_length@Field_string@@UAEII@Z 00420610 f   field.obj
 0001:0001f630       ?get_key_image@Field_string@@UAEIPADIW4imagetype@Field@@@Z 00420630 f   field.obj
 0001:0001f6c0       ?val_real@Field_varstring@@UAENXZ 004206c0 f   field.obj
 0001:0001f710       ?val_int@Field_varstring@@UAE_JXZ 00420710 f   field.obj
 0001:0001f760       ?val_decimal@Field_varstring@@UAEPAVmy_decimal@@PAV2@@Z 00420760 f   field.obj
 0001:0001f7c0       ?cmp@Field_varstring@@UAEHPBD0@Z 004207c0 f   field.obj
 0001:0001f820       ?key_cmp@Field_varstring@@UAEHPBEI@Z 00420820 f   field.obj
 0001:0001f8b0       ?key_cmp@Field_varstring@@UAEHPBE0@Z 004208b0 f   field.obj
 0001:0001f8f0       ?sort_string@Field_varstring@@UAEXPADI@Z 004208f0 f   field.obj
 0001:0001f970       ?key_type@Field_varstring@@UBE?AW4ha_base_keytype@@XZ 00420970 f   field.obj
 0001:0001f9b0       ?sql_type@Field_varstring@@UBEXAAVString@@@Z 004209b0 f   field.obj
 0001:0001fab0       ?data_length@Field_varstring@@UAEKPBD@Z 00420ab0 f   field.obj
 0001:0001fad0       ?pack@Field_varstring@@UAEPADPADPBDI@Z 00420ad0 f   field.obj
 0001:0001fb50       ?pack_key@Field_varstring@@UAEPADPADPBDI@Z 00420b50 f   field.obj
 0001:0001fc00       ?unpack_key@Field_varstring@@UAEPBDPADPBDI@Z 00420c00 f   field.obj
 0001:0001fc70       ?pack_key_from_key_image@Field_varstring@@UAEPADPADPBDI@Z 00420c70 f   field.obj
 0001:0001fcd0       ?unpack@Field_varstring@@UAEPBDPADPBD@Z 00420cd0 f   field.obj
 0001:0001fd40       ?pack_cmp@Field_varstring@@UAEHPBD0ID@Z 00420d40 f   field.obj
 0001:0001fda0       ?pack_cmp@Field_varstring@@UAEHPBDID@Z 00420da0 f   field.obj
 0001:0001fe60       ?packed_col_length@Field_varstring@@UAEIPBDI@Z 00420e60 f   field.obj
 0001:0001fe90       ?max_packed_col_length@Field_varstring@@UAEII@Z 00420e90 f   field.obj
 0001:0001feb0       ?get_key_image@Field_varstring@@UAEIPADIW4imagetype@Field@@@Z 00420eb0 f   field.obj
 0001:0001ff50       ?cmp_binary@Field_varstring@@UAEHPBD0K@Z 00420f50 f   field.obj
 0001:0001ffc0       ?new_key_field@Field_varstring@@UAEPAVField@@PAUst_mem_root@@PAUst_table@@PADPAEI@Z 00420fc0 f   field.obj
 0001:00020020       ?store_length@Field_blob@@QAEXK@Z 00421020 f   field.obj
 0001:000200b0       ?get_length@Field_blob@@QAEKPBD@Z 004210b0 f   field.obj
 0001:00020120       ?put_length@Field_blob@@QAEXPADK@Z 00421120 f   field.obj
 0001:000201b0       ?val_real@Field_blob@@UAENXZ 004211b0 f   field.obj
 0001:00020220       ?val_int@Field_blob@@UAE_JXZ 00421220 f   field.obj
 0001:00020290       ?val_decimal@Field_blob@@UAEPAVmy_decimal@@PAV2@@Z 00421290 f   field.obj
 0001:000202f0       ?cmp@Field_blob@@QAEHPBDK0K@Z 004212f0 f   field.obj
 0001:00020320       ?cmp@Field_blob@@UAEHPBD0@Z 00421320 f   field.obj
 0001:00020380       ?cmp_binary@Field_blob@@UAEHPBD0K@Z 00421380 f   field.obj
 0001:00020420       ?get_key_image@Field_blob@@UAEIPADIW4imagetype@Field@@@Z 00421420 f   field.obj
 0001:00020610       ?key_cmp@Field_blob@@UAEHPBEI@Z 00421610 f   field.obj
 0001:00020690       ?key_cmp@Field_blob@@UAEHPBE0@Z 00421690 f   field.obj
 0001:000206d0       ?sort_length@Field_blob@@UBEKXZ 004216d0 f   field.obj
 0001:00020710       ?sql_type@Field_blob@@UBEXAAVString@@@Z 00421710 f   field.obj
 0001:000207b0       ?unpack@Field_blob@@UAEPBDPADPBD@Z 004217b0 f   field.obj
 0001:00020820       ?pack_cmp@Field_blob@@UAEHPBD0ID@Z 00421820 f   field.obj
 0001:00020880       ?pack_cmp@Field_blob@@UAEHPBDID@Z 00421880 f   field.obj
 0001:00020900       ?unpack_key@Field_blob@@UAEPBDPADPBDI@Z 00421900 f   field.obj
 0001:00020970       ?pack_key_from_key_image@Field_blob@@UAEPADPADPBDI@Z 00421970 f   field.obj
 0001:000209d0       ?packed_col_length@Field_blob@@UAEIPBDI@Z 004219d0 f   field.obj
 0001:00020a00       ?max_packed_col_length@Field_blob@@UAEII@Z 00421a00 f   field.obj
 0001:00020a20       ?get_key_image@Field_geom@@UAEIPADIW4imagetype@Field@@@Z 00421a20 f   field.obj
 0001:00020b70       ?store@Field_geom@@UAEHN@Z 00421b70 f   field.obj
 0001:00020ba0       ?store@Field_geom@@UAEH_JH@Z 00421ba0 f   field.obj
 0001:00020bd0       ?store_decimal@Field_geom@@UAEHPBVmy_decimal@@@Z 00421bd0 f   field.obj
 0001:00020c00       ?store@Field_geom@@UAEHPBDIPAUcharset_info_st@@@Z 00421c00 f   field.obj
 0001:00020d30       ?key_type@Field_enum@@UBE?AW4ha_base_keytype@@XZ 00421d30 f   field.obj
 0001:00020d90       ?store_type@Field_enum@@QAEX_K@Z 00421d90 f   field.obj
 0001:00020e40       ?val_int@Field_enum@@UAE_JXZ 00421e40 f   field.obj
 0001:00020ec0       ?cmp@Field_enum@@UAEHPBD0@Z 00421ec0 f   field.obj
 0001:00020f40       ?sort_string@Field_enum@@UAEXPADI@Z 00421f40 f   field.obj
 0001:00020f90       ?eq_def@Field@@UAEHPAV1@@Z 00421f90 f   field.obj
 0001:00021010       ?eq_def@Field_enum@@UAEHPAVField@@@Z 00422010 f   field.obj
 0001:00021110       ?eq_def@Field_num@@UAEHPAVField@@@Z 00422110 f   field.obj
 0001:00021170       ??1Field_bit@@UAE@XZ       00422170 f i field.obj
 0001:00021180       ?new_key_field@Field_bit@@UAEPAVField@@PAUst_mem_root@@PAUst_table@@PADPAEI@Z 00422180 f   field.obj
 0001:000211f0       ?store@Field_bit@@UAEHN@Z  004221f0 f   field.obj
 0001:00021220       ?store@Field_bit@@UAEH_JH@Z 00422220 f   field.obj
 0001:000212b0       ?val_int@Field_bit@@UAE_JXZ 004222b0 f   field.obj
 0001:000215d0       ?val_str@Field_bit@@UAEPAVString@@PAV2@0@Z 004225d0 f   field.obj
 0001:000216c0       ?val_decimal@Field_bit@@UAEPAVmy_decimal@@PAV2@@Z 004226c0 f   field.obj
 0001:00021700       ?key_cmp@Field_bit@@UAEHPBEI@Z 00422700 f   field.obj
 0001:00021780       ?cmp_offset@Field_bit@@UAEHI@Z 00422780 f   field.obj
 0001:00021800       ?get_key_image@Field_bit@@UAEIPADIW4imagetype@Field@@@Z 00422800 f   field.obj
 0001:00021880       ?sql_type@Field_bit@@UBEXAAVString@@@Z 00422880 f   field.obj
 0001:000218c0       ?pack@Field_bit@@UAEPADPADPBDI@Z 004228c0 f   field.obj
 0001:00021940       ?unpack@Field_bit@@UAEPBDPADPBD@Z 00422940 f   field.obj
 0001:000219f0       ?sql_type@Field_bit_as_char@@UBEXAAVString@@@Z 004229f0 f   field.obj
 0001:00021a30       ?init_for_tmp_table@create_field@@QAEXW4enum_field_types@@KKHH@Z 00422a30 f   field.obj
 0001:00021ab0       ?get_blob_type_from_length@@YA?AW4enum_field_types@@K@Z 00422ab0 f   field.obj
 0001:00021af0       ?calc_pack_length@@YAKW4enum_field_types@@K@Z 00422af0 f   field.obj
 0001:00021c20       ?pack_length_to_packflag@@YAII@Z 00422c20 f   field.obj
 0001:00021c90       ?max_display_length@Field_blob@@UAEKXZ 00422c90 f   field.obj
 0001:00021d00       ?set_warning@Field@@QAEHW4enum_warning_level@MYSQL_ERROR@@IH@Z 00422d00 f   field.obj
 0001:00021da0       ?set_datetime_warning@Field@@QAEXW4enum_warning_level@MYSQL_ERROR@@IPBDIW4enum_mysql_timestamp_type@@H@Z 00422da0 f   field.obj
 0001:00021e50       ?set_datetime_warning@Field@@QAEXW4enum_warning_level@MYSQL_ERROR@@I_JW4enum_mysql_timestamp_type@@H@Z 00422e50 f   field.obj
 0001:00021f30       ?set_datetime_warning@Field@@QAEXW4enum_warning_level@MYSQL_ERROR@@INW4enum_mysql_timestamp_type@@@Z 00422f30 f   field.obj
 0001:00022010       ??0?$List@VString@@@@QAE@XZ 00423010 f i field.obj
 0001:00022030       ?push_back@?$List@VString@@@@QAEHPAVString@@@Z 00423030 f i field.obj
 0001:00022090       ??E?$List_iterator@VString@@@@QAEPAVString@@H@Z 00423090 f i field.obj
 0001:000220b0       ?set_prefix@?$Bitmap@$0EA@@@QAEXI@Z 004230b0 f i field.obj
 0001:00022100       ??1String@@QAE@XZ          00423100 f i field.obj
 0001:00022140       ?set@String@@QAEXPBDKPAUcharset_info_st@@@Z 00423140 f i field.obj
 0001:000221a0       ??0base_list_iterator@@QAE@AAVbase_list@@@Z 004231a0 f i field.obj
 0001:000221c0       ?get_length@Field_blob@@QAEKI@Z 004231c0 f i field.obj
 0001:000221e0       ??1Field_blob@@UAE@XZ      004231e0 f i field.obj
 0001:00022220       ??1?$List@VString@@@@QAE@XZ 00423220 f i field.obj
 0001:00022230       ??1Item@@UAE@XZ            00423230 f i field.obj
 0001:00022270       ?save_org_in_field@Item@@UAEXPAVField@@@Z 00423270 f i field.obj
 0001:00022290       ?save_safe_in_field@Item@@UAEHPAVField@@@Z 00423290 f i field.obj
 0001:000222b0       ?result_type@Item@@UBE?AW4Item_result@@XZ 004232b0 f i field.obj
 0001:000222c0       ?cast_to_int_type@Item@@UBE?AW4Item_result@@XZ 004232c0 f i field.obj
 0001:000222d0       ?get_tmp_table_field@Item@@UAEPAVField@@XZ 004232d0 f i field.obj
 0001:000222e0       ?tmp_table_field@Item@@UAEPAVField@@PAUst_table@@@Z 004232e0 f i field.obj
 0001:000222f0       ?full_name@Item@@UBEPBDXZ  004232f0 f i field.obj
 0001:00022300       ?val_result@Item@@UAENXZ   00423300 f i field.obj
 0001:00022310       ?val_int_result@Item@@UAE_JXZ 00423310 f i field.obj
 0001:00022320       ?str_result@Item@@UAEPAVString@@PAV2@@Z 00423320 f i field.obj
 0001:00022330       ?val_decimal_result@Item@@UAEPAVmy_decimal@@PAV2@@Z 00423330 f i field.obj
 0001:00022340       ?val_bool_result@Item@@UAEHXZ 00423340 f i field.obj
 0001:00022350       ?used_tables@Item@@UBE_KXZ 00423350 f i field.obj
 0001:00022360       ?not_null_tables@Item@@UBE_KXZ 00423360 f i field.obj
 0001:00022370       ?basic_const_item@Item@@UBEHXZ 00423370 f i field.obj
 0001:00022380       ?clone_item@Item@@UAEPAV1@XZ 00423380 f i field.obj
 0001:00022390       ?eq_cmp_result@Item@@UBE?AW4cond_result@1@XZ 00423390 f i field.obj
 0001:000223a0       ?const_item@Item@@UBEHXZ   004233a0 f i field.obj
 0001:000223c0       ?const_during_execution@Item@@UBEHXZ 004233c0 f i field.obj
 0001:000223e0       ?print@Item@@UAEXPAVString@@@Z 004233e0 f i field.obj
 0001:00022400       ?update_used_tables@Item@@UAEXXZ 00423400 f i field.obj
 0001:00022410       ?split_sum_func@Item@@UAEXPAVTHD@@PAPAV1@AAV?$List@VItem@@@@@Z 00423410 f i field.obj
 0001:00022420       ?get_date_result@Item@@UAEHPAUst_mysql_time@@I@Z 00423420 f i field.obj
 0001:00022430       ?is_null@Item@@UAEHXZ      00423430 f i field.obj
 0001:00022440       ?update_null_value@Item@@UAEXXZ 00423440 f i field.obj
 0001:00022450       ?top_level_item@Item@@UAEXXZ 00423450 f i field.obj
 0001:00022460       ?set_result_field@Item@@UAEXPAVField@@@Z 00423460 f i field.obj
 0001:00022470       ?is_result_field@Item@@UAEHXZ 00423470 f i field.obj
 0001:00022480       ?is_bool_func@Item@@UAEHXZ 00423480 f i field.obj
 0001:00022490       ?save_in_result_field@Item@@UAEXH@Z 00423490 f i field.obj
 0001:000224a0       ?no_rows_in_result@Item@@UAEXXZ 004234a0 f i field.obj
 0001:000224b0       ?copy_or_same@Item@@UAEPAV1@PAVTHD@@@Z 004234b0 f i field.obj
 0001:000224c0       ?copy_andor_structure@Item@@UAEPAV1@PAVTHD@@@Z 004234c0 f i field.obj
 0001:000224d0       ?real_item@Item@@UAEPAV1@XZ 004234d0 f i field.obj
 0001:000224e0       ?get_tmp_table_item@Item@@UAEPAV1@PAVTHD@@@Z 004234e0 f i field.obj
 0001:000224f0       ?compare_collation@Item@@UAEPAUcharset_info_st@@XZ 004234f0 f i field.obj
 0001:00022500       ?walk@Item@@UAEHP81@AEHPAE@Z0@Z 00423500 f i field.obj
 0001:00022510       ?compile@Item@@UAEPAV1@P81@AEHPAPAE@Z0P81@AEPAV1@PAE@Z2@Z 00423510 f i field.obj
 0001:00022540       ?traverse_cond@Item@@UAEXP6AXPBV1@PAX@Z1W4traverse_order@1@@Z 00423540 f i field.obj
 0001:00022560       ?remove_dependence_processor@Item@@UAEHPAE@Z 00423560 f i field.obj
 0001:00022570       ?remove_fixed@Item@@UAEHPAE@Z 00423570 f i field.obj
 0001:00022580       ?collect_item_field_processor@Item@@UAEHPAE@Z 00423580 f i field.obj
 0001:00022590       ?find_item_in_field_list_processor@Item@@UAEHPAE@Z 00423590 f i field.obj
 0001:000225a0       ?change_context_processor@Item@@UAEHPAE@Z 004235a0 f i field.obj
 0001:000225b0       ?reset_query_id_processor@Item@@UAEHPAE@Z 004235b0 f i field.obj
 0001:000225c0       ?is_expensive_processor@Item@@UAEHPAE@Z 004235c0 f i field.obj
 0001:000225d0       ?subst_argument_checker@Item@@UAEHPAPAE@Z 004235d0 f i field.obj
 0001:000225f0       ?equal_fields_propagator@Item@@UAEPAV1@PAE@Z 004235f0 f i field.obj
 0001:00022600       ?set_no_const_sub@Item@@UAEHPAE@Z 00423600 f i field.obj
 0001:00022610       ?replace_equal_field@Item@@UAEPAV1@PAE@Z 00423610 f i field.obj
 0001:00022620       ?this_item@Item@@UAEPAV1@XZ 00423620 f i field.obj
 0001:00022630       ?this_item@Item@@UBEPBV1@XZ 00423630 f i field.obj
 0001:00022640       ?this_item_addr@Item@@UAEPAPAV1@PAVTHD@@PAPAV1@@Z 00423640 f i field.obj
 0001:00022650       ?cols@Item@@UAEIXZ         00423650 f i field.obj
 0001:00022660       ?element_index@Item@@UAEPAV1@I@Z 00423660 f i field.obj
 0001:00022670       ?addr@Item@@UAEPAPAV1@I@Z  00423670 f i field.obj
 0001:00022680       ?null_inside@Item@@UAEHXZ  00423680 f i field.obj
 0001:00022690       ?bring_value@Item@@UAEXXZ  00423690 f i field.obj
 0001:000226a0       ?filed_for_view_update@Item@@UAEPAVItem_field@@XZ 004236a0 f i field.obj
 0001:000226b0       ?neg_transformer@Item@@UAEPAV1@PAVTHD@@@Z 004236b0 f i field.obj
 0001:000226c0       ?update_value_transformer@Item@@UAEPAV1@PAE@Z 004236c0 f i field.obj
 0001:000226d0       ?is_splocal@Item@@UAEHXZ   004236d0 f i field.obj
 0001:000226e0       ?get_settable_routine_parameter@Item@@UAEPAVSettable_routine_parameter@@XZ 004236e0 f i field.obj
 0001:000226f0       ?result_as_longlong@Item@@UAEHXZ 004236f0 f i field.obj
 0001:00022700       ??_GItem@@UAEPAXI@Z        00423700 f i field.obj
 0001:00022700       ??_EItem@@UAEPAXI@Z        00423700 f i field.obj
 0001:00022740       ??0Item_string@@QAE@PBDIPAUcharset_info_st@@W4Derivation@@I@Z 00423740 f i field.obj
 0001:000227d0       ?type@Item_string@@UBE?AW4Type@Item@@XZ 004237d0 f i field.obj
 0001:000227e0       ?val_str@Item_string@@UAEPAVString@@PAV2@@Z 004237e0 f i field.obj
 0001:000227f0       ?result_type@Item_string@@UBE?AW4Item_result@@XZ 004237f0 f i field.obj
 0001:00022800       ?field_type@Item_string@@UBE?AW4enum_field_types@@XZ 00423800 f i field.obj
 0001:00022810       ?basic_const_item@Item_string@@UBEHXZ 00423810 f i field.obj
 0001:00022820       ?cleanup@Item_string@@UAEXXZ 00423820 f i field.obj
 0001:00022830       ?clone_item@Item_string@@UAEPAVItem@@XZ 00423830 f i field.obj
 0001:00022880       ??0Item_string@@QAE@PBD0IPAUcharset_info_st@@W4Derivation@@I@Z 00423880 f i field.obj
 0001:00022900       ?check_int@Field_num@@QAEHPAUcharset_info_st@@PBDH1H@Z 00423900 f   field.obj
 0001:00022ae0       ?get_int@Field_num@@QAEHPAUcharset_info_st@@PBDIPA_J_K_J4@Z 00423ae0 f   field.obj
 0001:00022c60       ?warn_if_overflow@Field@@QAEHH@Z 00423c60 f   field.obj
 0001:00022d10       ?send_binary@Field@@UAEHPAVProtocol@@@Z 00423d10 f   field.obj
 0001:00022de0       ?convert_decimal2longlong@Field@@QAE_JPBVmy_decimal@@HPAH@Z 00423de0 f   field.obj
 0001:00022f90       ?store_decimal@Field_num@@UAEHPBVmy_decimal@@@Z 00423f90 f   field.obj
 0001:00022fe0       ?store_decimal@Field_str@@UAEHPBVmy_decimal@@@Z 00423fe0 f   field.obj
 0001:00023030       ?get_date@Field@@UAEHPAUst_mysql_time@@I@Z 00424030 f   field.obj
 0001:00023120       ?get_time@Field@@UAEHPAUst_mysql_time@@@Z 00424120 f   field.obj
 0001:00023200       ?overflow@Field_decimal@@QAEXH@Z 00424200 f   field.obj
 0001:00023350       ?store@Field_decimal@@UAEHPBDIPAUcharset_info_st@@@Z 00424350 f   field.obj
 0001:00023ba0       ?store@Field_decimal@@UAEHN@Z 00424ba0 f   field.obj
 0001:00023de0       ?store@Field_decimal@@UAEH_JH@Z 00424de0 f   field.obj
 0001:00023fd0       ?store_value@Field_new_decimal@@QAEHPBVmy_decimal@@@Z 00424fd0 f   field.obj
 0001:000240b0       ?store@Field_new_decimal@@UAEHPBDIPAUcharset_info_st@@@Z 004250b0 f   field.obj
 0001:00024350       ?store@Field_new_decimal@@UAEHN@Z 00425350 f   field.obj
 0001:00024460       ?store@Field_new_decimal@@UAEH_JH@Z 00425460 f   field.obj
 0001:00024560       ?store_decimal@Field_new_decimal@@UAEHPBVmy_decimal@@@Z 00425560 f   field.obj
 0001:00024570       ?store_time@Field_new_decimal@@UAEHPAUst_mysql_time@@W4enum_mysql_timestamp_type@@@Z 00425570 f   field.obj
 0001:000245c0       ?store@Field_tiny@@UAEHPBDIPAUcharset_info_st@@@Z 004255c0 f   field.obj
 0001:00024610       ?store@Field_tiny@@UAEHN@Z 00425610 f   field.obj
 0001:00024720       ?store@Field_tiny@@UAEH_JH@Z 00425720 f   field.obj
 0001:000247e0       ?store@Field_short@@UAEHPBDIPAUcharset_info_st@@@Z 004257e0 f   field.obj
 0001:00024840       ?store@Field_short@@UAEHN@Z 00425840 f   field.obj
 0001:00024950       ?store@Field_short@@UAEH_JH@Z 00425950 f   field.obj
 0001:00024a10       ?store@Field_medium@@UAEHPBDIPAUcharset_info_st@@@Z 00425a10 f   field.obj
 0001:00024a90       ?store@Field_medium@@UAEHN@Z 00425a90 f   field.obj
 0001:00024c50       ?store@Field_medium@@UAEH_JH@Z 00425c50 f   field.obj
 0001:00024da0       ?store@Field_long@@UAEHPBDIPAUcharset_info_st@@@Z 00425da0 f   field.obj
 0001:00024e00       ?store@Field_long@@UAEHN@Z 00425e00 f   field.obj
 0001:00024f90       ?store@Field_long@@UAEH_JH@Z 00425f90 f   field.obj
 0001:000250c0       ?store@Field_longlong@@UAEHPBDIPAUcharset_info_st@@@Z 004260c0 f   field.obj
 0001:00025200       ?store@Field_longlong@@UAEHN@Z 00426200 f   field.obj
 0001:000253d0       ?store@Field_longlong@@UAEH_JH@Z 004263d0 f   field.obj
 0001:00025440       ?truncate@Field_real@@QAEHPANN@Z 00426440 f   field.obj
 0001:00025750       ?val_int@Field_double@@UAE_JXZ 00426750 f   field.obj
 0001:000258f0       ?store@Field_timestamp@@UAEHPBDIPAUcharset_info_st@@@Z 004268f0 f   field.obj
 0001:00025b30       ?store@Field_timestamp@@UAEH_JH@Z 00426b30 f   field.obj
 0001:00025c90       ?val_real@Field_timestamp@@UAENXZ 00426c90 f   field.obj
 0001:00025cb0       ?val_str@Field_timestamp@@UAEPAVString@@PAV2@0@Z 00426cb0 f   field.obj
 0001:00025f10       ?store@Field_time@@UAEHPBDIPAUcharset_info_st@@@Z 00426f10 f   field.obj
 0001:00026280       ?store@Field_time@@UAEHN@Z 00427280 f   field.obj
 0001:00026370       ?store@Field_time@@UAEH_JH@Z 00427370 f   field.obj
 0001:00026490       ?store@Field_year@@UAEHPBDIPAUcharset_info_st@@@Z 00427490 f   field.obj
 0001:000266c0       ?store@Field_year@@UAEH_JH@Z 004276c0 f   field.obj
 0001:00026810       ?send_binary@Field_year@@UAEHPAVProtocol@@@Z 00427810 f   field.obj
 0001:00026870       ?val_real@Field_year@@UAENXZ 00427870 f   field.obj
 0001:000268b0       ?store@Field_date@@UAEHPBDIPAUcharset_info_st@@@Z 004278b0 f   field.obj
 0001:00026a40       ?store@Field_date@@UAEH_JH@Z 00427a40 f   field.obj
 0001:00026b80       ?send_binary@Field_date@@UAEHPAVProtocol@@@Z 00427b80 f   field.obj
 0001:00026c00       ?store@Field_newdate@@UAEHPBDIPAUcharset_info_st@@@Z 00427c00 f   field.obj
 0001:00026d30       ?store@Field_newdate@@UAEH_JH@Z 00427d30 f   field.obj
 0001:00026e80       ?store_time@Field_newdate@@UAEHPAUst_mysql_time@@W4enum_mysql_timestamp_type@@@Z 00427e80 f   field.obj
 0001:00027170       ?send_binary@Field_newdate@@UAEHPAVProtocol@@@Z 00428170 f   field.obj
 0001:000271e0       ?val_real@Field_newdate@@UAENXZ 004281e0 f   field.obj
 0001:00027230       ?store@Field_datetime@@UAEHPBDIPAUcharset_info_st@@@Z 00428230 f   field.obj
 0001:000273d0       ?store@Field_datetime@@UAEH_JH@Z 004283d0 f   field.obj
 0001:000274c0       ?store_time@Field_datetime@@UAEHPAUst_mysql_time@@W4enum_mysql_timestamp_type@@@Z 004284c0 f   field.obj
 0001:00027710       ?send_binary@Field_datetime@@UAEHPAVProtocol@@@Z 00428710 f   field.obj
 0001:00027740       ?val_real@Field_datetime@@UAENXZ 00428740 f   field.obj
 0001:00027760       ?report_data_too_long@@YAXPAVField_str@@@Z 00428760 f i field.obj
 0001:00027850       ?store@Field_string@@UAEHPBDIPAUcharset_info_st@@@Z 00428850 f   field.obj
 0001:00027960       ?store@Field_string@@UAEH_JH@Z 00428960 f   field.obj
 0001:000279e0       ?store_decimal@Field_longstr@@UAEHPBVmy_decimal@@@Z 004289e0 f   field.obj
 0001:00027ab0       ?val_real@Field_string@@UAENXZ 00428ab0 f   field.obj
 0001:00027c70       ?val_int@Field_string@@UAE_JXZ 00428c70 f   field.obj
 0001:00027e30       ?val_str@Field_string@@UAEPAVString@@PAV2@0@Z 00428e30 f   field.obj
 0001:00027eb0       ?val_decimal@Field_string@@UAEPAVmy_decimal@@PAV2@@Z 00428eb0 f   field.obj
 0001:00028030       ?store@Field_varstring@@UAEHPBDIPAUcharset_info_st@@@Z 00429030 f   field.obj
 0001:00028150       ?store@Field_varstring@@UAEH_JH@Z 00429150 f   field.obj
 0001:000281d0       ?val_str@Field_varstring@@UAEPAVString@@PAV2@0@Z 004291d0 f   field.obj
 0001:00028250       ?set_key_image@Field_varstring@@UAEXPADI@Z 00429250 f   field.obj
 0001:00028270       ?store@Field_blob@@UAEHPBDIPAUcharset_info_st@@@Z 00429270 f   field.obj
 0001:00028570       ?store@Field_blob@@UAEHN@Z 00429570 f   field.obj
 0001:000285c0       ?store@Field_blob@@UAEH_JH@Z 004295c0 f   field.obj
 0001:00028630       ?val_str@Field_blob@@UAEPAVString@@PAV2@0@Z 00429630 f   field.obj
 0001:00028710       ?set_key_image@Field_blob@@UAEXPADI@Z 00429710 f   field.obj
 0001:00028730       ?sort_string@Field_blob@@UAEXPADI@Z 00429730 f   field.obj
 0001:00028830       ?pack@Field_blob@@UAEPADPADPBDI@Z 00429830 f   field.obj
 0001:000288f0       ?pack_key@Field_blob@@UAEPADPADPBDI@Z 004298f0 f   field.obj
 0001:000289b0       ?sql_type@Field_geom@@UBEXAAVString@@@Z 004299b0 f   field.obj
 0001:00028b20       ?store@Field_enum@@UAEHPBDIPAUcharset_info_st@@@Z 00429b20 f   field.obj
 0001:00028d00       ?store@Field_enum@@UAEH_JH@Z 00429d00 f   field.obj
 0001:00028df0       ?val_real@Field_enum@@UAENXZ 00429df0 f   field.obj
 0001:00028e10       ?val_str@Field_enum@@UAEPAVString@@PAV2@0@Z 00429e10 f   field.obj
 0001:00028eb0       ?sql_type@Field_enum@@UBEXAAVString@@@Z 00429eb0 f   field.obj
 0001:00029040       ?store@Field_set@@UAEHPBDIPAUcharset_info_st@@@Z 0042a040 f   field.obj
 0001:00029240       ?store@Field_set@@UAEH_JH@Z 0042a240 f   field.obj
 0001:00029310       ?val_str@Field_set@@UAEPAVString@@PAV2@0@Z 0042a310 f   field.obj
 0001:00029430       ?sql_type@Field_set@@UBEXAAVString@@@Z 0042a430 f   field.obj
 0001:000295c0       ?store@Field_bit@@UAEHPBDIPAUcharset_info_st@@@Z 0042a5c0 f   field.obj
 0001:000299c0       ?store_decimal@Field_bit@@UAEHPBVmy_decimal@@@Z 0042a9c0 f   field.obj
 0001:00029a10       ?val_real@Field_bit@@UAENXZ 0042aa10 f   field.obj
 0001:00029a30       ?store@Field_bit_as_char@@UAEHPBDIPAUcharset_info_st@@@Z 0042aa30 f   field.obj
 0001:00029c20       ?create_length_to_internal_length@create_field@@QAEXXZ 0042ac20 f   field.obj
 0001:00029e70       ??0create_field@@QAE@PAVField@@0@Z 0042ae70 f   field.obj
 0001:0002a2d0       ??0?$List_iterator@VString@@@@QAE@AAV?$List@VString@@@@@Z 0042b2d0 f i field.obj
 0001:0002a2f0       ??0?$Bitmap@$0EA@@@QAE@I@Z 0042b2f0 f i field.obj
 0001:0002a340       ?init@?$Bitmap@$0EA@@@QAEXI@Z 0042b340 f i field.obj
 0001:0002a390       ??_EItem_string@@UAEPAXI@Z 0042b390 f i field.obj
 0001:0002a390       ??_GItem_string@@UAEPAXI@Z 0042b390 f i field.obj
 0001:0002a3b0       ??0Field@@QAE@PADKPAEEW4utype@0@PBDPAUst_table@@@Z 0042b3b0 f   field.obj
 0001:0002a460       ??0Field_str@@QAE@PADKPAEEW4utype@Field@@PBDPAUst_table@@PAUcharset_info_st@@@Z 0042b460 f   field.obj
 0001:0002a4d0       ?result_type@Field_str@@UBE?AW4Item_result@@XZ 0042b4d0 f i field.obj
 0001:0002a4e0       ?decimals@Field_str@@UBEIXZ 0042b4e0 f i field.obj
 0001:0002a4f0       ?size_of@Field_str@@UBEIXZ 0042b4f0 f i field.obj
 0001:0002a500       ?charset@Field_str@@UBEPAUcharset_info_st@@XZ 0042b500 f i field.obj
 0001:0002a510       ?set_charset@Field_str@@UAEXPAUcharset_info_st@@@Z 0042b510 f i field.obj
 0001:0002a520       ?derivation@Field_str@@UBE?AW4Derivation@@XZ 0042b520 f i field.obj
 0001:0002a530       ?set_derivation@Field_str@@UAEXW4Derivation@@@Z 0042b530 f i field.obj
 0001:0002a540       ?binary@Field_str@@UBEHXZ  0042b540 f i field.obj
 0001:0002a560       ?max_display_length@Field_str@@UAEKXZ 0042b560 f i field.obj
 0001:0002a570       ??_EField_str@@UAEPAXI@Z   0042b570 f i field.obj
 0001:0002a570       ??_GField_str@@UAEPAXI@Z   0042b570 f i field.obj
 0001:0002a580       ?new_field@Field@@UAEPAV1@PAUst_mem_root@@PAUst_table@@H@Z 0042b580 f   field.obj
 0001:0002a600       ?reset@Field_decimal@@UAEHXZ 0042b600 f   field.obj
 0001:0002a620       ?reset@Field_new_decimal@@UAEHXZ 0042b620 f   field.obj
 0001:0002a630       ?store@Field_float@@UAEHN@Z 0042b630 f   field.obj
 0001:0002a670       ?store@Field_double@@UAEHN@Z 0042b670 f   field.obj
 0001:0002a6b0       ??0Field_timestamp@@QAE@PADKPAEEW4utype@Field@@PBDPAUst_table@@PAUcharset_info_st@@@Z 0042b6b0 f   field.obj
 0001:0002a750       ?type@Field_timestamp@@UBE?AW4enum_field_types@@XZ 0042b750 f i field.obj
 0001:0002a760       ?key_type@Field_timestamp@@UBE?AW4ha_base_keytype@@XZ 0042b760 f i field.obj
 0001:0002a770       ?cmp_type@Field_timestamp@@UBE?AW4Item_result@@XZ 0042b770 f i field.obj
 0001:0002a780       ?reset@Field_timestamp@@UAEHXZ 0042b780 f i field.obj
 0001:0002a7b0       ?pack_length@Field_timestamp@@UBEKXZ 0042b7b0 f i field.obj
 0001:0002a7c0       ?can_be_compared_as_longlong@Field_timestamp@@UBEHXZ 0042b7c0 f i field.obj
 0001:0002a7d0       ?zero_pack@Field_timestamp@@UBEHXZ 0042b7d0 f i field.obj
 0001:0002a7e0       ?set_default@Field_timestamp@@UAEXXZ 0042b7e0 f i field.obj
 0001:0002a800       ??_EField_timestamp@@UAEPAXI@Z 0042b800 f i field.obj
 0001:0002a800       ??_GField_timestamp@@UAEPAXI@Z 0042b800 f i field.obj
 0001:0002a810       ??0Field_timestamp@@QAE@HPBDPAUst_table@@PAUcharset_info_st@@@Z 0042b810 f   field.obj
 0001:0002a8b0       ?store@Field_timestamp@@UAEHN@Z 0042b8b0 f   field.obj
 0001:0002a990       ?store_time@Field_time@@UAEHPAUst_mysql_time@@W4enum_mysql_timestamp_type@@@Z 0042b990 f   field.obj
 0001:0002aae0       ?store@Field_year@@UAEHN@Z 0042bae0 f   field.obj
 0001:0002abb0       ?store@Field_date@@UAEHN@Z 0042bbb0 f   field.obj
 0001:0002ac80       ?store@Field_newdate@@UAEHN@Z 0042bc80 f   field.obj
 0001:0002ad20       ?store@Field_datetime@@UAEHN@Z 0042bd20 f   field.obj
 0001:0002ae00       ?new_field@Field_varstring@@UAEPAVField@@PAUst_mem_root@@PAUst_table@@H@Z 0042be00 f   field.obj
 0001:0002ae30       ?store@Field_enum@@UAEHN@Z 0042be30 f   field.obj
 0001:0002ae60       ?new_field@Field_enum@@UAEPAVField@@PAUst_mem_root@@PAUst_table@@H@Z 0042be60 f   field.obj
 0001:0002aeb0       ??0Field_bit@@QAE@PADKPAEE1EW4utype@Field@@PBDPAUst_table@@@Z 0042beb0 f   field.obj
 0001:0002af30       ?type@Field_bit@@UBE?AW4enum_field_types@@XZ 0042bf30 f i field.obj
 0001:0002af40       ?key_type@Field_bit@@UBE?AW4ha_base_keytype@@XZ 0042bf40 f i field.obj
 0001:0002af50       ?key_length@Field_bit@@UBEKXZ 0042bf50 f i field.obj
 0001:0002af60       ?max_display_length@Field_bit@@UAEKXZ 0042bf60 f i field.obj
 0001:0002af70       ?size_of@Field_bit@@UBEIXZ 0042bf70 f i field.obj
 0001:0002af80       ?result_type@Field_bit@@UBE?AW4Item_result@@XZ 0042bf80 f i field.obj
 0001:0002af90       ?reset@Field_bit@@UAEHXZ   0042bf90 f i field.obj
 0001:0002afc0       ?key_cmp@Field_bit@@UAEHPBE0@Z 0042bfc0 f i field.obj
 0001:0002afe0       ?cmp_binary_offset@Field_bit@@UAEHI@Z 0042bfe0 f i field.obj
 0001:0002aff0       ?get_image@Field_bit@@UAEXPADIPAUcharset_info_st@@@Z 0042bff0 f i field.obj
 0001:0002b010       ?sort_string@Field_bit@@UAEXPADI@Z 0042c010 f i field.obj
 0001:0002b030       ?pack_length@Field_bit@@UBEKXZ 0042c030 f i field.obj
 0001:0002b040       ?pack_length_in_rec@Field_bit@@UBEKXZ 0042c040 f i field.obj
 0001:0002b050       ?move_field@Field_bit@@UAEXJ@Z 0042c050 f i field.obj
 0001:0002b080       ?eq@Field_bit@@UAEHPAVField@@@Z 0042c080 f i field.obj
 0001:0002b0f0       ?cmp@Field_bit@@UAEHPBD0@Z 0042c0f0 f i field.obj
 0001:0002b120       ??_GField_bit@@UAEPAXI@Z   0042c120 f i field.obj
 0001:0002b120       ??_EField_bit@@UAEPAXI@Z   0042c120 f i field.obj
 0001:0002b130       ?set_image@Field_bit@@UAEXPADIPAUcharset_info_st@@@Z 0042c130 f i field.obj
 0001:0002b140       ?set_key_image@Field_bit@@UAEXPADI@Z 0042c140 f i field.obj
 0001:0002b160       ??0Field_bit_as_char@@QAE@PADKPAEEW4utype@Field@@PBDPAUst_table@@@Z 0042c160 f   field.obj
 0001:0002b200       ?key_type@Field_bit_as_char@@UBE?AW4ha_base_keytype@@XZ 0042c200 f i field.obj
 0001:0002b210       ?size_of@Field_bit_as_char@@UBEIXZ 0042c210 f i field.obj
 0001:0002b220       ?store@Field_bit_as_char@@UAEHN@Z 0042c220 f i field.obj
 0001:0002b250       ?store@Field_bit_as_char@@UAEH_JH@Z 0042c250 f i field.obj
 0001:0002b270       ??_EField_bit_as_char@@UAEPAXI@Z 0042c270 f i field.obj
 0001:0002b270       ??_GField_bit_as_char@@UAEPAXI@Z 0042c270 f i field.obj
 0001:0002b280       ?init@create_field@@QAEHPAVTHD@@PADW4enum_field_types@@11IPAVItem@@3PAUst_lex_string@@1PAV?$List@VString@@@@PAUcharset_info_st@@I@Z 0042c280 f   field.obj
 0001:0002bc00       ??0Field_longstr@@QAE@PADKPAEEW4utype@Field@@PBDPAUst_table@@PAUcharset_info_st@@@Z 0042cc00 f i field.obj
 0001:0002bc70       ??_EField_longstr@@UAEPAXI@Z 0042cc70 f i field.obj
 0001:0002bc70       ??_GField_longstr@@UAEPAXI@Z 0042cc70 f i field.obj
 0001:0002bc80       ??0Field_null@@QAE@PADKW4utype@Field@@PBDPAUst_table@@PAUcharset_info_st@@@Z 0042cc80 f i field.obj
 0001:0002bcf0       ?type@Field_null@@UBE?AW4enum_field_types@@XZ 0042ccf0 f i field.obj
 0001:0002bd00       ?store@Field_null@@UAEHPBDIPAUcharset_info_st@@@Z 0042cd00 f i field.obj
 0001:0002bd10       ?store@Field_null@@UAEHN@Z 0042cd10 f i field.obj
 0001:0002bd20       ?store@Field_null@@UAEH_JH@Z 0042cd20 f i field.obj
 0001:0002bd30       ?store_decimal@Field_null@@UAEHPBVmy_decimal@@@Z 0042cd30 f i field.obj
 0001:0002bd40       ?reset@Field_null@@UAEHXZ  0042cd40 f i field.obj
 0001:0002bd50       ?val_real@Field_null@@UAENXZ 0042cd50 f i field.obj
 0001:0002bd60       ?val_int@Field_null@@UAE_JXZ 0042cd60 f i field.obj
 0001:0002bd70       ?val_decimal@Field_null@@UAEPAVmy_decimal@@PAV2@@Z 0042cd70 f i field.obj
 0001:0002bd80       ?val_str@Field_null@@UAEPAVString@@PAV2@0@Z 0042cd80 f i field.obj
 0001:0002bda0       ?cmp@Field_null@@UAEHPBD0@Z 0042cda0 f i field.obj
 0001:0002bdb0       ?sort_string@Field_null@@UAEXPADI@Z 0042cdb0 f i field.obj
 0001:0002bdc0       ?pack_length@Field_null@@UBEKXZ 0042cdc0 f i field.obj
 0001:0002bdd0       ?size_of@Field_null@@UBEIXZ 0042cdd0 f i field.obj
 0001:0002bde0       ?max_display_length@Field_null@@UAEKXZ 0042cde0 f i field.obj
 0001:0002bdf0       ??_GField_null@@UAEPAXI@Z  0042cdf0 f i field.obj
 0001:0002bdf0       ??_EField_null@@UAEPAXI@Z  0042cdf0 f i field.obj
 0001:0002be00       ??0Field_date@@QAE@PADPAEEW4utype@Field@@PBDPAUst_table@@PAUcharset_info_st@@@Z 0042ce00 f i field.obj
 0001:0002be70       ?type@Field_date@@UBE?AW4enum_field_types@@XZ 0042ce70 f i field.obj
 0001:0002be80       ?key_type@Field_date@@UBE?AW4ha_base_keytype@@XZ 0042ce80 f i field.obj
 0001:0002be90       ?cmp_type@Field_date@@UBE?AW4Item_result@@XZ 0042ce90 f i field.obj
 0001:0002bea0       ?reset@Field_date@@UAEHXZ  0042cea0 f i field.obj
 0001:0002bed0       ?pack_length@Field_date@@UBEKXZ 0042ced0 f i field.obj
 0001:0002bee0       ?can_be_compared_as_longlong@Field_date@@UBEHXZ 0042cee0 f i field.obj
 0001:0002bef0       ?zero_pack@Field_date@@UBEHXZ 0042cef0 f i field.obj
 0001:0002bf00       ??_GField_date@@UAEPAXI@Z  0042cf00 f i field.obj
 0001:0002bf00       ??_EField_date@@UAEPAXI@Z  0042cf00 f i field.obj
 0001:0002bf10       ??0Field_newdate@@QAE@PADPAEEW4utype@Field@@PBDPAUst_table@@PAUcharset_info_st@@@Z 0042cf10 f i field.obj
 0001:0002bf80       ?type@Field_newdate@@UBE?AW4enum_field_types@@XZ 0042cf80 f i field.obj
 0001:0002bf90       ?real_type@Field_newdate@@UBE?AW4enum_field_types@@XZ 0042cf90 f i field.obj
 0001:0002bfa0       ?key_type@Field_newdate@@UBE?AW4ha_base_keytype@@XZ 0042cfa0 f i field.obj
 0001:0002bfb0       ?cmp_type@Field_newdate@@UBE?AW4Item_result@@XZ 0042cfb0 f i field.obj
 0001:0002bfc0       ?reset@Field_newdate@@UAEHXZ 0042cfc0 f i field.obj
 0001:0002bfe0       ?pack_length@Field_newdate@@UBEKXZ 0042cfe0 f i field.obj
 0001:0002bff0       ?can_be_compared_as_longlong@Field_newdate@@UBEHXZ 0042cff0 f i field.obj
 0001:0002c000       ?zero_pack@Field_newdate@@UBEHXZ 0042d000 f i field.obj
 0001:0002c010       ??_GField_newdate@@UAEPAXI@Z 0042d010 f i field.obj
 0001:0002c010       ??_EField_newdate@@UAEPAXI@Z 0042d010 f i field.obj
 0001:0002c020       ??0Field_time@@QAE@PADPAEEW4utype@Field@@PBDPAUst_table@@PAUcharset_info_st@@@Z 0042d020 f i field.obj
 0001:0002c090       ?type@Field_time@@UBE?AW4enum_field_types@@XZ 0042d090 f i field.obj
 0001:0002c0a0       ?key_type@Field_time@@UBE?AW4ha_base_keytype@@XZ 0042d0a0 f i field.obj
 0001:0002c0b0       ?cmp_type@Field_time@@UBE?AW4Item_result@@XZ 0042d0b0 f i field.obj
 0001:0002c0c0       ?reset@Field_time@@UAEHXZ  0042d0c0 f i field.obj
 0001:0002c0e0       ?pack_length@Field_time@@UBEKXZ 0042d0e0 f i field.obj
 0001:0002c0f0       ?can_be_compared_as_longlong@Field_time@@UBEHXZ 0042d0f0 f i field.obj
 0001:0002c100       ?zero_pack@Field_time@@UBEHXZ 0042d100 f i field.obj
 0001:0002c110       ??_EField_time@@UAEPAXI@Z  0042d110 f i field.obj
 0001:0002c110       ??_GField_time@@UAEPAXI@Z  0042d110 f i field.obj
 0001:0002c120       ??0Field_datetime@@QAE@PADPAEEW4utype@Field@@PBDPAUst_table@@PAUcharset_info_st@@@Z 0042d120 f i field.obj
 0001:0002c190       ?type@Field_datetime@@UBE?AW4enum_field_types@@XZ 0042d190 f i field.obj
 0001:0002c1a0       ?key_type@Field_datetime@@UBE?AW4ha_base_keytype@@XZ 0042d1a0 f i field.obj
 0001:0002c1b0       ?cmp_type@Field_datetime@@UBE?AW4Item_result@@XZ 0042d1b0 f i field.obj
 0001:0002c1c0       ?decimals@Field_datetime@@UBEIXZ 0042d1c0 f i field.obj
 0001:0002c1d0       ?reset@Field_datetime@@UAEHXZ 0042d1d0 f i field.obj
 0001:0002c220       ?pack_length@Field_datetime@@UBEKXZ 0042d220 f i field.obj
 0001:0002c230       ?can_be_compared_as_longlong@Field_datetime@@UBEHXZ 0042d230 f i field.obj
 0001:0002c240       ?zero_pack@Field_datetime@@UBEHXZ 0042d240 f i field.obj
 0001:0002c250       ??_EField_datetime@@UAEPAXI@Z 0042d250 f i field.obj
 0001:0002c250       ??_GField_datetime@@UAEPAXI@Z 0042d250 f i field.obj
 0001:0002c260       ??0Field_string@@QAE@PADKPAEEW4utype@Field@@PBDPAUst_table@@PAUcharset_info_st@@@Z 0042d260 f i field.obj
 0001:0002c2e0       ?type@Field_string@@UBE?AW4enum_field_types@@XZ 0042d2e0 f i field.obj
 0001:0002c320       ?key_type@Field_string@@UBE?AW4ha_base_keytype@@XZ 0042d320 f i field.obj
 0001:0002c340       ?zero_pack@Field_string@@UBEHXZ 0042d340 f i field.obj
 0001:0002c350       ?reset@Field_string@@UAEHXZ 0042d350 f i field.obj
 0001:0002c3a0       ?size_of@Field_string@@UBEIXZ 0042d3a0 f i field.obj
 0001:0002c3b0       ?real_type@Field_string@@UBE?AW4enum_field_types@@XZ 0042d3b0 f i field.obj
 0001:0002c3c0       ?has_charset@Field_string@@UBEHXZ 0042d3c0 f i field.obj
 0001:0002c3e0       ?store@Field_string@@UAEHN@Z 0042d3e0 f i field.obj
 0001:0002c400       ??_EField_string@@UAEPAXI@Z 0042d400 f i field.obj
 0001:0002c400       ??_GField_string@@UAEPAXI@Z 0042d400 f i field.obj
 0001:0002c410       ??0Field_varstring@@QAE@PADKIPAEEW4utype@Field@@PBDPAUst_table@@PAUcharset_info_st@@@Z 0042d410 f i field.obj
 0001:0002c4a0       ?type@Field_varstring@@UBE?AW4enum_field_types@@XZ 0042d4a0 f i field.obj
 0001:0002c4b0       ?zero_pack@Field_varstring@@UBEHXZ 0042d4b0 f i field.obj
 0001:0002c4c0       ?reset@Field_varstring@@UAEHXZ 0042d4c0 f i field.obj
 0001:0002c4f0       ?pack_length@Field_varstring@@UBEKXZ 0042d4f0 f i field.obj
 0001:0002c500       ?key_length@Field_varstring@@UBEKXZ 0042d500 f i field.obj
 0001:0002c510       ?sort_length@Field_varstring@@UBEKXZ 0042d510 f i field.obj
 0001:0002c530       ?size_of@Field_varstring@@UBEIXZ 0042d530 f i field.obj
 0001:0002c540       ?real_type@Field_varstring@@UBE?AW4enum_field_types@@XZ 0042d540 f i field.obj
 0001:0002c550       ?has_charset@Field_varstring@@UBEHXZ 0042d550 f i field.obj
 0001:0002c570       ?store@Field_varstring@@UAEHN@Z 0042d570 f i field.obj
 0001:0002c590       ??_GField_varstring@@UAEPAXI@Z 0042d590 f i field.obj
 0001:0002c590       ??_EField_varstring@@UAEPAXI@Z 0042d590 f i field.obj
 0001:0002c5a0       ??0Field_varstring@@QAE@KHPBDPAUst_table@@PAUcharset_info_st@@@Z 0042d5a0 f i field.obj
 0001:0002c640       ??0Field_enum@@QAE@PADKPAEEW4utype@Field@@PBDPAUst_table@@IPAUst_typelib@@PAUcharset_info_st@@@Z 0042d640 f i field.obj
 0001:0002c6d0       ?type@Field_enum@@UBE?AW4enum_field_types@@XZ 0042d6d0 f i field.obj
 0001:0002c6e0       ?cmp_type@Field_enum@@UBE?AW4Item_result@@XZ 0042d6e0 f i field.obj
 0001:0002c6f0       ?cast_to_int_type@Field_enum@@UBE?AW4Item_result@@XZ 0042d6f0 f i field.obj
 0001:0002c700       ?reset@Field_enum@@UAEHXZ  0042d700 f i field.obj
 0001:0002c730       ?pack_length@Field_enum@@UBEKXZ 0042d730 f i field.obj
 0001:0002c740       ?size_of@Field_enum@@UBEIXZ 0042d740 f i field.obj
 0001:0002c750       ?real_type@Field_enum@@UBE?AW4enum_field_types@@XZ 0042d750 f i field.obj
 0001:0002c760       ?zero_pack@Field_enum@@UBEHXZ 0042d760 f i field.obj
 0001:0002c770       ?optimize_range@Field_enum@@UAEHII@Z 0042d770 f i field.obj
 0001:0002c780       ?has_charset@Field_enum@@UBEHXZ 0042d780 f i field.obj
 0001:0002c790       ?sort_charset@Field_enum@@UBEPAUcharset_info_st@@XZ 0042d790 f i field.obj
 0001:0002c7a0       ??_EField_enum@@UAEPAXI@Z  0042d7a0 f i field.obj
 0001:0002c7a0       ??_GField_enum@@UAEPAXI@Z  0042d7a0 f i field.obj
 0001:0002c7b0       ??0Field_set@@QAE@PADKPAEEW4utype@Field@@PBDPAUst_table@@KPAUst_typelib@@PAUcharset_info_st@@@Z 0042d7b0 f i field.obj
 0001:0002c830       ?zero_pack@Field_set@@UBEHXZ 0042d830 f i field.obj
 0001:0002c840       ?real_type@Field_set@@UBE?AW4enum_field_types@@XZ 0042d840 f i field.obj
 0001:0002c850       ?has_charset@Field_set@@UBEHXZ 0042d850 f i field.obj
 0001:0002c860       ??_EField_set@@UAEPAXI@Z   0042d860 f i field.obj
 0001:0002c860       ??_GField_set@@UAEPAXI@Z   0042d860 f i field.obj
 0001:0002c870       ?store@Field_set@@UAEHN@Z  0042d870 f i field.obj
 0001:0002c8a0       ??0Field_num@@QAE@PADKPAEEW4utype@Field@@PBDPAUst_table@@EHH@Z 0042d8a0 f   field.obj
 0001:0002c920       ?result_type@Field_num@@UBE?AW4Item_result@@XZ 0042d920 f i field.obj
 0001:0002c930       ?decimals@Field_num@@UBEIXZ 0042d930 f i field.obj
 0001:0002c940       ?size_of@Field_num@@UBEIXZ 0042d940 f i field.obj
 0001:0002c950       ??_EField_num@@UAEPAXI@Z   0042d950 f i field.obj
 0001:0002c950       ??_GField_num@@UAEPAXI@Z   0042d950 f i field.obj
 0001:0002c960       ??0Field_new_decimal@@QAE@PADKPAEEW4utype@Field@@PBDPAUst_table@@EHH@Z 0042d960 f   field.obj
 0001:0002ca30       ?type@Field_new_decimal@@UBE?AW4enum_field_types@@XZ 0042da30 f i field.obj
 0001:0002ca40       ?key_type@Field_new_decimal@@UBE?AW4ha_base_keytype@@XZ 0042da40 f i field.obj
 0001:0002ca50       ?result_type@Field_new_decimal@@UBE?AW4Item_result@@XZ 0042da50 f i field.obj
 0001:0002ca60       ?zero_pack@Field_new_decimal@@UBEHXZ 0042da60 f i field.obj
 0001:0002ca70       ?max_display_length@Field_new_decimal@@UAEKXZ 0042da70 f i field.obj
 0001:0002ca80       ?size_of@Field_new_decimal@@UBEIXZ 0042da80 f i field.obj
 0001:0002ca90       ?pack_length@Field_new_decimal@@UBEKXZ 0042da90 f i field.obj
 0001:0002caa0       ??_EField_new_decimal@@UAEPAXI@Z 0042daa0 f i field.obj
 0001:0002caa0       ??_GField_new_decimal@@UAEPAXI@Z 0042daa0 f i field.obj
 0001:0002cab0       ??0Field_new_decimal@@QAE@KHPBDPAUst_table@@EH@Z 0042dab0 f   field.obj
 0001:0002cb70       ?store@Field_float@@UAEHPBDIPAUcharset_info_st@@@Z 0042db70 f   field.obj
 0001:0002ccd0       ?store@Field_double@@UAEHPBDIPAUcharset_info_st@@@Z 0042dcd0 f   field.obj
 0001:0002ce30       ?new_field@Field_string@@UAEPAVField@@PAUst_mem_root@@PAUst_table@@H@Z 0042de30 f   field.obj
 0001:0002cef0       ??0Field_blob@@QAE@PADPAEEW4utype@Field@@PBDPAUst_table@@IPAUcharset_info_st@@@Z 0042def0 f   field.obj
 0001:0002cfd0       ?type@Field_blob@@UBE?AW4enum_field_types@@XZ 0042dfd0 f i field.obj
 0001:0002cfe0       ?key_type@Field_blob@@UBE?AW4ha_base_keytype@@XZ 0042dfe0 f i field.obj
 0001:0002d000       ?key_length@Field_blob@@UBEKXZ 0042e000 f i field.obj
 0001:0002d010       ?reset@Field_blob@@UAEHXZ  0042e010 f i field.obj
 0001:0002d040       ?reset_fields@Field_blob@@UAEXXZ 0042e040 f i field.obj
 0001:0002d060       ?free@Field_blob@@UAEXXZ   0042e060 f i field.obj
 0001:0002d0a0       ?size_of@Field_blob@@UBEIXZ 0042e0a0 f i field.obj
 0001:0002d0b0       ?has_charset@Field_blob@@UBEHXZ 0042e0b0 f i field.obj
 0001:0002d0d0       ??_GField_blob@@UAEPAXI@Z  0042e0d0 f i field.obj
 0001:0002d0d0       ??_EField_blob@@UAEPAXI@Z  0042e0d0 f i field.obj
 0001:0002d110       ??0Field_real@@QAE@PADKPAEEW4utype@Field@@PBDPAUst_table@@EHH@Z 0042e110 f i field.obj
 0001:0002d1a0       ?max_display_length@Field_real@@UAEKXZ 0042e1a0 f i field.obj
 0001:0002d1b0       ?size_of@Field_real@@UBEIXZ 0042e1b0 f i field.obj
 0001:0002d1c0       ??_GField_real@@UAEPAXI@Z  0042e1c0 f i field.obj
 0001:0002d1c0       ??_EField_real@@UAEPAXI@Z  0042e1c0 f i field.obj
 0001:0002d1d0       ??0Field_decimal@@QAE@PADKPAEEW4utype@Field@@PBDPAUst_table@@EHH@Z 0042e1d0 f i field.obj
 0001:0002d230       ?type@Field_decimal@@UBE?AW4enum_field_types@@XZ 0042e230 f i field.obj
 0001:0002d240       ?key_type@Field_decimal@@UBE?AW4ha_base_keytype@@XZ 0042e240 f i field.obj
 0001:0002d260       ?zero_pack@Field_decimal@@UBEHXZ 0042e260 f i field.obj
 0001:0002d270       ??_EField_decimal@@UAEPAXI@Z 0042e270 f i field.obj
 0001:0002d270       ??_GField_decimal@@UAEPAXI@Z 0042e270 f i field.obj
 0001:0002d280       ??0Field_tiny@@QAE@PADKPAEEW4utype@Field@@PBDPAUst_table@@HH@Z 0042e280 f i field.obj
 0001:0002d300       ?result_type@Field_tiny@@UBE?AW4Item_result@@XZ 0042e300 f i field.obj
 0001:0002d310       ?type@Field_tiny@@UBE?AW4enum_field_types@@XZ 0042e310 f i field.obj
 0001:0002d320       ?key_type@Field_tiny@@UBE?AW4ha_base_keytype@@XZ 0042e320 f i field.obj
 0001:0002d340       ?reset@Field_tiny@@UAEHXZ  0042e340 f i field.obj
 0001:0002d350       ?pack_length@Field_tiny@@UBEKXZ 0042e350 f i field.obj
 0001:0002d360       ?max_display_length@Field_tiny@@UAEKXZ 0042e360 f i field.obj
 0001:0002d370       ??_EField_tiny@@UAEPAXI@Z  0042e370 f i field.obj
 0001:0002d370       ??_GField_tiny@@UAEPAXI@Z  0042e370 f i field.obj
 0001:0002d380       ??0Field_short@@QAE@PADKPAEEW4utype@Field@@PBDPAUst_table@@HH@Z 0042e380 f i field.obj
 0001:0002d400       ?result_type@Field_short@@UBE?AW4Item_result@@XZ 0042e400 f i field.obj
 0001:0002d410       ?type@Field_short@@UBE?AW4enum_field_types@@XZ 0042e410 f i field.obj
 0001:0002d420       ?key_type@Field_short@@UBE?AW4ha_base_keytype@@XZ 0042e420 f i field.obj
 0001:0002d440       ?reset@Field_short@@UAEHXZ 0042e440 f i field.obj
 0001:0002d460       ?pack_length@Field_short@@UBEKXZ 0042e460 f i field.obj
 0001:0002d470       ?max_display_length@Field_short@@UAEKXZ 0042e470 f i field.obj
 0001:0002d480       ??_GField_short@@UAEPAXI@Z 0042e480 f i field.obj
 0001:0002d480       ??_EField_short@@UAEPAXI@Z 0042e480 f i field.obj
 0001:0002d490       ??0Field_medium@@QAE@PADKPAEEW4utype@Field@@PBDPAUst_table@@HH@Z 0042e490 f i field.obj
 0001:0002d510       ?result_type@Field_medium@@UBE?AW4Item_result@@XZ 0042e510 f i field.obj
 0001:0002d520       ?type@Field_medium@@UBE?AW4enum_field_types@@XZ 0042e520 f i field.obj
 0001:0002d530       ?key_type@Field_medium@@UBE?AW4ha_base_keytype@@XZ 0042e530 f i field.obj
 0001:0002d550       ?reset@Field_medium@@UAEHXZ 0042e550 f i field.obj
 0001:0002d570       ?pack_length@Field_medium@@UBEKXZ 0042e570 f i field.obj
 0001:0002d580       ?max_display_length@Field_medium@@UAEKXZ 0042e580 f i field.obj
 0001:0002d590       ??_GField_medium@@UAEPAXI@Z 0042e590 f i field.obj
 0001:0002d590       ??_EField_medium@@UAEPAXI@Z 0042e590 f i field.obj
 0001:0002d5a0       ??0Field_long@@QAE@PADKPAEEW4utype@Field@@PBDPAUst_table@@HH@Z 0042e5a0 f i field.obj
 0001:0002d620       ?result_type@Field_long@@UBE?AW4Item_result@@XZ 0042e620 f i field.obj
 0001:0002d630       ?type@Field_long@@UBE?AW4enum_field_types@@XZ 0042e630 f i field.obj
 0001:0002d640       ?key_type@Field_long@@UBE?AW4ha_base_keytype@@XZ 0042e640 f i field.obj
 0001:0002d660       ?reset@Field_long@@UAEHXZ  0042e660 f i field.obj
 0001:0002d690       ?pack_length@Field_long@@UBEKXZ 0042e690 f i field.obj
 0001:0002d6a0       ?max_display_length@Field_long@@UAEKXZ 0042e6a0 f i field.obj
 0001:0002d6b0       ??_GField_long@@UAEPAXI@Z  0042e6b0 f i field.obj
 0001:0002d6b0       ??_EField_long@@UAEPAXI@Z  0042e6b0 f i field.obj
 0001:0002d6c0       ??0Field_longlong@@QAE@PADKPAEEW4utype@Field@@PBDPAUst_table@@HH@Z 0042e6c0 f i field.obj
 0001:0002d740       ?result_type@Field_longlong@@UBE?AW4Item_result@@XZ 0042e740 f i field.obj
 0001:0002d750       ?type@Field_longlong@@UBE?AW4enum_field_types@@XZ 0042e750 f i field.obj
 0001:0002d760       ?key_type@Field_longlong@@UBE?AW4ha_base_keytype@@XZ 0042e760 f i field.obj
 0001:0002d780       ?reset@Field_longlong@@UAEHXZ 0042e780 f i field.obj
 0001:0002d7d0       ?pack_length@Field_longlong@@UBEKXZ 0042e7d0 f i field.obj
 0001:0002d7e0       ?can_be_compared_as_longlong@Field_longlong@@UBEHXZ 0042e7e0 f i field.obj
 0001:0002d7f0       ?max_display_length@Field_longlong@@UAEKXZ 0042e7f0 f i field.obj
 0001:0002d800       ??_GField_longlong@@UAEPAXI@Z 0042e800 f i field.obj
 0001:0002d800       ??_EField_longlong@@UAEPAXI@Z 0042e800 f i field.obj
 0001:0002d810       ??0Field_float@@QAE@PADKPAEEW4utype@Field@@PBDPAUst_table@@EHH@Z 0042e810 f i field.obj
 0001:0002d870       ?type@Field_float@@UBE?AW4enum_field_types@@XZ 0042e870 f i field.obj
 0001:0002d880       ?key_type@Field_float@@UBE?AW4ha_base_keytype@@XZ 0042e880 f i field.obj
 0001:0002d890       ?reset@Field_float@@UAEHXZ 0042e890 f i field.obj
 0001:0002d8a0       ?pack_length@Field_float@@UBEKXZ 0042e8a0 f i field.obj
 0001:0002d8b0       ??_EField_float@@UAEPAXI@Z 0042e8b0 f i field.obj
 0001:0002d8b0       ??_GField_float@@UAEPAXI@Z 0042e8b0 f i field.obj
 0001:0002d8c0       ??0Field_double@@QAE@PADKPAEEW4utype@Field@@PBDPAUst_table@@EHH@Z 0042e8c0 f i field.obj
 0001:0002d920       ?type@Field_double@@UBE?AW4enum_field_types@@XZ 0042e920 f i field.obj
 0001:0002d930       ?key_type@Field_double@@UBE?AW4ha_base_keytype@@XZ 0042e930 f i field.obj
 0001:0002d940       ?reset@Field_double@@UAEHXZ 0042e940 f i field.obj
 0001:0002d950       ?pack_length@Field_double@@UBEKXZ 0042e950 f i field.obj
 0001:0002d960       ??_GField_double@@UAEPAXI@Z 0042e960 f i field.obj
 0001:0002d960       ??_EField_double@@UAEPAXI@Z 0042e960 f i field.obj
 0001:0002d970       ??0Field_year@@QAE@PADKPAEEW4utype@Field@@PBDPAUst_table@@@Z 0042e970 f i field.obj
 0001:0002d9d0       ?type@Field_year@@UBE?AW4enum_field_types@@XZ 0042e9d0 f i field.obj
 0001:0002d9e0       ?can_be_compared_as_longlong@Field_year@@UBEHXZ 0042e9e0 f i field.obj
 0001:0002d9f0       ??_EField_year@@UAEPAXI@Z  0042e9f0 f i field.obj
 0001:0002d9f0       ??_GField_year@@UAEPAXI@Z  0042e9f0 f i field.obj
 0001:0002da00       ??0Field_geom@@QAE@PADPAEIW4utype@Field@@PBDPAUst_table@@IW4geometry_type@2@@Z 0042ea00 f i field.obj
 0001:0002da60       ?key_type@Field_geom@@UBE?AW4ha_base_keytype@@XZ 0042ea60 f i field.obj
 0001:0002da70       ?type@Field_geom@@UBE?AW4enum_field_types@@XZ 0042ea70 f i field.obj
 0001:0002da80       ?size_of@Field_geom@@UBEIXZ 0042ea80 f i field.obj
 0001:0002da90       ?reset@Field_geom@@UAEHXZ  0042ea90 f i field.obj
 0001:0002dae0       ?get_geometry_type@Field_geom@@UAE?AW4geometry_type@Field@@XZ 0042eae0 f i field.obj
 0001:0002daf0       ??_EField_geom@@UAEPAXI@Z  0042eaf0 f i field.obj
 0001:0002daf0       ??_GField_geom@@UAEPAXI@Z  0042eaf0 f i field.obj
 0001:0002db10       ?make_field@@YAPAVField@@PADKPAEEIW4enum_field_types@@PAUcharset_info_st@@W4geometry_type@1@W4utype@1@PAUst_typelib@@PBDPAUst_table@@@Z 0042eb10 f   field.obj
 0001:0002e650       ?set_quick@String@@QAEXPADKPAUcharset_info_st@@@Z 0042f650 f i field_conv.obj
 0001:0002e690       ?is_alloced@String@@QAEHXZ 0042f690 f i field_conv.obj
 0001:0002e6a0       ?real_maybe_null@Field@@QAEHXZ 0042f6a0 f i field_conv.obj
 0001:0002e950       ?set_field_to_null@@YAHPAVField@@@Z 0042f950 f   field_conv.obj
 0001:0002e9f0       ?set_field_to_null_with_conversions@@YAHPAVField@@H@Z 0042f9f0 f   field_conv.obj
 0001:0002f430       ?set@Copy_field@@QAEXPADPAVField@@@Z 00430430 f   field_conv.obj
 0001:0002f4f0       ?get_copy_func@Copy_field@@AAEP6AXPAV1@@ZPAVField@@1@Z 004304f0 f   field_conv.obj
 0001:0002fb10       ?set@Copy_field@@QAEXPAVField@@0H@Z 00430b10 f   field_conv.obj
 0001:0002fca0       ?field_conv@@YAHPAVField@@0@Z 00430ca0 f   field_conv.obj
 0001:00030190       ?ha_rnd_init@handler@@QAEHH@Z 00431190 f i filesort.obj
 0001:000301b0       ?ha_rnd_end@handler@@QAEHXZ 004311b0 f i filesort.obj
 0001:000301d0       ?is_null@Field@@QAEHI@Z    004311d0 f i filesort.obj
 0001:00030200       ?is_uncacheable@Item_subselect@@QBEHXZ 00431200 f i filesort.obj
 0001:00030210       ?skip_record@SQL_SELECT@@QAEHXZ 00431210 f i filesort.obj
 0001:00030240       ?filesort_free_buffers@@YAXPAUst_table@@H@Z 00431240 f   filesort.obj
 0001:000306b0       ?read_to_buffer@@YAIPAUst_io_cache@@PAUst_buffpek@@I@Z 004316b0 f   filesort.obj
 0001:00030750       ?reuse_freed_buff@@YAXPAUst_queue@@PAUst_buffpek@@I@Z 00431750 f   filesort.obj
 0001:00030810       ?merge_buffers@@YAHPAUst_sort_param@@PAUst_io_cache@@1PAEPAUst_buffpek@@33H@Z 00431810 f   filesort.obj
 0001:00031420       ?change_double_for_sort@@YAXNPAE@Z 00432420 f   filesort.obj
 0001:00031ae0       ?merge_many_buff@@YAHPAUst_sort_param@@PAEPAUst_buffpek@@PAIPAUst_io_cache@@@Z 00432ae0 f   filesort.obj
 0001:00032310       ?filesort@@YAKPAVTHD@@PAUst_table@@PAUst_sort_field@@IPAVSQL_SELECT@@KPAK@Z 00433310 f   filesort.obj
 0001:00032ab0       ?skip_space@Gis_read_stream@@QAEXXZ 00433ab0 f i gstream.obj
 0001:00032af0       ?get_next_toc_type@Gis_read_stream@@QAE?AW4enum_tok_types@1@XZ 00433af0 f   gstream.obj
 0001:00032b80       ?get_next_word@Gis_read_stream@@QAEHPAUst_lex_string@@@Z 00433b80 f   gstream.obj
 0001:00032c20       ?set_error_msg@Gis_read_stream@@QAEXPBD@Z 00433c20 f   gstream.obj
 0001:00032c80       ?get_next_number@Gis_read_stream@@QAEHPAN@Z 00433c80 f   gstream.obj
 0001:00032d40       ?check_next_symbol@Gis_read_stream@@QAEHD@Z 00433d40 f   gstream.obj
 0001:00032e10       ??0handler@@QAE@PBUhandlerton@@PAUst_table@@@Z 00433e10 f i ha_blackhole.obj
 0001:00032ed0       ?index_init@handler@@MAEHI@Z 00433ed0 f i ha_blackhole.obj
 0001:00032ef0       ?index_end@handler@@MAEHXZ 00433ef0 f i ha_blackhole.obj
 0001:00032f00       ?rnd_end@handler@@MAEHXZ   00433f00 f i ha_blackhole.obj
 0001:00032f10       ?external_lock@handler@@MAEHPAVTHD@@H@Z 00433f10 f i ha_blackhole.obj
 0001:00032f20       ??1handler@@UAE@XZ         00433f20 f i ha_blackhole.obj
 0001:00032f30       ?scan_time@handler@@UAENXZ 00433f30 f i ha_blackhole.obj
 0001:00032f90       ?read_time@handler@@UAENIIK@Z 00433f90 f i ha_blackhole.obj
 0001:00032fc0       ?keys_to_use_for_scanning@handler@@UAEPBV?$Bitmap@$0EA@@@XZ 00433fc0 f i ha_blackhole.obj
 0001:00032fd0       ?has_transactions@handler@@UAEHXZ 00433fd0 f i ha_blackhole.obj
 0001:00032fe0       ?extra_rec_buf_length@handler@@UAEIXZ 00433fe0 f i ha_blackhole.obj
 0001:00032ff0       ?estimate_rows_upper_bound@handler@@UAEKXZ 00433ff0 f i ha_blackhole.obj
 0001:00033000       ?get_row_type@handler@@UBE?AW4row_type@@XZ 00434000 f i ha_blackhole.obj
 0001:00033010       ?index_type@handler@@UAEPBDI@Z 00434010 f i ha_blackhole.obj
 0001:00033020       ?write_row@handler@@UAEHPAE@Z 00434020 f i ha_blackhole.obj
 0001:00033030       ?update_row@handler@@UAEHPBEPAE@Z 00434030 f i ha_blackhole.obj
 0001:00033040       ?delete_row@handler@@UAEHPBE@Z 00434040 f i ha_blackhole.obj
 0001:00033050       ?index_read@handler@@UAEHPAEPBEIW4ha_rkey_function@@@Z 00434050 f i ha_blackhole.obj
 0001:00033060       ?index_next@handler@@UAEHPAE@Z 00434060 f i ha_blackhole.obj
 0001:00033070       ?index_prev@handler@@UAEHPAE@Z 00434070 f i ha_blackhole.obj
 0001:00033080       ?index_first@handler@@UAEHPAE@Z 00434080 f i ha_blackhole.obj
 0001:00033090       ?index_last@handler@@UAEHPAE@Z 00434090 f i ha_blackhole.obj
 0001:000330a0       ?index_read_last@handler@@UAEHPAEPBEI@Z 004340a0 f i ha_blackhole.obj
 0001:000330c0       ?ft_init@handler@@UAEHXZ   004340c0 f i ha_blackhole.obj
 0001:000330d0       ?ft_init_ext@handler@@UAEPAUst_ft_info@@IIPAVString@@@Z 004340d0 f i ha_blackhole.obj
 0001:000330e0       ?ft_read@handler@@UAEHPAE@Z 004340e0 f i ha_blackhole.obj
 0001:000330f0       ?restart_rnd_next@handler@@UAEHPAE0@Z 004340f0 f i ha_blackhole.obj
 0001:00033100       ?rnd_same@handler@@UAEHPAEI@Z 00434100 f i ha_blackhole.obj
 0001:00033110       ?records_in_range@handler@@UAEKIPAUst_key_range@@0@Z 00434110 f i ha_blackhole.obj
 0001:00033120       ?extra@handler@@UAEHW4ha_extra_function@@@Z 00434120 f i ha_blackhole.obj
 0001:00033130       ?extra_opt@handler@@UAEHW4ha_extra_function@@K@Z 00434130 f i ha_blackhole.obj
 0001:00033150       ?reset@handler@@UAEHXZ     00434150 f i ha_blackhole.obj
 0001:00033160       ?unlock_row@handler@@UAEXXZ 00434160 f i ha_blackhole.obj
 0001:00033170       ?start_stmt@handler@@UAEHPAVTHD@@W4thr_lock_type@@@Z 00434170 f i ha_blackhole.obj
 0001:00033180       ?delete_all_rows@handler@@UAEHXZ 00434180 f i ha_blackhole.obj
 0001:000331a0       ?reset_auto_increment@handler@@UAEH_K@Z 004341a0 f i ha_blackhole.obj
 0001:000331b0       ?update_create_info@handler@@UAEXPAUst_ha_create_information@@@Z 004341b0 f i ha_blackhole.obj
 0001:000331c0       ?check@handler@@MAEHPAVTHD@@PAUst_ha_check_opt@@@Z 004341c0 f i ha_blackhole.obj
 0001:000331d0       ?check_for_upgrade@handler@@MAEHPAUst_ha_check_opt@@@Z 004341d0 f i ha_blackhole.obj
 0001:000331e0       ?backup@handler@@UAEHPAVTHD@@PAUst_ha_check_opt@@@Z 004341e0 f i ha_blackhole.obj
 0001:000331f0       ?restore@handler@@UAEHPAVTHD@@PAUst_ha_check_opt@@@Z 004341f0 f i ha_blackhole.obj
 0001:00033200       ?repair@handler@@MAEHPAVTHD@@PAUst_ha_check_opt@@@Z 00434200 f i ha_blackhole.obj
 0001:00033210       ?optimize@handler@@UAEHPAVTHD@@PAUst_ha_check_opt@@@Z 00434210 f i ha_blackhole.obj
 0001:00033220       ?analyze@handler@@UAEHPAVTHD@@PAUst_ha_check_opt@@@Z 00434220 f i ha_blackhole.obj
 0001:00033230       ?assign_to_keycache@handler@@UAEHPAVTHD@@PAUst_ha_check_opt@@@Z 00434230 f i ha_blackhole.obj
 0001:00033240       ?preload_keys@handler@@UAEHPAVTHD@@PAUst_ha_check_opt@@@Z 00434240 f i ha_blackhole.obj
 0001:00033250       ?check_and_repair@handler@@UAEHPAVTHD@@@Z 00434250 f i ha_blackhole.obj
 0001:00033260       ?dump@handler@@UAEHPAVTHD@@H@Z 00434260 f i ha_blackhole.obj
 0001:00033270       ?disable_indexes@handler@@UAEHI@Z 00434270 f i ha_blackhole.obj
 0001:00033280       ?enable_indexes@handler@@UAEHI@Z 00434280 f i ha_blackhole.obj
 0001:00033290       ?indexes_are_disabled@handler@@UAEHXZ 00434290 f i ha_blackhole.obj
 0001:000332a0       ?start_bulk_insert@handler@@UAEXK@Z 004342a0 f i ha_blackhole.obj
 0001:000332b0       ?end_bulk_insert@handler@@UAEHXZ 004342b0 f i ha_blackhole.obj
 0001:000332c0       ?discard_or_import_tablespace@handler@@UAEHD@Z 004342c0 f i ha_blackhole.obj
 0001:000332d0       ?net_read_dump@handler@@UAEHPAUst_net@@@Z 004342d0 f i ha_blackhole.obj
 0001:000332e0       ?update_table_comment@handler@@UAEPADPBD@Z 004342e0 f i ha_blackhole.obj
 0001:000332f0       ?append_create_info@handler@@UAEXPAVString@@@Z 004342f0 f i ha_blackhole.obj
 0001:00033300       ?get_foreign_key_create_info@handler@@UAEPADXZ 00434300 f i ha_blackhole.obj
 0001:00033310       ?can_switch_engines@handler@@UAEHXZ 00434310 f i ha_blackhole.obj
 0001:00033320       ?get_foreign_key_list@handler@@UAEHPAVTHD@@PAV?$List@Ust_foreign_key_info@@@@@Z 00434320 f i ha_blackhole.obj
 0001:00033330       ?referenced_by_foreign_key@handler@@UAEIXZ 00434330 f i ha_blackhole.obj
 0001:00033340       ?init_table_handle_for_HANDLER@handler@@UAEXXZ 00434340 f i ha_blackhole.obj
 0001:00033350       ?free_foreign_key_create_info@handler@@UAEXPAD@Z 00434350 f i ha_blackhole.obj
 0001:00033360       ?index_ddl_flags@handler@@UBEKPAUst_key@@@Z 00434360 f i ha_blackhole.obj
 0001:00033370       ?add_index@handler@@UAEHPAUst_table@@PAUst_key@@I@Z 00434370 f i ha_blackhole.obj
 0001:00033380       ?drop_index@handler@@UAEHPAUst_table@@PAII@Z 00434380 f i ha_blackhole.obj
 0001:00033390       ?max_supported_record_length@handler@@UBEIXZ 00434390 f i ha_blackhole.obj
 0001:000333a0       ?max_supported_keys@handler@@UBEIXZ 004343a0 f i ha_blackhole.obj
 0001:000333b0       ?max_supported_key_parts@handler@@UBEIXZ 004343b0 f i ha_blackhole.obj
 0001:000333c0       ?max_supported_key_length@handler@@UBEIXZ 004343c0 f i ha_blackhole.obj
 0001:000333d0       ?max_supported_key_part_length@handler@@UBEIXZ 004343d0 f i ha_blackhole.obj
 0001:000333e0       ?min_record_length@handler@@UBEII@Z 004343e0 f i ha_blackhole.obj
 0001:000333f0       ?low_byte_first@handler@@UBEHXZ 004343f0 f i ha_blackhole.obj
 0001:00033400       ?checksum@handler@@UBEIXZ  00434400 f i ha_blackhole.obj
 0001:00033410       ?is_crashed@handler@@UBEHXZ 00434410 f i ha_blackhole.obj
 0001:00033420       ?auto_repair@handler@@UBEHXZ 00434420 f i ha_blackhole.obj
 0001:00033430       ?lock_count@handler@@UBEIXZ 00434430 f i ha_blackhole.obj
 0001:00033440       ?table_cache_type@handler@@UAEEXZ 00434440 f i ha_blackhole.obj
 0001:00033450       ?register_query_cache_table@handler@@UAEDPAVTHD@@PADIPAP6AD01IPA_K@Z2@Z 00434450 f i ha_blackhole.obj
 0001:00033470       ?primary_key_is_clustered@handler@@UAEHXZ 00434470 f i ha_blackhole.obj
 0001:00033480       ?cmp_ref@handler@@UAEHPBE0@Z 00434480 f i ha_blackhole.obj
 0001:000334b0       ?cond_push@handler@@UAEPBVItem@@PBV2@@Z 004344b0 f i ha_blackhole.obj
 0001:000334c0       ?cond_pop@handler@@UAEXXZ  004344c0 f i ha_blackhole.obj
 0001:000334d0       ??_Ghandler@@UAEPAXI@Z     004344d0 f i ha_blackhole.obj
 0001:000334d0       ??_Ehandler@@UAEPAXI@Z     004344d0 f i ha_blackhole.obj
 0001:000334e0       ??0ha_blackhole@@QAE@PAUst_table@@@Z 004344e0 f   ha_blackhole.obj
 0001:00033510       ?table_type@ha_blackhole@@UBEPBDXZ 00434510 f i ha_blackhole.obj
 0001:00033520       ?table_flags@ha_blackhole@@UBEKXZ 00434520 f i ha_blackhole.obj
 0001:00033530       ?index_flags@ha_blackhole@@UBEKIIH@Z 00434530 f i ha_blackhole.obj
 0001:00033560       ?max_supported_keys@ha_blackhole@@UBEIXZ 00434560 f i ha_blackhole.obj
 0001:00033570       ?max_supported_key_length@ha_blackhole@@UBEIXZ 00434570 f i ha_blackhole.obj
 0001:00033580       ?max_supported_key_part_length@ha_blackhole@@UBEIXZ 00434580 f i ha_blackhole.obj
 0001:00033590       ??_Gha_blackhole@@UAEPAXI@Z 00434590 f i ha_blackhole.obj
 0001:00033590       ??_Eha_blackhole@@UAEPAXI@Z 00434590 f i ha_blackhole.obj
 0001:000335a0       ?bas_ext@ha_blackhole@@UBEPAPBDXZ 004345a0 f   ha_blackhole.obj
 0001:000335b0       ?open@ha_blackhole@@UAEHPBDHI@Z 004345b0 f   ha_blackhole.obj
 0001:000335f0       ?close@ha_blackhole@@UAEHXZ 004345f0 f   ha_blackhole.obj
 0001:00033610       ?create@ha_blackhole@@UAEHPBDPAUst_table@@PAUst_ha_create_information@@@Z 00434610 f   ha_blackhole.obj
 0001:00033620       ?index_type@ha_blackhole@@UAEPBDI@Z 00434620 f   ha_blackhole.obj
 0001:00033670       ?write_row@ha_blackhole@@UAEHPAE@Z 00434670 f   ha_blackhole.obj
 0001:00033680       ?rnd_init@ha_blackhole@@UAEHH@Z 00434680 f   ha_blackhole.obj
 0001:00033690       ?rnd_next@ha_blackhole@@UAEHPAE@Z 00434690 f   ha_blackhole.obj
 0001:000336a0       ?rnd_pos@ha_blackhole@@UAEHPAE0@Z 004346a0 f   ha_blackhole.obj
 0001:000336b0       ?position@ha_blackhole@@UAEXPBE@Z 004346b0 f   ha_blackhole.obj
 0001:000336c0       ?info@ha_blackhole@@UAEHI@Z 004346c0 f   ha_blackhole.obj
 0001:00033720       ?external_lock@ha_blackhole@@UAEHPAVTHD@@H@Z 00434720 f   ha_blackhole.obj
 0001:00033730       ?lock_count@ha_blackhole@@UBEIXZ 00434730 f   ha_blackhole.obj
 0001:00033740       ?store_lock@ha_blackhole@@UAEPAPAUst_thr_lock_data@@PAVTHD@@PAPAU2@W4thr_lock_type@@@Z 00434740 f   ha_blackhole.obj
 0001:00033750       ?index_read@ha_blackhole@@UAEHPAEPBEIW4ha_rkey_function@@@Z 00434750 f   ha_blackhole.obj
 0001:00033760       ?index_read_idx@ha_blackhole@@UAEHPAEIPBEIW4ha_rkey_function@@@Z 00434760 f   ha_blackhole.obj
 0001:00033770       ?index_read_last@ha_blackhole@@UAEHPAEPBEI@Z 00434770 f   ha_blackhole.obj
 0001:00033780       ?index_next@ha_blackhole@@UAEHPAE@Z 00434780 f   ha_blackhole.obj
 0001:00033790       ?index_prev@ha_blackhole@@UAEHPAE@Z 00434790 f   ha_blackhole.obj
 0001:000337a0       ?index_first@ha_blackhole@@UAEHPAE@Z 004347a0 f   ha_blackhole.obj
 0001:000337b0       ?index_last@ha_blackhole@@UAEHPAE@Z 004347b0 f   ha_blackhole.obj
 0001:000337c0       ??0st_ha_check_opt@@QAE@XZ 004347c0 f i ha_archive.obj
 0001:000337d0       ?set_ptr@Field_blob@@QAEXKPAD@Z 004347d0 f i ha_archive.obj
 0001:00033820       ?archive_db_init@@YAHXZ    00434820 f   ha_archive.obj
 0001:00033910       ?archive_db_end@@YAHXZ     00434910 f   ha_archive.obj
 0001:00033950       ?read_data_header@ha_archive@@QAEHPAX@Z 00434950 f   ha_archive.obj
 0001:000339d0       ?write_data_header@ha_archive@@QAEHPAX@Z 004349d0 f   ha_archive.obj
 0001:00033a20       ?read_meta_file@ha_archive@@QAEHHPAK@Z 00434a20 f   ha_archive.obj
 0001:00033ae0       ?write_meta_file@ha_archive@@QAEHHKH@Z 00434ae0 f   ha_archive.obj
 0001:00033ba0       ?get_share@ha_archive@@QAEPAUst_archive_share@@PBDPAH@Z 00434ba0 f   ha_archive.obj
 0001:00033e00       ?free_share@ha_archive@@QAEHXZ 00434e00 f   ha_archive.obj
 0001:00033f50       ?init_archive_writer@ha_archive@@QAEHXZ 00434f50 f   ha_archive.obj
 0001:00034010       ?bas_ext@ha_archive@@UBEPAPBDXZ 00435010 f   ha_archive.obj
 0001:00034020       ?open@ha_archive@@UAEHPBDHI@Z 00435020 f   ha_archive.obj
 0001:00034140       ?close@ha_archive@@UAEHXZ  00435140 f   ha_archive.obj
 0001:00034180       ?create@ha_archive@@UAEHPBDPAUst_table@@PAUst_ha_create_information@@@Z 00435180 f   ha_archive.obj
 0001:00034330       ?real_write_row@ha_archive@@QAEHPAEPAX@Z 00435330 f   ha_archive.obj
 0001:00034520       ?write_row@ha_archive@@UAEHPAE@Z 00435520 f   ha_archive.obj
 0001:00034630       ?rnd_init@ha_archive@@UAEHH@Z 00435630 f   ha_archive.obj
 0001:00034710       ?get_row@ha_archive@@QAEHPAXPAE@Z 00435710 f   ha_archive.obj
 0001:000348a0       ?rnd_next@ha_archive@@UAEHPAE@Z 004358a0 f   ha_archive.obj
 0001:00034940       ?position@ha_archive@@UAEXPBE@Z 00435940 f   ha_archive.obj
 0001:00034970       ?rnd_pos@ha_archive@@UAEHPAE0@Z 00435970 f   ha_archive.obj
 0001:000349e0       ?repair@ha_archive@@UAEHPAVTHD@@PAUst_ha_check_opt@@@Z 004359e0 f   ha_archive.obj
 0001:00034a30       ?optimize@ha_archive@@UAEHPAVTHD@@PAUst_ha_check_opt@@@Z 00435a30 f   ha_archive.obj
 0001:00034d50       ?store_lock@ha_archive@@UAEPAPAUst_thr_lock_data@@PAVTHD@@PAPAU2@W4thr_lock_type@@@Z 00435d50 f   ha_archive.obj
 0001:00034e00       ?info@ha_archive@@UAEHI@Z  00435e00 f   ha_archive.obj
 0001:00034ec0       ?start_bulk_insert@ha_archive@@UAEXK@Z 00435ec0 f   ha_archive.obj
 0001:00034ee0       ?end_bulk_insert@ha_archive@@UAEHXZ 00435ee0 f   ha_archive.obj
 0001:00034f10       ?delete_all_rows@ha_archive@@UAEHXZ 00435f10 f   ha_archive.obj
 0001:00034f20       ?is_crashed@ha_archive@@UBEHXZ 00435f20 f   ha_archive.obj
 0001:00034f30       ?check@ha_archive@@UAEHPAVTHD@@PAUst_ha_check_opt@@@Z 00435f30 f   ha_archive.obj
 0001:000350b0       ?check_and_repair@ha_archive@@UAEHPAVTHD@@@Z 004360b0 f   ha_archive.obj
 0001:000350f0       ?set@String@@QAEXPADKPAUcharset_info_st@@@Z 004360f0 f i ha_archive.obj
 0001:00035150       ??0ha_archive@@QAE@PAUst_table@@@Z 00436150 f   ha_archive.obj
 0001:00035240       ?table_type@ha_archive@@UBEPBDXZ 00436240 f i ha_archive.obj
 0001:00035250       ?index_type@ha_archive@@UAEPBDI@Z 00436250 f i ha_archive.obj
 0001:00035260       ?table_flags@ha_archive@@UBEKXZ 00436260 f i ha_archive.obj
 0001:00035270       ?index_flags@ha_archive@@UBEKIIH@Z 00436270 f i ha_archive.obj
 0001:00035280       ?auto_repair@ha_archive@@UBEHXZ 00436280 f i ha_archive.obj
 0001:00035290       ?get_row_type@ha_archive@@UBE?AW4row_type@@XZ 00436290 f i ha_archive.obj
 0001:000352a0       ??_Eha_archive@@UAEPAXI@Z  004362a0 f i ha_archive.obj
 0001:000352a0       ??_Gha_archive@@UAEPAXI@Z  004362a0 f i ha_archive.obj
 0001:000352d0       ??0?$Bitmap@$0EA@@@QAE@XZ  004362d0 f i ha_heap.obj
 0001:000352e0       ?set_bit@?$Bitmap@$0EA@@@QAEXI@Z 004362e0 f i ha_heap.obj
 0001:00035310       ?clear_all@?$Bitmap@$0EA@@@QAEXXZ 00436310 f i ha_heap.obj
 0001:00035330       ??0st_sql_list@@QAE@XZ     00436330 f i ha_heap.obj
 0001:00035340       ??0ha_heap@@QAE@PAUst_table@@@Z 00436340 f   ha_heap.obj
 0001:00035380       ?table_type@ha_heap@@UBEPBDXZ 00436380 f i ha_heap.obj
 0001:000353b0       ?index_type@ha_heap@@UAEPBDI@Z 004363b0 f i ha_heap.obj
 0001:000353e0       ?get_row_type@ha_heap@@UBE?AW4row_type@@XZ 004363e0 f i ha_heap.obj
 0001:000353f0       ?table_flags@ha_heap@@UBEKXZ 004363f0 f i ha_heap.obj
 0001:00035400       ?index_flags@ha_heap@@UBEKIIH@Z 00436400 f i ha_heap.obj
 0001:00035430       ?keys_to_use_for_scanning@ha_heap@@UAEPBV?$Bitmap@$0EA@@@XZ 00436430 f i ha_heap.obj
 0001:00035440       ?max_supported_keys@ha_heap@@UBEIXZ 00436440 f i ha_heap.obj
 0001:00035450       ?max_supported_key_part_length@ha_heap@@UBEIXZ 00436450 f i ha_heap.obj
 0001:00035460       ?scan_time@ha_heap@@UAENXZ 00436460 f i ha_heap.obj
 0001:00035490       ?read_time@ha_heap@@UAENIIK@Z 00436490 f i ha_heap.obj
 0001:000354c0       ?cmp_ref@ha_heap@@UAEHPBE0@Z 004364c0 f i ha_heap.obj
 0001:000354f0       ??_Eha_heap@@UAEPAXI@Z     004364f0 f i ha_heap.obj
 0001:000354f0       ??_Gha_heap@@UAEPAXI@Z     004364f0 f i ha_heap.obj
 0001:00035500       ?bas_ext@ha_heap@@UBEPAPBDXZ 00436500 f   ha_heap.obj
 0001:00035510       ??0st_ha_create_information@@QAE@XZ 00436510 f i ha_heap.obj
 0001:00035520       ?close@ha_heap@@UAEHXZ     00436520 f   ha_heap.obj
 0001:00035540       ?clone@ha_heap@@UAEPAVhandler@@PAUst_mem_root@@@Z 00436540 f   ha_heap.obj
 0001:000355b0       ?set_keys_for_scanning@ha_heap@@QAEXXZ 004365b0 f   ha_heap.obj
 0001:00035640       ?update_key_stats@ha_heap@@AAEXXZ 00436640 f   ha_heap.obj
 0001:00035730       ?write_row@ha_heap@@UAEHPAE@Z 00436730 f   ha_heap.obj
 0001:000357e0       ?update_row@ha_heap@@UAEHPBEPAE@Z 004367e0 f   ha_heap.obj
 0001:00035870       ?delete_row@ha_heap@@UAEHPBE@Z 00436870 f   ha_heap.obj
 0001:00035900       ?index_read@ha_heap@@UAEHPAEPBEIW4ha_rkey_function@@@Z 00436900 f   ha_heap.obj
 0001:00035970       ?index_read_last@ha_heap@@UAEHPAEPBEI@Z 00436970 f   ha_heap.obj
 0001:000359e0       ?index_read_idx@ha_heap@@UAEHPAEIPBEIW4ha_rkey_function@@@Z 004369e0 f   ha_heap.obj
 0001:00035a50       ?index_next@ha_heap@@UAEHPAE@Z 00436a50 f   ha_heap.obj
 0001:00035aa0       ?index_prev@ha_heap@@UAEHPAE@Z 00436aa0 f   ha_heap.obj
 0001:00035af0       ?index_first@ha_heap@@UAEHPAE@Z 00436af0 f   ha_heap.obj
 0001:00035b50       ?index_last@ha_heap@@UAEHPAE@Z 00436b50 f   ha_heap.obj
 0001:00035bb0       ?rnd_init@ha_heap@@UAEHH@Z 00436bb0 f   ha_heap.obj
 0001:00035be0       ?rnd_next@ha_heap@@UAEHPAE@Z 00436be0 f   ha_heap.obj
 0001:00035c30       ?rnd_pos@ha_heap@@UAEHPAE0@Z 00436c30 f   ha_heap.obj
 0001:00035c90       ?position@ha_heap@@UAEXPBE@Z 00436c90 f   ha_heap.obj
 0001:00035cc0       ?info@ha_heap@@UAEHI@Z     00436cc0 f   ha_heap.obj
 0001:00035da0       ?extra@ha_heap@@UAEHW4ha_extra_function@@@Z 00436da0 f   ha_heap.obj
 0001:00035dc0       ?delete_all_rows@ha_heap@@UAEHXZ 00436dc0 f   ha_heap.obj
 0001:00035e00       ?external_lock@ha_heap@@UAEHPAVTHD@@H@Z 00436e00 f   ha_heap.obj
 0001:00035e10       ?disable_indexes@ha_heap@@UAEHI@Z 00436e10 f   ha_heap.obj
 0001:00035e60       ?enable_indexes@ha_heap@@UAEHI@Z 00436e60 f   ha_heap.obj
 0001:00035eb0       ?indexes_are_disabled@ha_heap@@UAEHXZ 00436eb0 f   ha_heap.obj
 0001:00035ed0       ?store_lock@ha_heap@@UAEPAPAUst_thr_lock_data@@PAVTHD@@PAPAU2@W4thr_lock_type@@@Z 00436ed0 f   ha_heap.obj
 0001:00035f20       ?delete_table@ha_heap@@UAEHPBD@Z 00436f20 f   ha_heap.obj
 0001:00035f90       ?rename_table@ha_heap@@UAEHPBD0@Z 00436f90 f   ha_heap.obj
 0001:00035fb0       ?records_in_range@ha_heap@@UAEKIPAUst_key_range@@0@Z 00436fb0 f   ha_heap.obj
 0001:00036060       ?create@ha_heap@@UAEHPBDPAUst_table@@PAUst_ha_create_information@@@Z 00437060 f   ha_heap.obj
 0001:00036490       ?update_create_info@ha_heap@@UAEXPAUst_ha_create_information@@@Z 00437490 f   ha_heap.obj
 0001:000364d0       ?get_auto_increment@ha_heap@@UAE_KXZ 004374d0 f   ha_heap.obj
 0001:000364f0       ?open@ha_heap@@UAEHPBDHI@Z 004374f0 f   ha_heap.obj
 0001:000365e0       ?intersect@?$Bitmap@$0EA@@@QAEXAAV1@@Z 004375e0 f i ha_myisam.obj
 0001:00036610       ?intersect_extended@?$Bitmap@$0EA@@@QAEX_K@Z 00437610 f i ha_myisam.obj
 0001:00036630       ?is_clear_all@?$Bitmap@$0EA@@@QBEDXZ 00437630 f i ha_myisam.obj
 0001:00036640       ?is_set_all@?$Bitmap@$0EA@@@QBEDXZ 00437640 f i ha_myisam.obj
 0001:00036660       ?to_ulonglong@?$Bitmap@$0EA@@@QBE_KXZ 00437660 f i ha_myisam.obj
 0001:00036670       ?val_int_offset@Field@@QAE_JI@Z 00437670 f i ha_myisam.obj
 0001:000366a0       ?clear_error@THD@@QAEXXZ   004376a0 f i ha_myisam.obj
 0001:000366d0       ?vio_ok@THD@@QBEHXZ        004376d0 f i ha_myisam.obj
 0001:000368b0       ?table2myisam@@YAHPAUst_table@@PAPAUst_mi_keydef@@PAPAUst_columndef@@PAI@Z 004378b0 f   ha_myisam.obj
 0001:00036ed0       ?check_definition@@YAHPAUst_mi_keydef@@PAUst_columndef@@II01IIH@Z 00437ed0 f   ha_myisam.obj
 0001:00037100       _killed_ptr                00438100 f   ha_myisam.obj
 0001:00037120       _mi_check_print_error      00438120 f   ha_myisam.obj
 0001:00037170       _mi_check_print_info       00438170 f   ha_myisam.obj
 0001:000371a0       _mi_check_print_warning    004381a0 f   ha_myisam.obj
 0001:000371e0       ??0ha_myisam@@QAE@PAUst_table@@@Z 004381e0 f   ha_myisam.obj
 0001:00037230       ?table_type@ha_myisam@@UBEPBDXZ 00438230 f i ha_myisam.obj
 0001:00037240       ?table_flags@ha_myisam@@UBEKXZ 00438240 f i ha_myisam.obj
 0001:00037250       ?index_flags@ha_myisam@@UBEKIIH@Z 00438250 f i ha_myisam.obj
 0001:00037280       ?max_supported_keys@ha_myisam@@UBEIXZ 00438280 f i ha_myisam.obj
 0001:00037290       ?max_supported_key_length@ha_myisam@@UBEIXZ 00438290 f i ha_myisam.obj
 0001:000372a0       ?max_supported_key_part_length@ha_myisam@@UBEIXZ 004382a0 f i ha_myisam.obj
 0001:000372b0       ?ft_init@ha_myisam@@UAEHXZ 004382b0 f i ha_myisam.obj
 0001:000372e0       ?ft_init_ext@ha_myisam@@UAEPAUst_ft_info@@IIPAVString@@@Z 004382e0 f i ha_myisam.obj
 0001:00037330       ?auto_repair@ha_myisam@@UBEHXZ 00438330 f i ha_myisam.obj
 0001:00037350       ??_Gha_myisam@@UAEPAXI@Z   00438350 f i ha_myisam.obj
 0001:00037350       ??_Eha_myisam@@UAEPAXI@Z   00438350 f i ha_myisam.obj
 0001:00037360       ?clone@ha_myisam@@UAEPAVhandler@@PAUst_mem_root@@@Z 00438360 f   ha_myisam.obj
 0001:00037390       ?bas_ext@ha_myisam@@UBEPAPBDXZ 00438390 f   ha_myisam.obj
 0001:000373a0       ?index_type@ha_myisam@@UAEPBDI@Z 004383a0 f   ha_myisam.obj
 0001:000373f0       ?net_read_dump@ha_myisam@@UAEHPAUst_net@@@Z 004383f0 f   ha_myisam.obj
 0001:000374a0       ?dump@ha_myisam@@UAEHPAVTHD@@H@Z 004384a0 f   ha_myisam.obj
 0001:00037690       ?open@ha_myisam@@UAEHPBDHI@Z 00438690 f   ha_myisam.obj
 0001:00037770       ?close@ha_myisam@@UAEHXZ   00438770 f   ha_myisam.obj
 0001:00037790       ?write_row@ha_myisam@@UAEHPAE@Z 00438790 f   ha_myisam.obj
 0001:00037810       ?check@ha_myisam@@UAEHPAVTHD@@PAUst_ha_check_opt@@@Z 00438810 f   ha_myisam.obj
 0001:00037cc0       ?analyze@ha_myisam@@UAEHPAVTHD@@PAUst_ha_check_opt@@@Z 00438cc0 f   ha_myisam.obj
 0001:00037e40       ?restore@ha_myisam@@UAEHPAVTHD@@PAUst_ha_check_opt@@@Z 00438e40 f   ha_myisam.obj
 0001:00038010       ?backup@ha_myisam@@UAEHPAVTHD@@PAUst_ha_check_opt@@@Z 00439010 f   ha_myisam.obj
 0001:00038220       ?repair@ha_myisam@@AAEHPAVTHD@@AAUst_mi_check_param@@H@Z 00439220 f   ha_myisam.obj
 0001:00038b00       ?assign_to_keycache@ha_myisam@@UAEHPAVTHD@@PAUst_ha_check_opt@@@Z 00439b00 f   ha_myisam.obj
 0001:00038c60       ?preload_keys@ha_myisam@@UAEHPAVTHD@@PAUst_ha_check_opt@@@Z 00439c60 f   ha_myisam.obj
 0001:00038e40       ?disable_indexes@ha_myisam@@UAEHI@Z 00439e40 f   ha_myisam.obj
 0001:00038eb0       ?enable_indexes@ha_myisam@@UAEHI@Z 00439eb0 f   ha_myisam.obj
 0001:00039160       ?indexes_are_disabled@ha_myisam@@UAEHXZ 0043a160 f   ha_myisam.obj
 0001:00039180       ?start_bulk_insert@ha_myisam@@UAEXK@Z 0043a180 f   ha_myisam.obj
 0001:000392e0       ?end_bulk_insert@ha_myisam@@UAEHXZ 0043a2e0 f   ha_myisam.obj
 0001:00039340       ?check_and_repair@ha_myisam@@UAEHPAVTHD@@@Z 0043a340 f   ha_myisam.obj
 0001:00039510       ?is_crashed@ha_myisam@@UBEHXZ 0043a510 f   ha_myisam.obj
 0001:00039550       ?update_row@ha_myisam@@UAEHPBEPAE@Z 0043a550 f   ha_myisam.obj
 0001:000395b0       ?delete_row@ha_myisam@@UAEHPBE@Z 0043a5b0 f   ha_myisam.obj
 0001:000395f0       ?index_read@ha_myisam@@UAEHPAEPBEIW4ha_rkey_function@@@Z 0043a5f0 f   ha_myisam.obj
 0001:00039660       ?index_read_idx@ha_myisam@@UAEHPAEIPBEIW4ha_rkey_function@@@Z 0043a660 f   ha_myisam.obj
 0001:000396d0       ?index_read_last@ha_myisam@@UAEHPAEPBEI@Z 0043a6d0 f   ha_myisam.obj
 0001:00039740       ?index_next@ha_myisam@@UAEHPAE@Z 0043a740 f   ha_myisam.obj
 0001:000397a0       ?index_prev@ha_myisam@@UAEHPAE@Z 0043a7a0 f   ha_myisam.obj
 0001:00039800       ?index_first@ha_myisam@@UAEHPAE@Z 0043a800 f   ha_myisam.obj
 0001:00039860       ?index_last@ha_myisam@@UAEHPAE@Z 0043a860 f   ha_myisam.obj
 0001:000398c0       ?index_next_same@ha_myisam@@UAEHPAEPBEI@Z 0043a8c0 f   ha_myisam.obj
 0001:00039910       ?rnd_init@ha_myisam@@UAEHH@Z 0043a910 f   ha_myisam.obj
 0001:00039950       ?rnd_next@ha_myisam@@UAEHPAE@Z 0043a950 f   ha_myisam.obj
 0001:000399a0       ?restart_rnd_next@ha_myisam@@UAEHPAE0@Z 0043a9a0 f   ha_myisam.obj
 0001:000399b0       ?rnd_pos@ha_myisam@@UAEHPAE0@Z 0043a9b0 f   ha_myisam.obj
 0001:00039a20       ?position@ha_myisam@@UAEXPBE@Z 0043aa20 f   ha_myisam.obj
 0001:00039a60       ?extra@ha_myisam@@UAEHW4ha_extra_function@@@Z 0043aa60 f   ha_myisam.obj
 0001:00039aa0       ?extra_opt@ha_myisam@@UAEHW4ha_extra_function@@K@Z 0043aaa0 f   ha_myisam.obj
 0001:00039ae0       ?delete_all_rows@ha_myisam@@UAEHXZ 0043aae0 f   ha_myisam.obj
 0001:00039b00       ?delete_table@ha_myisam@@UAEHPBD@Z 0043ab00 f   ha_myisam.obj
 0001:00039b20       ?external_lock@ha_myisam@@UAEHPAVTHD@@H@Z 0043ab20 f   ha_myisam.obj
 0001:00039b60       ?store_lock@ha_myisam@@UAEPAPAUst_thr_lock_data@@PAVTHD@@PAPAU2@W4thr_lock_type@@@Z 0043ab60 f   ha_myisam.obj
 0001:00039bb0       ?create@ha_myisam@@UAEHPBDPAUst_table@@PAUst_ha_create_information@@@Z 0043abb0 f   ha_myisam.obj
 0001:00039db0       ?rename_table@ha_myisam@@UAEHPBD0@Z 0043adb0 f   ha_myisam.obj
 0001:00039dd0       ?records_in_range@ha_myisam@@UAEKIPAUst_key_range@@0@Z 0043add0 f   ha_myisam.obj
 0001:00039e00       ?ft_read@ha_myisam@@UAEHPAE@Z 0043ae00 f   ha_myisam.obj
 0001:00039e70       ?checksum@ha_myisam@@UBEIXZ 0043ae70 f   ha_myisam.obj
 0001:00039e80       ?register_query_cache_table@ha_myisam@@UAEDPAVTHD@@PADIPAP6AD01IPA_K@Z2@Z 0043ae80 f   ha_myisam.obj
 0001:00039ed0       ?repair@ha_myisam@@UAEHPAVTHD@@PAUst_ha_check_opt@@@Z 0043aed0 f   ha_myisam.obj
 0001:0003a150       ?optimize@ha_myisam@@UAEHPAVTHD@@PAUst_ha_check_opt@@@Z 0043b150 f   ha_myisam.obj
 0001:0003a2a0       ?info@ha_myisam@@UAEHI@Z   0043b2a0 f   ha_myisam.obj
 0001:0003a650       ?update_create_info@ha_myisam@@UAEXPAUst_ha_create_information@@@Z 0043b650 f   ha_myisam.obj
 0001:0003a6c0       ?get_auto_increment@ha_myisam@@UAE_KXZ 0043b6c0 f   ha_myisam.obj
 0001:0003a830       ?alloc@Query_arena@@QAEPADI@Z 0043b830 f i ha_myisammrg.obj
 0001:0003a850       ?calloc@Query_arena@@QAEPADI@Z 0043b850 f i ha_myisammrg.obj
 0001:0003a890       ?strmake@Query_arena@@QAEPADPBDI@Z 0043b890 f i ha_myisammrg.obj
 0001:0003a8b0       ??0ha_myisammrg@@QAE@PAUst_table@@@Z 0043b8b0 f   ha_myisammrg.obj
 0001:0003a8f0       ?table_type@ha_myisammrg@@UBEPBDXZ 0043b8f0 f i ha_myisammrg.obj
 0001:0003a900       ?table_flags@ha_myisammrg@@UBEKXZ 0043b900 f i ha_myisammrg.obj
 0001:0003a910       ?index_flags@ha_myisammrg@@UBEKIIH@Z 0043b910 f i ha_myisammrg.obj
 0001:0003a940       ?max_supported_keys@ha_myisammrg@@UBEIXZ 0043b940 f i ha_myisammrg.obj
 0001:0003a950       ?max_supported_key_length@ha_myisammrg@@UBEIXZ 0043b950 f i ha_myisammrg.obj
 0001:0003a960       ?max_supported_key_part_length@ha_myisammrg@@UBEIXZ 0043b960 f i ha_myisammrg.obj
 0001:0003a970       ?scan_time@ha_myisammrg@@UAENXZ 0043b970 f i ha_myisammrg.obj
 0001:0003a9d0       ??_Gha_myisammrg@@UAEPAXI@Z 0043b9d0 f i ha_myisammrg.obj
 0001:0003a9d0       ??_Eha_myisammrg@@UAEPAXI@Z 0043b9d0 f i ha_myisammrg.obj
 0001:0003a9e0       ?bas_ext@ha_myisammrg@@UBEPAPBDXZ 0043b9e0 f   ha_myisammrg.obj
 0001:0003a9f0       ?index_type@ha_myisammrg@@UAEPBDI@Z 0043b9f0 f   ha_myisammrg.obj
 0001:0003aa40       ?close@ha_myisammrg@@UAEHXZ 0043ba40 f   ha_myisammrg.obj
 0001:0003aa60       ?write_row@ha_myisammrg@@UAEHPAE@Z 0043ba60 f   ha_myisammrg.obj
 0001:0003ab00       ?update_row@ha_myisammrg@@UAEHPBEPAE@Z 0043bb00 f   ha_myisammrg.obj
 0001:0003ab60       ?delete_row@ha_myisammrg@@UAEHPBE@Z 0043bb60 f   ha_myisammrg.obj
 0001:0003aba0       ?index_read@ha_myisammrg@@UAEHPAEPBEIW4ha_rkey_function@@@Z 0043bba0 f   ha_myisammrg.obj
 0001:0003ac10       ?index_read_idx@ha_myisammrg@@UAEHPAEIPBEIW4ha_rkey_function@@@Z 0043bc10 f   ha_myisammrg.obj
 0001:0003ac80       ?index_read_last@ha_myisammrg@@UAEHPAEPBEI@Z 0043bc80 f   ha_myisammrg.obj
 0001:0003acf0       ?index_next@ha_myisammrg@@UAEHPAE@Z 0043bcf0 f   ha_myisammrg.obj
 0001:0003ad50       ?index_prev@ha_myisammrg@@UAEHPAE@Z 0043bd50 f   ha_myisammrg.obj
 0001:0003adb0       ?index_first@ha_myisammrg@@UAEHPAE@Z 0043bdb0 f   ha_myisammrg.obj
 0001:0003ae10       ?index_last@ha_myisammrg@@UAEHPAE@Z 0043be10 f   ha_myisammrg.obj
 0001:0003ae70       ?index_next_same@ha_myisammrg@@UAEHPAEPBEI@Z 0043be70 f   ha_myisammrg.obj
 0001:0003aec0       ?rnd_init@ha_myisammrg@@UAEHH@Z 0043bec0 f   ha_myisammrg.obj
 0001:0003aee0       ?rnd_next@ha_myisammrg@@UAEHPAE@Z 0043bee0 f   ha_myisammrg.obj
 0001:0003af40       ?rnd_pos@ha_myisammrg@@UAEHPAE0@Z 0043bf40 f   ha_myisammrg.obj
 0001:0003afb0       ?position@ha_myisammrg@@UAEXPBE@Z 0043bfb0 f   ha_myisammrg.obj
 0001:0003aff0       ?records_in_range@ha_myisammrg@@UAEKIPAUst_key_range@@0@Z 0043bff0 f   ha_myisammrg.obj
 0001:0003b020       ?extra@ha_myisammrg@@UAEHW4ha_extra_function@@@Z 0043c020 f   ha_myisammrg.obj
 0001:0003b060       ?extra_opt@ha_myisammrg@@UAEHW4ha_extra_function@@K@Z 0043c060 f   ha_myisammrg.obj
 0001:0003b0a0       ?external_lock@ha_myisammrg@@UAEHPAVTHD@@H@Z 0043c0a0 f   ha_myisammrg.obj
 0001:0003b0c0       ?lock_count@ha_myisammrg@@UBEIXZ 0043c0c0 f   ha_myisammrg.obj
 0001:0003b0d0       ?store_lock@ha_myisammrg@@UAEPAPAUst_thr_lock_data@@PAVTHD@@PAPAU2@W4thr_lock_type@@@Z 0043c0d0 f   ha_myisammrg.obj
 0001:0003b200       ?update_create_info@ha_myisammrg@@UAEXPAUst_ha_create_information@@@Z 0043c200 f   ha_myisammrg.obj
 0001:0003b3b0       ?create@ha_myisammrg@@UAEHPBDPAUst_table@@PAUst_ha_create_information@@@Z 0043c3b0 f   ha_myisammrg.obj
 0001:0003b5b0       ?append_create_info@ha_myisammrg@@UAEXPAVString@@@Z 0043c5b0 f   ha_myisammrg.obj
 0001:0003b7f0       ?check@ha_myisammrg@@UAEHPAVTHD@@PAUst_ha_check_opt@@@Z 0043c7f0 f   ha_myisammrg.obj
 0001:0003b800       _myrg_print_wrong_table    0043c800 f   ha_myisammrg.obj
 0001:0003b8f0       ?open@ha_myisammrg@@UAEHPBDHI@Z 0043c8f0 f   ha_myisammrg.obj
 0001:0003bbd0       ?info@ha_myisammrg@@UAEHI@Z 0043cbd0 f   ha_myisammrg.obj
 0001:0003bd70       ?store@Protocol@@QAEH_K@Z  0043cd70 f i ha_innodb.obj
 0001:0003bd90       ??1?$List@VItem@@@@QAE@XZ  0043cd90 f i ha_innodb.obj
 0001:0003bda0       ?get_log_fname@MYSQL_LOG@@QAEPADXZ 0043cda0 f i ha_innodb.obj
 0001:0003bdb0       ?get_log_file@MYSQL_LOG@@QAEPAUst_io_cache@@XZ 0043cdb0 f i ha_innodb.obj
 0001:0003bdc0       ??1?$List@Ust_lex_string@@@@QAE@XZ 0043cdc0 f i ha_innodb.obj
 0001:0003bdd0       ?memdup@Query_arena@@QAEPADPBDI@Z 0043cdd0 f i ha_innodb.obj
 0001:0003bdf0       ?charset@THD@@QAEPAUcharset_info_st@@XZ 0043cdf0 f i ha_innodb.obj
 0001:0003be00       ?innodb_srv_conc_enter_innodb@@YAXPAUtrx_struct@@@Z 0043ce00 f i ha_innodb.obj
 0001:0003be20       ?innodb_srv_conc_exit_innodb@@YAXPAUtrx_struct@@@Z 0043ce20 f i ha_innodb.obj
 0001:0003be40       ?innobase_release_stat_resources@@YAXPAUtrx_struct@@@Z 0043ce40 f i ha_innodb.obj
 0001:0003be80       ?innobase_release_temporary_latches@@YAXPAVTHD@@@Z 0043ce80 f   ha_innodb.obj
 0001:0003bee0       ?innobase_active_small@@YAXXZ 0043cee0 f i ha_innodb.obj
 0001:0003c020       _innobase_mysql_prepare_print_arbitrary_thd 0043d020 f   ha_innodb.obj
 0001:0003c030       _innobase_mysql_end_print_arbitrary_thd 0043d030 f   ha_innodb.obj
 0001:0003c040       _innobase_mysql_print_thd  0043d040 f   ha_innodb.obj
 0001:0003c1f0       _innobase_get_cset_width   0043d1f0 f   ha_innodb.obj
 0001:0003c2b0       _innobase_strcasecmp       0043d2b0 f   ha_innodb.obj
 0001:0003c2d0       _innobase_casedn_str       0043d2d0 f   ha_innodb.obj
 0001:0003c2f0       _innobase_mysql_tmpfile    0043d2f0 f   ha_innodb.obj
 0001:0003c4e0       ??0ha_innobase@@QAE@PAUst_table@@@Z 0043d4e0 f   ha_innodb.obj
 0001:0003c530       ?table_type@ha_innobase@@UBEPBDXZ 0043d530 f i ha_innodb.obj
 0001:0003c540       ?index_type@ha_innobase@@UAEPBDI@Z 0043d540 f i ha_innodb.obj
 0001:0003c550       ?table_flags@ha_innobase@@UBEKXZ 0043d550 f i ha_innodb.obj
 0001:0003c560       ?index_flags@ha_innobase@@UBEKIIH@Z 0043d560 f i ha_innodb.obj
 0001:0003c570       ?max_supported_keys@ha_innobase@@UBEIXZ 0043d570 f i ha_innodb.obj
 0001:0003c580       ?max_supported_key_length@ha_innobase@@UBEIXZ 0043d580 f i ha_innodb.obj
 0001:0003c590       ?keys_to_use_for_scanning@ha_innobase@@UAEPBV?$Bitmap@$0EA@@@XZ 0043d590 f i ha_innodb.obj
 0001:0003c5a0       ?has_transactions@ha_innobase@@UAEHXZ 0043d5a0 f i ha_innodb.obj
 0001:0003c5b0       ?table_cache_type@ha_innobase@@UAEEXZ 0043d5b0 f i ha_innodb.obj
 0001:0003c5c0       ?primary_key_is_clustered@ha_innobase@@UAEHXZ 0043d5c0 f i ha_innodb.obj
 0001:0003c5d0       ??_Eha_innobase@@UAEPAXI@Z 0043d5d0 f i ha_innodb.obj
 0001:0003c5d0       ??_Gha_innobase@@UAEPAXI@Z 0043d5d0 f i ha_innodb.obj
 0001:0003c5e0       ?update_thd@ha_innobase@@AAEHPAVTHD@@@Z 0043d5e0 f i ha_innodb.obj
 0001:0003c620       ?innobase_register_stmt@@YAXPAVTHD@@@Z 0043d620 f i ha_innodb.obj
 0001:0003c640       ?innobase_register_trx_and_stmt@@YAXPAVTHD@@@Z 0043d640 f i ha_innodb.obj
 0001:0003c690       ?innobase_query_caching_of_table_permitted@@YADPAVTHD@@PADIPA_K@Z 0043d690 f   ha_innodb.obj
 0001:0003c8e0       _innobase_invalidate_query_cache 0043d8e0 f   ha_innodb.obj
 0001:0003c910       _mysql_get_identifier_quote_char 0043d910 f   ha_innodb.obj
 0001:0003c940       _trx_is_interrupted        0043d940 f   ha_innodb.obj
 0001:0003c970       _innobase_current_thd      0043d970 f   ha_innodb.obj
 0001:0003c990       ?init_table_handle_for_HANDLER@ha_innobase@@UAEXXZ 0043d990 f   ha_innodb.obj
 0001:0003cad0       ?innobase_end@@YAHXZ       0043dad0 f   ha_innodb.obj
 0001:0003cb70       ?innobase_flush_logs@@YAHXZ 0043db70 f   ha_innodb.obj
 0001:0003cb80       ?innobase_commit_low@@YAXPAUtrx_struct@@@Z 0043db80 f   ha_innodb.obj
 0001:0003cc00       ?innobase_start_trx_and_assign_read_view@@YAHPAVTHD@@@Z 0043dc00 f   ha_innodb.obj
 0001:0003ceb0       ?innobase_report_binlog_offset_and_commit@@YAHPAVTHD@@PAXPAD_K@Z 0043deb0 f   ha_innodb.obj
 0001:0003cf80       ?innobase_commit_complete@@YAHPAVTHD@@@Z 0043df80 f   ha_innodb.obj
 0001:0003d090       ?innobase_rollback_trx@@YAHPAUtrx_struct@@@Z 0043e090 f   ha_innodb.obj
 0001:0003d3a0       ?get_row_type@ha_innobase@@UBE?AW4row_type@@XZ 0043e3a0 f   ha_innodb.obj
 0001:0003d3d0       ?bas_ext@ha_innobase@@UBEPAPBDXZ 0043e3d0 f   ha_innodb.obj
 0001:0003d490       ?max_supported_key_part_length@ha_innobase@@UBEIXZ 0043e490 f   ha_innodb.obj
 0001:0003d4a0       ?get_field_offset@@YAIPAUst_table@@PAVField@@@Z 0043e4a0 f i ha_innodb.obj
 0001:0003d4c0       ?field_in_record_is_null@@YAIPAUst_table@@PAVField@@PAD@Z 0043e4c0 f i ha_innodb.obj
 0001:0003d500       _innobase_mysql_cmp        0043e500 f   ha_innodb.obj
 0001:0003d760       ?get_innobase_type_from_mysql_type@@YAKPAKPAVField@@@Z 0043e760 f i ha_innodb.obj
 0001:0003da50       ?innobase_write_to_2_little_endian@@YAXPAEK@Z 0043ea50 f i ha_innodb.obj
 0001:0003dae0       ?innobase_read_from_2_little_endian@@YAIPBE@Z 0043eae0 f i ha_innodb.obj
 0001:0003db00       ?store_key_val_for_row@ha_innobase@@AAEIIPADIPBE@Z 0043eb00 f   ha_innodb.obj
 0001:0003e7b0       ?update_row@ha_innobase@@UAEHPBEPAE@Z 0043f7b0 f   ha_innodb.obj
 0001:0003e9a0       ?delete_row@ha_innobase@@UAEHPBE@Z 0043f9a0 f   ha_innodb.obj
 0001:0003eae0       ?unlock_row@ha_innobase@@UAEXXZ 0043fae0 f   ha_innodb.obj
 0001:0003ebb0       ?index_end@ha_innobase@@UAEHXZ 0043fbb0 f   ha_innodb.obj
 0001:0003ebc0       ?convert_search_mode_to_innobase@@YAKW4ha_rkey_function@@@Z 0043fbc0 f i ha_innodb.obj
 0001:0003ec20       ?index_read@ha_innobase@@UAEHPAEPBEIW4ha_rkey_function@@@Z 0043fc20 f   ha_innodb.obj
 0001:0003eed0       ?index_read_last@ha_innobase@@UAEHPAEPBEI@Z 0043fed0 f   ha_innodb.obj
 0001:0003eef0       ?change_active_index@ha_innobase@@AAEHI@Z 0043fef0 f   ha_innodb.obj
 0001:0003f020       ?index_read_idx@ha_innobase@@UAEHPAEIPBEIW4ha_rkey_function@@@Z 00440020 f   ha_innodb.obj
 0001:0003f070       ?general_fetch@ha_innobase@@AAEHPAEII@Z 00440070 f   ha_innodb.obj
 0001:0003f170       ?index_next@ha_innobase@@UAEHPAE@Z 00440170 f   ha_innodb.obj
 0001:0003f1c0       ?index_next_same@ha_innobase@@UAEHPAEPBEI@Z 004401c0 f   ha_innodb.obj
 0001:0003f210       ?index_prev@ha_innobase@@UAEHPAE@Z 00440210 f   ha_innodb.obj
 0001:0003f260       ?index_first@ha_innobase@@UAEHPAE@Z 00440260 f   ha_innodb.obj
 0001:0003f2c0       ?index_last@ha_innobase@@UAEHPAE@Z 004402c0 f   ha_innodb.obj
 0001:0003f320       ?rnd_init@ha_innobase@@UAEHH@Z 00440320 f   ha_innodb.obj
 0001:0003f360       ?rnd_end@ha_innobase@@UAEHXZ 00440360 f   ha_innodb.obj
 0001:0003f370       ?rnd_next@ha_innobase@@UAEHPAE@Z 00440370 f   ha_innodb.obj
 0001:0003f3f0       ?rnd_pos@ha_innobase@@UAEHPAE0@Z 004403f0 f   ha_innodb.obj
 0001:0003f490       ?position@ha_innobase@@UAEXPBE@Z 00440490 f   ha_innodb.obj
 0001:0003fab0       ?create@ha_innobase@@UAEHPBDPAUst_table@@PAUst_ha_create_information@@@Z 00440ab0 f   ha_innodb.obj
 0001:0003fea0       ?discard_or_import_tablespace@ha_innobase@@UAEHD@Z 00440ea0 f   ha_innodb.obj
 0001:00040020       ?delete_all_rows@ha_innobase@@UAEHXZ 00441020 f   ha_innodb.obj
 0001:000400a0       ?delete_table@ha_innobase@@UAEHPBD@Z 004410a0 f   ha_innodb.obj
 0001:000401f0       ?innobase_drop_database@@YAHPAD@Z 004411f0 f   ha_innodb.obj
 0001:00040340       ?rename_table@ha_innobase@@UAEHPBD0@Z 00441340 f   ha_innodb.obj
 0001:00040480       ?records_in_range@ha_innobase@@UAEKIPAUst_key_range@@0@Z 00441480 f   ha_innodb.obj
 0001:00040750       ?estimate_rows_upper_bound@ha_innobase@@UAEKXZ 00441750 f   ha_innodb.obj
 0001:00040820       ?scan_time@ha_innobase@@UAENXZ 00441820 f   ha_innodb.obj
 0001:00040850       ?read_time@ha_innobase@@UAENIIK@Z 00441850 f   ha_innodb.obj
 0001:00040950       ?analyze@ha_innobase@@UAEHPAVTHD@@PAUst_ha_check_opt@@@Z 00441950 f   ha_innodb.obj
 0001:00040970       ?optimize@ha_innobase@@UAEHPAVTHD@@PAUst_ha_check_opt@@@Z 00441970 f   ha_innodb.obj
 0001:00040980       ?check@ha_innobase@@UAEHPAVTHD@@PAUst_ha_check_opt@@@Z 00441980 f   ha_innodb.obj
 0001:00040af0       ?update_table_comment@ha_innobase@@UAEPADPBD@Z 00441af0 f   ha_innodb.obj
 0001:00040ce0       ?get_foreign_key_create_info@ha_innobase@@UAEPADXZ 00441ce0 f   ha_innodb.obj
 0001:00040e90       ??1st_foreign_key_info@@QAE@XZ 00441e90 f i ha_innodb.obj
 0001:00040ea0       ?can_switch_engines@ha_innobase@@UAEHXZ 00441ea0 f   ha_innodb.obj
 0001:00040f10       ?referenced_by_foreign_key@ha_innobase@@UAEIXZ 00441f10 f   ha_innodb.obj
 0001:00040f30       ?free_foreign_key_create_info@ha_innobase@@UAEXPAD@Z 00441f30 f   ha_innodb.obj
 0001:00040f50       ?extra@ha_innobase@@UAEHW4ha_extra_function@@@Z 00441f50 f   ha_innodb.obj
 0001:00041080       ?start_stmt@ha_innobase@@UAEHPAVTHD@@W4thr_lock_type@@@Z 00442080 f   ha_innodb.obj
 0001:000411c0       ?innobase_map_isolation_level@@YAKW4enum_tx_isolation@@@Z 004421c0 f i ha_innodb.obj
 0001:00041270       ?external_lock@ha_innobase@@UAEHPAVTHD@@H@Z 00442270 f   ha_innodb.obj
 0001:00041500       ?transactional_table_lock@ha_innobase@@QAEHPAVTHD@@H@Z 00442500 f   ha_innodb.obj
 0001:00041710       ?innodb_export_status@@YAXXZ 00442710 f   ha_innodb.obj
 0001:00041880       ?store_lock@ha_innobase@@UAEPAPAUst_thr_lock_data@@PAVTHD@@PAPAU2@W4thr_lock_type@@@Z 00442880 f   ha_innodb.obj
 0001:00041a40       ?innobase_read_and_init_auto_inc@ha_innobase@@AAEHPA_J@Z 00442a40 f   ha_innodb.obj
 0001:00041d90       ?get_auto_increment@ha_innobase@@UAE_KXZ 00442d90 f   ha_innodb.obj
 0001:00041df0       ?reset_auto_increment@ha_innobase@@UAEH_K@Z 00442df0 f   ha_innodb.obj
 0001:00041e50       ?get_error_message@ha_innobase@@UAEHHPAVString@@@Z 00442e50 f   ha_innodb.obj
 0001:00041eb0       ?cmp_ref@ha_innobase@@UAEHPBE0@Z 00442eb0 f   ha_innodb.obj
 0001:00041fd0       ?get_mysql_bin_log_name@ha_innobase@@SAPADXZ 00442fd0 f   ha_innodb.obj
 0001:00041fe0       ?get_mysql_bin_log_pos@ha_innobase@@SA_KXZ 00442fe0 f   ha_innodb.obj
 0001:00041ff0       _innobase_get_at_most_n_mbchars 00442ff0 f   ha_innodb.obj
 0001:00042060       _innobase_query_is_update  00443060 f   ha_innodb.obj
 0001:000420c0       ?innobase_xa_prepare@@YAHPAVTHD@@H@Z 004430c0 f   ha_innodb.obj
 0001:00042200       ?innobase_xa_recover@@YAHPAUxid_t@@I@Z 00443200 f   ha_innodb.obj
 0001:00042230       ?innobase_commit_by_xid@@YAHPAUxid_t@@@Z 00443230 f   ha_innodb.obj
 0001:00042260       ?innobase_rollback_by_xid@@YAHPAUxid_t@@@Z 00443260 f   ha_innodb.obj
 0001:00042290       ?innobase_create_cursor_view@@YAPAXXZ 00443290 f   ha_innodb.obj
 0001:000422c0       ?innobase_close_cursor_view@@YAXPAX@Z 004432c0 f   ha_innodb.obj
 0001:00042300       ?innobase_set_cursor_view@@YAXPAX@Z 00443300 f   ha_innodb.obj
 0001:00042340       ??0?$List@Ust_lex_string@@@@QAE@XZ 00443340 f i ha_innodb.obj
 0001:00042360       ?push_back@?$List@Ust_lex_string@@@@QAEHPAUst_lex_string@@@Z 00443360 f i ha_innodb.obj
 0001:000423c0       ??0?$List@VItem@@@@QAE@XZ  004433c0 f i ha_innodb.obj
 0001:000423e0       ?push_back@?$List@VItem@@@@QAEHPAVItem@@@Z 004433e0 f i ha_innodb.obj
 0001:00042440       ?push_back@?$List@Ust_foreign_key_info@@@@QAEHPAUst_foreign_key_info@@@Z 00443440 f i ha_innodb.obj
 0001:000424a0       ??1Item_string@@UAE@XZ     004434a0 f i ha_innodb.obj
 0001:000424e0       ??0Item_empty_string@@QAE@PBDIPAUcharset_info_st@@@Z 004434e0 f i ha_innodb.obj
 0001:00042550       ?register_query_cache_table@ha_innobase@@UAEDPAVTHD@@PADIPAP6AD01IPA_K@Z2@Z 00443550 f i ha_innodb.obj
 0001:000425a0       ?innobase_init@@YAHXZ      004435a0 f   ha_innodb.obj
 0001:00042c10       ?open@ha_innobase@@UAEHPBDHI@Z 00443c10 f   ha_innodb.obj
 0001:00042f50       ?close@ha_innobase@@UAEHXZ 00443f50 f   ha_innodb.obj
 0001:00043010       ?write_row@ha_innobase@@UAEHPAE@Z 00444010 f   ha_innodb.obj
 0001:00043480       ?index_init@ha_innobase@@UAEHI@Z 00444480 f   ha_innodb.obj
 0001:00043490       ?info@ha_innobase@@UAEHI@Z 00444490 f   ha_innodb.obj
 0001:00043980       ??0st_foreign_key_info@@QAE@XZ 00444980 f i ha_innodb.obj
 0001:000439b0       ?innodb_show_status@@YAHPAVTHD@@@Z 004449b0 f   ha_innodb.obj
 0001:00043d10       ?innodb_mutex_show_status@@YAHPAVTHD@@@Z 00444d10 f   ha_innodb.obj
 0001:00043f80       ??_EItem_empty_string@@UAEPAXI@Z 00444f80 f i ha_innodb.obj
 0001:00043f80       ??_GItem_empty_string@@UAEPAXI@Z 00444f80 f i ha_innodb.obj
 0001:00043fa0       ?update_create_info@ha_innobase@@UAEXPAUst_ha_create_information@@@Z 00444fa0 f   ha_innodb.obj
 0001:00043fd0       ?get_foreign_key_list@ha_innobase@@UAEHPAVTHD@@PAV?$List@Ust_foreign_key_info@@@@@Z 00444fd0 f   ha_innodb.obj
 0001:00044420       ?reserve@String@@QAEHK@Z   00445420 f i ha_federated.obj
 0001:00044440       ?val_str@Field@@QAEPAVString@@PAV2@PAD@Z 00445440 f i ha_federated.obj
 0001:00044470       ?insert_id@THD@@QAEX_K@Z   00445470 f i ha_federated.obj
 0001:000444d0       ?federated_db_init@@YAHXZ  004454d0 f   ha_federated.obj
 0001:00044540       ?federated_db_end@@YAHXZ   00445540 f   ha_federated.obj
 0001:00044a10       ??0ha_federated@@QAE@PAUst_table@@@Z 00445a10 f   ha_federated.obj
 0001:00044a60       ?table_type@ha_federated@@UBEPBDXZ 00445a60 f i ha_federated.obj
 0001:00044a70       ?index_type@ha_federated@@UAEPBDI@Z 00445a70 f i ha_federated.obj
 0001:00044a80       ?table_flags@ha_federated@@UBEKXZ 00445a80 f i ha_federated.obj
 0001:00044a90       ?index_flags@ha_federated@@UBEKIIH@Z 00445a90 f i ha_federated.obj
 0001:00044aa0       ?max_supported_record_length@ha_federated@@UBEIXZ 00445aa0 f i ha_federated.obj
 0001:00044ab0       ?max_supported_keys@ha_federated@@UBEIXZ 00445ab0 f i ha_federated.obj
 0001:00044ac0       ?max_supported_key_parts@ha_federated@@UBEIXZ 00445ac0 f i ha_federated.obj
 0001:00044ad0       ?max_supported_key_length@ha_federated@@UBEIXZ 00445ad0 f i ha_federated.obj
 0001:00044ae0       ?max_supported_key_part_length@ha_federated@@UBEIXZ 00445ae0 f i ha_federated.obj
 0001:00044af0       ?scan_time@ha_federated@@UAENXZ 00445af0 f i ha_federated.obj
 0001:00044b20       ?read_time@ha_federated@@UAENIIK@Z 00445b20 f i ha_federated.obj
 0001:00044b50       ?keys_to_use_for_scanning@ha_federated@@UAEPBV?$Bitmap@$0EA@@@XZ 00445b50 f i ha_federated.obj
 0001:00044b60       ?table_cache_type@ha_federated@@UAEEXZ 00445b60 f i ha_federated.obj
 0001:00044b70       ??_Gha_federated@@UAEPAXI@Z 00445b70 f i ha_federated.obj
 0001:00044b70       ??_Eha_federated@@UAEPAXI@Z 00445b70 f i ha_federated.obj
 0001:00044b80       ?convert_row_to_internal_format@ha_federated@@AAEIPAEPAPADPAUst_mysql_res@@@Z 00445b80 f   ha_federated.obj
 0001:00044d20       ?records_in_range@ha_federated@@UAEKIPAUst_key_range@@0@Z 00445d20 f   ha_federated.obj
 0001:00044d30       ?bas_ext@ha_federated@@UBEPAPBDXZ 00445d30 f   ha_federated.obj
 0001:00044d40       ?close@ha_federated@@UAEHXZ 00445d40 f   ha_federated.obj
 0001:00044d90       ?index_init@ha_federated@@UAEHI@Z 00445d90 f   ha_federated.obj
 0001:00044db0       ?read_range_next@ha_federated@@UAEHXZ 00445db0 f   ha_federated.obj
 0001:00044dd0       ?rnd_end@ha_federated@@UAEHXZ 00445dd0 f   ha_federated.obj
 0001:00044de0       ?index_end@ha_federated@@UAEHXZ 00445de0 f   ha_federated.obj
 0001:00044e20       ?read_next@ha_federated@@AAEHPAEPAUst_mysql_res@@@Z 00445e20 f   ha_federated.obj
 0001:00044e80       ?position@ha_federated@@UAEXPBE@Z 00445e80 f   ha_federated.obj
 0001:00044f00       ?rnd_pos@ha_federated@@UAEHPAE0@Z 00445f00 f   ha_federated.obj
 0001:00044fa0       ?extra@ha_federated@@UAEHW4ha_extra_function@@@Z 00445fa0 f   ha_federated.obj
 0001:000450a0       ?store_lock@ha_federated@@UAEPAPAUst_thr_lock_data@@PAVTHD@@PAPAU2@W4thr_lock_type@@@Z 004460a0 f   ha_federated.obj
 0001:00045120       ?create@ha_federated@@UAEHPBDPAUst_table@@PAUst_ha_create_information@@@Z 00446120 f   ha_federated.obj
 0001:00045170       ?stash_remote_error@ha_federated@@AAEHXZ 00446170 f   ha_federated.obj
 0001:000451f0       ?get_error_message@ha_federated@@UAEHHPAVString@@@Z 004461f0 f   ha_federated.obj
 0001:000454f0       ?create_where_from_key@ha_federated@@AAEHPAVString@@PAUst_key@@PBUst_key_range@@2H@Z 004464f0 f   ha_federated.obj
 0001:00045f10       ?open@ha_federated@@UAEHPBDHI@Z 00446f10 f   ha_federated.obj
 0001:00045fa0       ?append_stmt_insert@ha_federated@@AAEHPAVString@@@Z 00446fa0 f   ha_federated.obj
 0001:00046170       ?index_next@ha_federated@@UAEHPAE@Z 00447170 f   ha_federated.obj
 0001:000461f0       ?rnd_next@ha_federated@@UAEHPAE@Z 004471f0 f   ha_federated.obj
 0001:00046220       ?real_connect@ha_federated@@AAEHXZ 00447220 f   ha_federated.obj
 0001:00046540       ?real_query@ha_federated@@AAEHPBDI@Z 00447540 f   ha_federated.obj
 0001:00046590       ?start_bulk_insert@ha_federated@@UAEXK@Z 00447590 f   ha_federated.obj
 0001:00046600       ?optimize@ha_federated@@UAEHPAVTHD@@PAUst_ha_check_opt@@@Z 00447600 f   ha_federated.obj
 0001:00046750       ?repair@ha_federated@@UAEHPAVTHD@@PAUst_ha_check_opt@@@Z 00447750 f   ha_federated.obj
 0001:00046900       ?update_row@ha_federated@@UAEHPBEPAE@Z 00447900 f   ha_federated.obj
 0001:00046ec0       ?delete_row@ha_federated@@UAEHPBE@Z 00447ec0 f   ha_federated.obj
 0001:00047280       ?index_read_idx_with_result_set@ha_federated@@AAEHPAEIPBEIW4ha_rkey_function@@PAPAUst_mysql_res@@@Z 00448280 f   ha_federated.obj
 0001:00047aa0       ?read_range_first@ha_federated@@UAEHPBUst_key_range@@0HH@Z 00448aa0 f   ha_federated.obj
 0001:00047c60       ?rnd_init@ha_federated@@UAEHH@Z 00448c60 f   ha_federated.obj
 0001:00047d30       ?info@ha_federated@@UAEHI@Z 00448d30 f   ha_federated.obj
 0001:00048070       ?delete_all_rows@ha_federated@@UAEHXZ 00449070 f   ha_federated.obj
 0001:000481e0       ?update_auto_increment@ha_federated@@QAEXXZ 004491e0 f   ha_federated.obj
 0001:00048240       ?index_read@ha_federated@@UAEHPAEPBEIW4ha_rkey_function@@@Z 00449240 f   ha_federated.obj
 0001:000482a0       ?index_read_idx@ha_federated@@UAEHPAEIPBEIW4ha_rkey_function@@@Z 004492a0 f   ha_federated.obj
 0001:000482f0       ?write_row@ha_federated@@UAEHPAE@Z 004492f0 f   ha_federated.obj
 0001:00048850       ?end_bulk_insert@ha_federated@@UAEHXZ 00449850 f   ha_federated.obj
 0001:000488d0       ?is_empty@String@@QAEHXZ   004498d0 f i handler.obj
 0001:000488e0       ?c_ptr_safe@String@@QAEPADXZ 004498e0 f i handler.obj
 0001:00048920       ??2Sql_alloc@@SAPAXIPAUst_mem_root@@@Z 00449920 f i handler.obj
 0001:00048940       ?next_fast@base_list_iterator@@QAEPAXXZ 00449940 f i handler.obj
 0001:00048950       ?rewind@base_list_iterator@@QAEXXZ 00449950 f i handler.obj
 0001:00048960       ?set@xid_t@@QAEXJJPBD@Z    00449960 f i handler.obj
 0001:000489b0       ?is_null@xid_t@@QAEHXZ     004499b0 f i handler.obj
 0001:000489c0       ?null@xid_t@@QAEXXZ        004499c0 f i handler.obj
 0001:000489d0       ?quick_get_my_xid@xid_t@@QAE_KXZ 004499d0 f i handler.obj
 0001:000489e0       ?get_my_xid@xid_t@@QAE_KXZ 004499e0 f i handler.obj
 0001:00048a30       ?ha_index_init@handler@@QAEHI@Z 00449a30 f i handler.obj
 0001:00048a50       ?ha_index_end@handler@@QAEHXZ 00449a50 f i handler.obj
 0001:00048a70       ??0st_table_share@@QAE@XZ  00449a70 f i handler.obj
 0001:00048a80       ?cleanup@st_transactions@THD@@QAEXXZ 00449a80 f i handler.obj
 0001:00048ab0       ?ha_resolve_by_name@@YA?AW4db_type@@PBDI@Z 00449ab0 f   handler.obj
 0001:00048c00       ?ha_get_storage_engine@@YAPBDW4db_type@@@Z 00449c00 f   handler.obj
 0001:00048c40       ?ha_check_storage_engine_flag@@YAHW4db_type@@K@Z 00449c40 f   handler.obj
 0001:00048c90       ?ha_storage_engine_is_enabled@@YADW4db_type@@@Z 00449c90 f   handler.obj
 0001:00048cd0       ?ha_checktype@@YA?AW4db_type@@PAVTHD@@W41@HH@Z 00449cd0 f   handler.obj
 0001:00048d70       ?get_new_handler@@YAPAVhandler@@PAUst_table@@PAUst_mem_root@@W4db_type@@@Z 00449d70 f   handler.obj
 0001:000492d0       ?ha_init@@YAHXZ            0044a2d0 f   handler.obj
 0001:000493c0       ?ha_panic@@YAHW4ha_panic_function@@@Z 0044a3c0 f   handler.obj
 0001:00049460       ?ha_drop_database@@YAXPAD@Z 0044a460 f   handler.obj
 0001:00049480       ?ha_close_connection@@YAXPAVTHD@@@Z 0044a480 f   handler.obj
 0001:000494d0       ?ha_commit_one_phase@@YAHPAVTHD@@H@Z 0044a4d0 f   handler.obj
 0001:00049630       ?ha_rollback_trans@@YAHPAVTHD@@H@Z 0044a630 f   handler.obj
 0001:00049830       ?ha_commit_or_rollback_by_xid@@YAHPAUxid_t@@H@Z 0044a830 f   handler.obj
 0001:000498a0       ?ha_recover@@YAHPAUst_hash@@@Z 0044a8a0 f   handler.obj
 0001:00049ba0       ?ha_release_temporary_latches@@YAHPAVTHD@@@Z 0044aba0 f   handler.obj
 0001:00049bc0       ?ha_update_statistics@@YAHXZ 0044abc0 f   handler.obj
 0001:00049be0       ?ha_rollback_to_savepoint@@YAHPAVTHD@@PAUst_savepoint@@@Z 0044abe0 f   handler.obj
 0001:00049d30       ?ha_savepoint@@YAHPAVTHD@@PAUst_savepoint@@@Z 0044ad30 f   handler.obj
 0001:00049e30       ?ha_release_savepoint@@YAHPAVTHD@@PAUst_savepoint@@@Z 0044ae30 f   handler.obj
 0001:00049ee0       ?ha_start_consistent_snapshot@@YAHPAVTHD@@@Z 0044aee0 f   handler.obj
 0001:00049f30       ?ha_flush_logs@@YAHXZ      0044af30 f   handler.obj
 0001:00049f60       ?ha_open@handler@@QAEHPBDHH@Z 0044af60 f   handler.obj
 0001:0004a080       ?read_first_row@handler@@UAEHPAEI@Z 0044b080 f   handler.obj
 0001:0004a180       ?next_insert_id@@YA_K_KPAUsystem_variables@@@Z 0044b180 f i handler.obj
 0001:0004a1e0       ?adjust_next_insert_id_after_explicit_value@handler@@QAEX_K@Z 0044b1e0 f   handler.obj
 0001:0004a270       ?prev_insert_id@@YA_K_KPAUsystem_variables@@@Z 0044b270 f i handler.obj
 0001:0004a2e0       ?update_auto_increment@handler@@QAEHXZ 0044b2e0 f   handler.obj
 0001:0004a550       ?restore_auto_increment@handler@@UAEXXZ 0044b550 f   handler.obj
 0001:0004a5a0       ?get_auto_increment@handler@@UAE_KXZ 0044b5a0 f   handler.obj
 0001:0004a6e0       ?get_error_message@handler@@UAEHHPAVString@@@Z 0044b6e0 f   handler.obj
 0001:0004a6f0       ?ha_check_for_upgrade@handler@@QAEHPAUst_ha_check_opt@@@Z 0044b6f0 f   handler.obj
 0001:0004a7d0       ?check_old_types@handler@@QAEHXZ 0044b7d0 f   handler.obj
 0001:0004aa20       ?get_dup_key@handler@@QAEIH@Z 0044ba20 f   handler.obj
 0001:0004aa80       ?delete_table@handler@@UAEHPBD@Z 0044ba80 f   handler.obj
 0001:0004ab50       ?rename_table@handler@@UAEHPBD0@Z 0044bb50 f   handler.obj
 0001:0004abc0       ?ha_check@handler@@QAEHPAVTHD@@PAUst_ha_check_opt@@@Z 0044bbc0 f   handler.obj
 0001:0004ac60       ?ha_repair@handler@@QAEHPAVTHD@@PAUst_ha_check_opt@@@Z 0044bc60 f   handler.obj
 0001:0004aca0       ?index_next_same@handler@@UAEHPAEPBEI@Z 0044bca0 f   handler.obj
 0001:0004ad10       ?init@st_ha_check_opt@@QAEXXZ 0044bd10 f   handler.obj
 0001:0004ad40       ?ha_init_key_cache@@YAHPBDPAUst_key_cache@@@Z 0044bd40 f   handler.obj
 0001:0004adc0       ?ha_resize_key_cache@@YAHPAUst_key_cache@@@Z 0044bdc0 f   handler.obj
 0001:0004ae40       ?ha_change_key_cache_param@@YAHPAUst_key_cache@@@Z 0044be40 f   handler.obj
 0001:0004ae90       ?ha_end_key_cache@@YAHPAUst_key_cache@@@Z 0044be90 f   handler.obj
 0001:0004aeb0       ?ha_change_key_cache@@YAHPAUst_key_cache@@0@Z 0044beb0 f   handler.obj
 0001:0004aed0       ?ha_discover@@YAHPAVTHD@@PBD1PAPBXPAI@Z 0044bed0 f   handler.obj
 0001:0004aef0       ?ha_find_files@@YAHPAVTHD@@PBD11HPAV?$List@D@@@Z 0044bef0 f   handler.obj
 0001:0004af00       ?ha_table_exists_in_engine@@YAHPAVTHD@@PBD1@Z 0044bf00 f   handler.obj
 0001:0004af10       ?read_multi_range_first@handler@@UAEHPAPAUst_key_multi_range@@PAU2@IHPAUst_handler_buffer@@@Z 0044bf10 f   handler.obj
 0001:0004afc0       ?read_multi_range_next@handler@@UAEHPAPAUst_key_multi_range@@@Z 0044bfc0 f   handler.obj
 0001:0004b090       ?compare_key@handler@@QAEHPAUst_key_range@@@Z 0044c090 f   handler.obj
 0001:0004b0d0       ?index_read_idx@handler@@UAEHPAEIPBEIW4ha_rkey_function@@@Z 0044c0d0 f   handler.obj
 0001:0004b130       ??1?$List@D@@QAE@XZ        0044c130 f i handler.obj
 0001:0004b140       ??0?$List@D@@QAE@XZ        0044c140 f i handler.obj
 0001:0004b160       ?push_back@?$List@D@@QAEHPAD@Z 0044c160 f i handler.obj
 0001:0004b1c0       ??E?$List_iterator_fast@D@@QAEPADH@Z 0044c1c0 f i handler.obj
 0001:0004b1e0       ?rewind@?$List_iterator_fast@D@@QAEXXZ 0044c1e0 f i handler.obj
 0001:0004b1f0       ?set@xid_t@@QAEX_K@Z       0044c1f0 f i handler.obj
 0001:0004b250       ??0st_table@@QAE@XZ        0044c250 f i handler.obj
 0001:0004b260       ??0Item_num@@QAE@XZ        0044c260 f i handler.obj
 0001:0004b280       ??1Item_num@@UAE@XZ        0044c280 f i handler.obj
 0001:0004b2c0       ??0Item_int@@QAE@PBD_JI@Z  0044c2c0 f i handler.obj
 0001:0004b310       ?type@Item_int@@UBE?AW4Type@Item@@XZ 0044c310 f i handler.obj
 0001:0004b320       ?result_type@Item_int@@UBE?AW4Item_result@@XZ 0044c320 f i handler.obj
 0001:0004b330       ?field_type@Item_int@@UBE?AW4enum_field_types@@XZ 0044c330 f i handler.obj
 0001:0004b340       ?val_int@Item_int@@UAE_JXZ 0044c340 f i handler.obj
 0001:0004b350       ?val_real@Item_int@@UAENXZ 0044c350 f i handler.obj
 0001:0004b360       ?basic_const_item@Item_int@@UBEHXZ 0044c360 f i handler.obj
 0001:0004b370       ?cleanup@Item_int@@UAEXXZ  0044c370 f i handler.obj
 0001:0004b380       ?neg@Item_int@@UAEPAVItem_num@@XZ 0044c380 f i handler.obj
 0001:0004b3a0       ?decimal_precision@Item_int@@UBEIXZ 0044c3a0 f i handler.obj
 0001:0004b3d0       ?clone_item@Item_int@@UAEPAVItem@@XZ 0044c3d0 f i handler.obj
 0001:0004b450       ?trans_register_ha@@YAXPAVTHD@@HPAUhandlerton@@@Z 0044c450 f   handler.obj
 0001:0004b570       ?ha_prepare@@YAHPAVTHD@@@Z 0044c570 f   handler.obj
 0001:0004b630       ?ha_commit_trans@@YAHPAVTHD@@H@Z 0044c630 f   handler.obj
 0001:0004b8f0       ?ha_autocommit_or_rollback@@YAHPAVTHD@@H@Z 0044c8f0 f   handler.obj
 0001:0004b990       ?mysql_xa_recover@@YAHPAVTHD@@@Z 0044c990 f   handler.obj
 0001:0004bd60       ?ha_delete_table@@YAHPAVTHD@@W4db_type@@PBD2H@Z 0044cd60 f   handler.obj
 0001:0004bff0       ?clone@handler@@UAEPAV1@PAUst_mem_root@@@Z 0044cff0 f   handler.obj
 0001:0004c060       ?print_error@handler@@UAEXHH@Z 0044d060 f   handler.obj
 0001:0004c660       ?ha_enable_transaction@@YAHPAVTHD@@H@Z 0044d660 f   handler.obj
 0001:0004c6a0       ?ha_create_table@@YAHPBDPAUst_ha_create_information@@H@Z 0044d6a0 f   handler.obj
 0001:0004c810       ?ha_create_table_from_engine@@YAHPAVTHD@@PBD1@Z 0044d810 f   handler.obj
 0001:0004c870       ?read_range_first@handler@@UAEHPBUst_key_range@@0HH@Z 0044d870 f   handler.obj
 0001:0004c9a0       ?read_range_next@handler@@UAEHXZ 0044d9a0 f   handler.obj
 0001:0004ca50       ??0?$List_iterator_fast@D@@QAE@AAV?$List@D@@@Z 0044da50 f i handler.obj
 0001:0004ca70       ??_GItem_num@@UAEPAXI@Z    0044da70 f i handler.obj
 0001:0004ca70       ??_EItem_num@@UAEPAXI@Z    0044da70 f i handler.obj
 0001:0004cab0       ??_GItem_int@@UAEPAXI@Z    0044dab0 f i handler.obj
 0001:0004cab0       ??_EItem_int@@UAEPAXI@Z    0044dab0 f i handler.obj
 0001:0004cad0       ?ha_known_exts@@YAPAUst_typelib@@XZ 0044dad0 f   handler.obj
 0001:0004cd90       ??0hash_filo_element@@QAE@XZ 0044dd90 f i hostname.obj
 0001:0004cda0       ??0hash_filo@@QAE@IIIP6APAEPBEPAID@ZP6AXPAX@ZPAUcharset_info_st@@@Z 0044dda0 f i hostname.obj
 0001:0004ce00       ??1hash_filo@@QAE@XZ       0044de00 f i hostname.obj
 0001:0004ce40       ?clear@hash_filo@@QAEXH@Z  0044de40 f i hostname.obj
 0001:0004cee0       ?search@hash_filo@@QAEPAVhash_filo_element@@PADI@Z 0044dee0 f i hostname.obj
 0001:0004cf50       ?add@hash_filo@@QAEDPAVhash_filo_element@@@Z 0044df50 f i hostname.obj
 0001:0004cfe0       ?hostname_cache_refresh@@YAXXZ 0044dfe0 f   hostname.obj
 0001:0004d070       ??0host_entry@@QAE@XZ      0044e070 f i hostname.obj
 0001:0004d080       ??_Ghash_filo@@QAEPAXI@Z   0044e080 f i hostname.obj
 0001:0004d1b0       ?add_wrong_ip@@YAXPAUin_addr@@@Z 0044e1b0 f i hostname.obj
 0001:0004d1c0       ?inc_host_errors@@YAXPAUin_addr@@@Z 0044e1c0 f   hostname.obj
 0001:0004d250       ?reset_host_errors@@YAXPAUin_addr@@@Z 0044e250 f   hostname.obj
 0001:0004d2f0       ?ip_to_hostname@@YAPADPAUin_addr@@PAI@Z 0044e2f0 f   hostname.obj
 0001:0004d520       ?hostname_cache_init@@YAHXZ 0044e520 f   hostname.obj
 0001:0004d650       ?hostname_cache_free@@YAXXZ 0044e650 f   hostname.obj
 0001:0004d6c0       ?unireg_init@@YAXK@Z       0044e6c0 f   init.obj
 0001:0004d750       ??0String@@QAE@ABV0@@Z     0044e750 f i item.obj
 0001:0004d780       ?mark_as_const@String@@QAEXXZ 0044e780 f i item.obj
 0001:0004d7b0       ?push_front@base_list@@QAEHPAX@Z 0044e7b0 f i item.obj
 0001:0004d800       ?head@base_list@@QAEPAXXZ  0044e800 f i item.obj
 0001:0004d810       ?my_decimal_int_part@@YAHII@Z 0044e810 f i item.obj
 0001:0004d830       ?precision@my_decimal@@QBEIXZ 0044e830 f i item.obj
 0001:0004d840       ?my_decimal2decimal@@YAXPBVmy_decimal@@PAV1@@Z 0044e840 f i item.obj
 0001:0004d870       ?my_decimal_is_zero@@YAHPBVmy_decimal@@@Z 0044e870 f i item.obj
 0001:0004d880       ?my_decimal_round@@YAHIPBVmy_decimal@@HHPAV1@@Z 0044e880 f i item.obj
 0001:0004d8d0       ?str2my_decimal@@YAHIPBDPAVmy_decimal@@PAPAD@Z 0044e8d0 f i item.obj
 0001:0004d940       ?string2my_decimal@@YAHIPBVString@@PAVmy_decimal@@@Z 0044e940 f i item.obj
 0001:0004d970       ?my_decimal_add@@YAHIPAVmy_decimal@@PBV1@1@Z 0044e970 f i item.obj
 0001:0004d9e0       ?my_decimal_div@@YAHIPAVmy_decimal@@PBV1@1H@Z 0044e9e0 f i item.obj
 0001:0004da60       ?my_decimal_cmp@@YAHPBVmy_decimal@@0@Z 0044ea60 f i item.obj
 0001:0004da70       ?top_table@TABLE_LIST@@QAEPAU1@XZ 0044ea70 f i item.obj
 0001:0004da80       ??0Field_date@@QAE@HPBDPAUst_table@@PAUcharset_info_st@@@Z 0044ea80 f i item.obj
 0001:0004dad0       ??0Field_time@@QAE@HPBDPAUst_table@@PAUcharset_info_st@@@Z 0044ead0 f i item.obj
 0001:0004db20       ??0Field_datetime@@QAE@HPBDPAUst_table@@PAUcharset_info_st@@@Z 0044eb20 f i item.obj
 0001:0004db70       ?set_repertoire_from_charset@DTCollation@@QAEXPAUcharset_info_st@@@Z 0044eb70 f i item.obj
 0001:0004db90       ??0DTCollation@@QAE@PAUcharset_info_st@@W4Derivation@@@Z 0044eb90 f i item.obj
 0001:0004dbc0       ?set@DTCollation@@QAEXAAV1@@Z 0044ebc0 f i item.obj
 0001:0004dbe0       ?set@DTCollation@@QAEXPAUcharset_info_st@@W4Derivation@@@Z 0044ebe0 f i item.obj
 0001:0004dc10       ?set@DTCollation@@QAEXPAUcharset_info_st@@@Z 0044ec10 f i item.obj
 0001:0004dc30       ?set@DTCollation@@QAEXW4Derivation@@@Z 0044ec30 f i item.obj
 0001:0004dc40       ?derivation_name@DTCollation@@QBEPBDXZ 0044ec40 f i item.obj
 0001:0004dcb0       ??0Hybrid_type_traits@@QAE@XZ 0044ecb0 f i item.obj
 0001:0004dcc0       ?type@Hybrid_type_traits@@UBE?AW4Item_result@@XZ 0044ecc0 f i item.obj
 0001:0004dcd0       ?set_zero@Hybrid_type_traits@@UBEXPAUHybrid_type@@@Z 0044ecd0 f i item.obj
 0001:0004dcf0       ?add@Hybrid_type_traits@@UBEXPAUHybrid_type@@PAVField@@@Z 0044ecf0 f i item.obj
 0001:0004dd10       ?div@Hybrid_type_traits@@UBEXPAUHybrid_type@@_K@Z 0044ed10 f i item.obj
 0001:0004dd70       ?val_int@Hybrid_type_traits@@UBE_JPAUHybrid_type@@H@Z 0044ed70 f i item.obj
 0001:0004dde0       ?val_real@Hybrid_type_traits@@UBENPAUHybrid_type@@@Z 0044ede0 f i item.obj
 0001:0004ddf0       ??1Hybrid_type_traits@@UAE@XZ 0044edf0 f i item.obj
 0001:0004de00       ??_EHybrid_type_traits@@UAEPAXI@Z 0044ee00 f i item.obj
 0001:0004de00       ??_GHybrid_type_traits@@UAEPAXI@Z 0044ee00 f i item.obj
 0001:0004de30       ??0Hybrid_type_traits_decimal@@QAE@XZ 0044ee30 f i item.obj
 0001:0004de40       ?type@Hybrid_type_traits_decimal@@UBE?AW4Item_result@@XZ 0044ee40 f i item.obj
 0001:0004de50       ?val_decimal@Hybrid_type_traits_decimal@@UBEPAVmy_decimal@@PAUHybrid_type@@PAV2@@Z 0044ee50 f i item.obj
 0001:0004de70       ??1Hybrid_type_traits_decimal@@UAE@XZ 0044ee70 f i item.obj
 0001:0004de80       ??0Hybrid_type_traits_integer@@QAE@XZ 0044ee80 f i item.obj
 0001:0004de90       ?type@Hybrid_type_traits_integer@@UBE?AW4Item_result@@XZ 0044ee90 f i item.obj
 0001:0004dea0       ?set_zero@Hybrid_type_traits_integer@@UBEXPAUHybrid_type@@@Z 0044eea0 f i item.obj
 0001:0004dec0       ?add@Hybrid_type_traits_integer@@UBEXPAUHybrid_type@@PAVField@@@Z 0044eec0 f i item.obj
 0001:0004def0       ?div@Hybrid_type_traits_integer@@UBEXPAUHybrid_type@@_K@Z 0044eef0 f i item.obj
 0001:0004df20       ?val_int@Hybrid_type_traits_integer@@UBE_JPAUHybrid_type@@H@Z 0044ef20 f i item.obj
 0001:0004df30       ?val_real@Hybrid_type_traits_integer@@UBENPAUHybrid_type@@@Z 0044ef30 f i item.obj
 0001:0004df40       ?val_decimal@Hybrid_type_traits_integer@@UBEPAVmy_decimal@@PAUHybrid_type@@PAV2@@Z 0044ef40 f i item.obj
 0001:0004df80       ?val_str@Hybrid_type_traits_integer@@UBEPAVString@@PAUHybrid_type@@PAV2@E@Z 0044ef80 f i item.obj
 0001:0004dfb0       ??1Hybrid_type_traits_integer@@UAE@XZ 0044efb0 f i item.obj
 0001:0004dfc0       ?process_error@Name_resolution_context@@QAEXPAVTHD@@@Z 0044efc0 f i item.obj
 0001:0004dfe0       ??0Settable_routine_parameter@@QAE@XZ 0044efe0 f i item.obj
 0001:0004dff0       ??1Settable_routine_parameter@@UAE@XZ 0044eff0 f i item.obj
 0001:0004e000       ?set_required_privilege@Settable_routine_parameter@@UAEXH@Z 0044f000 f i item.obj
 0001:0004e010       ??_GSettable_routine_parameter@@UAEPAXI@Z 0044f010 f i item.obj
 0001:0004e010       ??_ESettable_routine_parameter@@UAEPAXI@Z 0044f010 f i item.obj
 0001:0004e040       ?float_length@Item@@QBEII@Z 0044f040 f i item.obj
 0001:0004e060       ?decimal_int_part@Item@@QBEHXZ 0044f060 f i item.obj
 0001:0004e080       ?get_var_idx@Item_splocal@@QBEIXZ 0044f080 f i item.obj
 0001:0004e090       ?max_disp_length@Item_field@@QAEKXZ 0044f090 f i item.obj
 0001:0004e0a0       ?get_geometry_type@Item_field@@QAE?AW4geometry_type@Field@@XZ 0044f0a0 f i item.obj
 0001:0004e0b0       ?depended_from@Item_sum@@QAEPAVst_select_lex@@XZ 0044f0b0 f i item.obj
 0001:0004e0d0       ?get_const@Item_equal@@QAEPAVItem@@XZ 0044f0d0 f i item.obj
 0001:0004e0e0       ?get_geometry_type@Item_type_holder@@QAE?AW4geometry_type@Field@@XZ 0044f0e0 f i item.obj
 0001:0004e0f0       ?first_select@st_select_lex_unit@@QAEPAVst_select_lex@@XZ 0044f0f0 f i item.obj
 0001:0004e100       ??0Query_arena@@QAE@XZ     0044f100 f i item.obj
 0001:0004e110       ??1Query_arena@@UAE@XZ     0044f110 f i item.obj
 0001:0004e120       ?is_stmt_prepare@Query_arena@@QBEHXZ 0044f120 f i item.obj
 0001:0004e130       ?is_stmt_prepare_or_first_sp_execute@Query_arena@@QBEHXZ 0044f130 f i item.obj
 0001:0004e140       ?is_conventional@Query_arena@@QBEHXZ 0044f140 f i item.obj
 0001:0004e150       ?strdup@Query_arena@@QAEPADPBD@Z 0044f150 f i item.obj
 0001:0004e170       ??_GQuery_arena@@UAEPAXI@Z 0044f170 f i item.obj
 0001:0004e170       ??_EQuery_arena@@UAEPAXI@Z 0044f170 f i item.obj
 0001:0004e1a0       ?activate_stmt_arena_if_needed@THD@@QAEPAVQuery_arena@@PAV2@@Z 0044f1a0 f i item.obj
 0001:0004e1f0       ?change_item_tree@THD@@QAEXPAPAVItem@@PAV2@@Z 0044f1f0 f i item.obj
 0001:0004e240       ?fix_length_and_dec@Hybrid_type_traits@@UBEXPAVItem@@0@Z 0044f240 f   item.obj
 0001:0004e260       ?instance@Hybrid_type_traits@@SAPBU1@XZ 0044f260 f   item.obj
 0001:0004e270       ?val_decimal@Hybrid_type_traits@@UBEPAVmy_decimal@@PAUHybrid_type@@PAV2@@Z 0044f270 f   item.obj
 0001:0004e2a0       ?val_str@Hybrid_type_traits@@UBEPAVString@@PAUHybrid_type@@PAV2@E@Z 0044f2a0 f   item.obj
 0001:0004e2e0       ?instance@Hybrid_type_traits_decimal@@SAPBU1@XZ 0044f2e0 f   item.obj
 0001:0004e2f0       ?fix_length_and_dec@Hybrid_type_traits_decimal@@UBEXPAVItem@@0@Z 0044f2f0 f   item.obj
 0001:0004e320       ?set_zero@Hybrid_type_traits_decimal@@UBEXPAUHybrid_type@@@Z 0044f320 f   item.obj
 0001:0004e350       ?add@Hybrid_type_traits_decimal@@UBEXPAUHybrid_type@@PAVField@@@Z 0044f350 f   item.obj
 0001:0004e3c0       ?div@Hybrid_type_traits_decimal@@UBEXPAUHybrid_type@@_K@Z 0044f3c0 f   item.obj
 0001:0004e450       ?val_int@Hybrid_type_traits_decimal@@UBE_JPAUHybrid_type@@H@Z 0044f450 f   item.obj
 0001:0004e490       ?val_real@Hybrid_type_traits_decimal@@UBENPAUHybrid_type@@@Z 0044f490 f   item.obj
 0001:0004e4c0       ?val_str@Hybrid_type_traits_decimal@@UBEPAVString@@PAUHybrid_type@@PAV2@E@Z 0044f4c0 f   item.obj
 0001:0004e530       ?instance@Hybrid_type_traits_integer@@SAPBU1@XZ 0044f530 f   item.obj
 0001:0004e540       ?fix_length_and_dec@Hybrid_type_traits_integer@@UBEXPAVItem@@0@Z 0044f540 f   item.obj
 0001:0004e560       ?item_init@@YAXXZ          0044f560 f   item.obj
 0001:0004e570       ?val_bool@Item@@UAEHXZ     0044f570 f   item.obj
 0001:0004e630       ?val_string_from_real@Item@@QAEPAVString@@PAV2@@Z 0044f630 f   item.obj
 0001:0004e680       ?val_string_from_int@Item@@QAEPAVString@@PAV2@@Z 0044f680 f   item.obj
 0001:0004e6d0       ?val_string_from_decimal@Item@@QAEPAVString@@PAV2@@Z 0044f6d0 f   item.obj
 0001:0004e770       ?val_decimal_from_real@Item@@QAEPAVmy_decimal@@PAV2@@Z 0044f770 f   item.obj
 0001:0004e7b0       ?val_decimal_from_int@Item@@QAEPAVmy_decimal@@PAV2@@Z 0044f7b0 f   item.obj
 0001:0004e810       ?val_decimal_from_string@Item@@QAEPAVmy_decimal@@PAV2@@Z 0044f810 f   item.obj
 0001:0004e8c0       ?val_decimal_from_date@Item@@QAEPAVmy_decimal@@PAV2@@Z 0044f8c0 f   item.obj
 0001:0004e920       ?val_decimal_from_time@Item@@QAEPAVmy_decimal@@PAV2@@Z 0044f920 f   item.obj
 0001:0004e980       ?val_real_from_decimal@Item@@QAENXZ 0044f980 f   item.obj
 0001:0004e9e0       ?val_int_from_decimal@Item@@QAE_JXZ 0044f9e0 f   item.obj
 0001:0004ea50       ?save_time_in_field@Item@@QAEHPAVField@@@Z 0044fa50 f   item.obj
 0001:0004eac0       ?save_date_in_field@Item@@QAEHPAVField@@@Z 0044fac0 f   item.obj
 0001:0004eb30       ?save_str_value_in_field@Item@@QAEHPAVField@@PAVString@@@Z 0044fb30 f   item.obj
 0001:0004eb90       ?decimal_precision@Item@@UBEIXZ 0044fb90 f   item.obj
 0001:0004ebf0       ?print_item_w_name@Item@@QAEXPAVString@@@Z 0044fbf0 f   item.obj
 0001:0004ec70       ?cleanup@Item@@UAEXXZ      0044fc70 f   item.obj
 0001:0004ec90       ?cleanup_processor@Item@@UAEHPAE@Z 0044fc90 f   item.obj
 0001:0004ecb0       ?rename@Item@@QAEXPAD@Z    0044fcb0 f   item.obj
 0001:0004ece0       ?transform@Item@@UAEPAV1@P81@AEPAV1@PAE@Z0@Z 0044fce0 f   item.obj
 0001:0004ecf0       ?cleanup@Item_ident@@UAEXXZ 0044fcf0 f   item.obj
 0001:0004ed30       ?remove_dependence_processor@Item_ident@@UAEHPAE@Z 0044fd30 f   item.obj
 0001:0004ed50       ?find_item_in_field_list_processor@Item_field@@UAEHPAE@Z 0044fd50 f   item.obj
 0001:0004eda0       ?check_cols@Item@@UAEHI@Z  0044fda0 f   item.obj
 0001:0004edd0       ?set_name@Item@@QAEXPBDIPAUcharset_info_st@@@Z 0044fdd0 f   item.obj
 0001:0004ef40       ?eq@Item@@UBEHPBV1@H@Z     0044ff40 f   item.obj
 0001:0004efb0       ?safe_charset_converter@Item_param@@UAEPAVItem@@PAUcharset_info_st@@@Z 0044ffb0 f   item.obj
 0001:0004f060       ?eq@Item_string@@UBEHPBVItem@@H@Z 00450060 f   item.obj
 0001:0004f100       ?default_charset@Item@@SAPAUcharset_info_st@@XZ 00450100 f   item.obj
 0001:0004f130       ?save_in_field_no_warnings@Item@@QAEHPAVField@@H@Z 00450130 f   item.obj
 0001:0004f180       ?fix_fields@Item_sp_variable@@UAEHPAVTHD@@PAPAVItem@@@Z 00450180 f   item.obj
 0001:0004f1e0       ?val_real@Item_sp_variable@@UAENXZ 004501e0 f   item.obj
 0001:0004f210       ?val_int@Item_sp_variable@@UAE_JXZ 00450210 f   item.obj
 0001:0004f240       ?val_decimal@Item_sp_variable@@UAEPAVmy_decimal@@PAV2@@Z 00450240 f   item.obj
 0001:0004f270       ?is_null@Item_sp_variable@@UAEHXZ 00450270 f   item.obj
 0001:0004f290       ?this_item@Item_splocal@@UAEPAVItem@@XZ 00450290 f   item.obj
 0001:0004f2b0       ?this_item@Item_splocal@@UBEPBVItem@@XZ 004502b0 f   item.obj
 0001:0004f2d0       ?this_item_addr@Item_splocal@@UAEPAPAVItem@@PAVTHD@@PAPAV2@@Z 004502d0 f   item.obj
 0001:0004f2f0       ?print@Item_splocal@@UAEXPAVString@@@Z 004502f0 f   item.obj
 0001:0004f370       ?set_value@Item_splocal@@EAEHPAVTHD@@PAVsp_rcontext@@PAPAVItem@@@Z 00450370 f   item.obj
 0001:0004f390       ?this_item@Item_case_expr@@UAEPAVItem@@XZ 00450390 f   item.obj
 0001:0004f3b0       ?this_item@Item_case_expr@@UBEPBVItem@@XZ 004503b0 f   item.obj
 0001:0004f3d0       ?this_item_addr@Item_case_expr@@UAEPAPAVItem@@PAVTHD@@PAPAV2@@Z 004503d0 f   item.obj
 0001:0004f3f0       ?print@Item_case_expr@@UAEXPAVString@@@Z 004503f0 f   item.obj
 0001:0004f420       ?val_real@Item_name_const@@UAENXZ 00450420 f   item.obj
 0001:0004f440       ?val_int@Item_name_const@@UAE_JXZ 00450440 f   item.obj
 0001:0004f460       ?val_str@Item_name_const@@UAEPAVString@@PAV2@@Z 00450460 f   item.obj
 0001:0004f490       ?val_decimal@Item_name_const@@UAEPAVmy_decimal@@PAV2@@Z 00450490 f   item.obj
 0001:0004f4c0       ?is_null@Item_name_const@@UAEHXZ 004504c0 f   item.obj
 0001:0004f4d0       ?type@Item_name_const@@UBE?AW4Type@Item@@XZ 004504d0 f   item.obj
 0001:0004f4e0       ?print@Item_name_const@@UAEXPAVString@@@Z 004504e0 f   item.obj
 0001:0004f600       ?aggregate@DTCollation@@QAEHAAV1@I@Z 00450600 f   item.obj
 0001:0004f9a0       ?agg_item_collations@@YAHAAVDTCollation@@PBDPAPAVItem@@IIH@Z 004509a0 f   item.obj
 0001:0004fa50       ?agg_item_collations_for_comparison@@YAHAAVDTCollation@@PBDPAPAVItem@@II@Z 00450a50 f   item.obj
 0001:0004fa80       ?make_field@Item_ident_for_show@@UAEXPAVSend_field@@@Z 00450a80 f   item.obj
 0001:0004fb10       ?set_field@Item_field@@IAEXPAVField@@@Z 00450b10 f   item.obj
 0001:0004fc20       ?reset_field@Item_field@@QAEXPAVField@@@Z 00450c20 f   item.obj
 0001:0004fc40       ?full_name@Item_ident@@UBEPBDXZ 00450c40 f   item.obj
 0001:0004fd70       ?print@Item_ident@@UAEXPAVString@@@Z 00450d70 f   item.obj
 0001:00050050       ?val_str@Item_field@@UAEPAVString@@PAV2@@Z 00451050 f   item.obj
 0001:000500b0       ?val_real@Item_field@@UAENXZ 004510b0 f   item.obj
 0001:00050100       ?val_int@Item_field@@UAE_JXZ 00451100 f   item.obj
 0001:00050150       ?val_decimal@Item_field@@UAEPAVmy_decimal@@PAV2@@Z 00451150 f   item.obj
 0001:000501a0       ?str_result@Item_field@@UAEPAVString@@PAV2@@Z 004511a0 f   item.obj
 0001:00050200       ?get_date@Item_field@@UAEHPAUst_mysql_time@@I@Z 00451200 f   item.obj
 0001:00050290       ?get_date_result@Item_field@@UAEHPAUst_mysql_time@@I@Z 00451290 f   item.obj
 0001:00050320       ?get_time@Item_field@@UAEHPAUst_mysql_time@@@Z 00451320 f   item.obj
 0001:000503a0       ?val_result@Item_field@@UAENXZ 004513a0 f   item.obj
 0001:000503f0       ?val_int_result@Item_field@@UAE_JXZ 004513f0 f   item.obj
 0001:00050440       ?val_decimal_result@Item_field@@UAEPAVmy_decimal@@PAV2@@Z 00451440 f   item.obj
 0001:00050490       ?val_bool_result@Item_field@@UAEHXZ 00451490 f   item.obj
 0001:00050580       ?eq@Item_field@@UBEHPBVItem@@H@Z 00451580 f   item.obj
 0001:00050690       ?used_tables@Item_field@@UBE_KXZ 00451690 f   item.obj
 0001:000506d0       ?val_decimal@Item_int@@UAEPAVmy_decimal@@PAV2@@Z 004516d0 f   item.obj
 0001:00050720       ?val_str@Item_int@@UAEPAVString@@PAV2@@Z 00451720 f   item.obj
 0001:00050750       ?print@Item_int@@UAEXPAVString@@@Z 00451750 f   item.obj
 0001:00050780       ?val_str@Item_uint@@UAEPAVString@@PAV2@@Z 00451780 f   item.obj
 0001:000507b0       ?print@Item_uint@@UAEXPAVString@@@Z 004517b0 f   item.obj
 0001:00050800       ?val_int@Item_decimal@@UAE_JXZ 00451800 f   item.obj
 0001:00050830       ?val_real@Item_decimal@@UAENXZ 00451830 f   item.obj
 0001:00050850       ?val_str@Item_decimal@@UAEPAVString@@PAV2@@Z 00451850 f   item.obj
 0001:00050880       ?print@Item_decimal@@UAEXPAVString@@@Z 00451880 f   item.obj
 0001:000508b0       ?eq@Item_decimal@@UBEHPBVItem@@H@Z 004518b0 f   item.obj
 0001:00050920       ?set_decimal_value@Item_decimal@@QAEXPAVmy_decimal@@@Z 00451920 f   item.obj
 0001:00050990       ?val_str@Item_float@@UAEPAVString@@PAV2@@Z 00451990 f   item.obj
 0001:000509c0       ?val_decimal@Item_float@@UAEPAVmy_decimal@@PAV2@@Z 004519c0 f   item.obj
 0001:000509f0       ?print@Item_string@@UAEXPAVString@@@Z 004519f0 f   item.obj
 0001:00050ad0       ?val_real@Item_string@@UAENXZ 00451ad0 f   item.obj
 0001:00050ba0       ?val_int@Item_string@@UAE_JXZ 00451ba0 f   item.obj
 0001:00050c70       ?val_decimal@Item_string@@UAEPAVmy_decimal@@PAV2@@Z 00451c70 f   item.obj
 0001:00050c80       ?eq@Item_null@@UBEHPBVItem@@H@Z 00451c80 f   item.obj
 0001:00050cb0       ?val_real@Item_null@@UAENXZ 00451cb0 f   item.obj
 0001:00050cc0       ?val_int@Item_null@@UAE_JXZ 00451cc0 f   item.obj
 0001:00050cd0       ?val_str@Item_null@@UAEPAVString@@PAV2@@Z 00451cd0 f   item.obj
 0001:00050ce0       ?val_decimal@Item_null@@UAEPAVmy_decimal@@PAV2@@Z 00451ce0 f   item.obj
 0001:00050cf0       ?safe_charset_converter@Item_null@@UAEPAVItem@@PAUcharset_info_st@@@Z 00451cf0 f   item.obj
 0001:00050d20       ?set_null@Item_param@@QAEXXZ 00451d20 f   item.obj
 0001:00050d50       ?set_int@Item_param@@QAEX_JK@Z 00451d50 f   item.obj
 0001:00050d90       ?set_double@Item_param@@QAEXN@Z 00451d90 f   item.obj
 0001:00050dc0       ?set_decimal@Item_param@@QAEXPBDK@Z 00451dc0 f   item.obj
 0001:00050e50       ?set_time@Item_param@@QAEXPAUst_mysql_time@@W4enum_mysql_timestamp_type@@K@Z 00451e50 f   item.obj
 0001:00050f60       ?set_str@Item_param@@QAEHPBDK@Z 00451f60 f   item.obj
 0001:00050fc0       ?set_longdata@Item_param@@QAEHPBDK@Z 00451fc0 f   item.obj
 0001:00051010       ?set_from_user_var@Item_param@@QAEHPAVTHD@@PBVuser_var_entry@@@Z 00452010 f   item.obj
 0001:000511f0       ?reset@Item_param@@QAEXXZ  004521f0 f   item.obj
 0001:00051280       ?save_in_field@Item_param@@UAEHPAVField@@H@Z 00452280 f   item.obj
 0001:000513a0       ?val_real@Item_param@@UAENXZ 004523a0 f   item.obj
 0001:00051480       ?val_int@Item_param@@UAE_JXZ 00452480 f   item.obj
 0001:00051580       ?val_decimal@Item_param@@UAEPAVmy_decimal@@PAV2@@Z 00452580 f   item.obj
 0001:000516a0       ?val_str@Item_param@@UAEPAVString@@PAV2@@Z 004526a0 f   item.obj
 0001:000517e0       ?query_val_str@Item_param@@QBEPBVString@@PAV2@@Z 004527e0 f   item.obj
 0001:00051940       ?basic_const_item@Item_param@@UBEHXZ 00452940 f   item.obj
 0001:00051960       ?eq@Item_param@@UBEHPBVItem@@H@Z 00452960 f   item.obj
 0001:00051aa0       ?copy@Item_copy_string@@QAEXXZ 00452aa0 f   item.obj
 0001:00051ae0       ?val_str@Item_copy_string@@UAEPAVString@@PAV2@@Z 00452ae0 f   item.obj
 0001:00051b00       ?val_decimal@Item_copy_string@@UAEPAVmy_decimal@@PAV2@@Z 00452b00 f   item.obj
 0001:00051b40       ?fix_fields@Item@@UAEHPAVTHD@@PAPAV1@@Z 00452b40 f   item.obj
 0001:00051b50       ?val_real@Item_ref_null_helper@@UAENXZ 00452b50 f   item.obj
 0001:00051b90       ?val_int@Item_ref_null_helper@@UAE_JXZ 00452b90 f   item.obj
 0001:00051bd0       ?val_decimal@Item_ref_null_helper@@UAEPAVmy_decimal@@PAV2@@Z 00452bd0 f   item.obj
 0001:00051c20       ?val_bool@Item_ref_null_helper@@UAEHXZ 00452c20 f   item.obj
 0001:00051c60       ?val_str@Item_ref_null_helper@@UAEPAVString@@PAV2@@Z 00452c60 f   item.obj
 0001:00051cb0       ?get_date@Item_ref_null_helper@@UAEHPAUst_mysql_time@@I@Z 00452cb0 f   item.obj
 0001:00051e20       ?mark_select_range_as_dependent@@YAXPAVTHD@@PAVst_select_lex@@1PAVField@@PAVItem@@PAVItem_ident@@@Z 00452e20 f   item.obj
 0001:000523b0       ?cleanup@Item_field@@UAEXXZ 004533b0 f   item.obj
 0001:000523f0       ?subst_argument_checker@Item_field@@UAEHPAPAE@Z 004533f0 f   item.obj
 0001:00052420       ?set_no_const_sub@Item_field@@UAEHPAE@Z 00453420 f   item.obj
 0001:00052450       ?init_make_field@Item@@QAEXPAVSend_field@@W4enum_field_types@@@Z 00453450 f   item.obj
 0001:000524d0       ?make_field@Item@@UAEXPAVSend_field@@@Z 004534d0 f   item.obj
 0001:000524f0       ?make_field@Item_empty_string@@UAEXPAVSend_field@@@Z 004534f0 f   item.obj
 0001:00052540       ?field_type@Item@@UBE?AW4enum_field_types@@XZ 00453540 f   item.obj
 0001:00052590       ?is_datetime@Item@@QAEHXZ  00453590 f   item.obj
 0001:000525c0       ?make_field@Item_field@@UAEXPAVSend_field@@@Z 004535c0 f   item.obj
 0001:00052610       ?save_org_in_field@Item_field@@UAEXPAVField@@@Z 00453610 f   item.obj
 0001:000526a0       ?save_in_field@Item_field@@UAEHPAVField@@H@Z 004536a0 f   item.obj
 0001:00052730       ?save_in_field@Item_null@@UAEHPAVField@@H@Z 00453730 f   item.obj
 0001:00052750       ?save_safe_in_field@Item_null@@UAEHPAVField@@@Z 00453750 f   item.obj
 0001:00052770       ?save_in_field@Item@@UAEHPAVField@@H@Z 00453770 f   item.obj
 0001:000529b0       ?save_in_field@Item_string@@UAEHPAVField@@H@Z 004539b0 f   item.obj
 0001:00052a20       ?save_in_field@Item_int@@UAEHPAVField@@H@Z 00453a20 f   item.obj
 0001:00052a80       ?save_in_field@Item_decimal@@UAEHPAVField@@H@Z 00453a80 f   item.obj
 0001:00052ac0       ?eq@Item_int@@UBEHPBVItem@@H@Z 00453ac0 f   item.obj
 0001:00052bc0       ?save_in_field@Item_float@@UAEHPAVField@@H@Z 00453bc0 f   item.obj
 0001:00052c20       ?eq@Item_float@@UBEHPBVItem@@H@Z 00453c20 f   item.obj
 0001:00052c80       ?char_val@@YAID@Z          00453c80 f i item.obj
 0001:00052cc0       ?val_int@Item_hex_string@@UAE_JXZ 00453cc0 f   item.obj
 0001:00052d20       ?val_decimal@Item_hex_string@@UAEPAVmy_decimal@@PAV2@@Z 00453d20 f   item.obj
 0001:00052d60       ?save_in_field@Item_hex_string@@UAEHPAVField@@H@Z 00453d60 f   item.obj
 0001:00052e50       ?eq@Item_hex_string@@UBEHPBVItem@@H@Z 00453e50 f   item.obj
 0001:00052ee0       ?send@Item_null@@UAEHPAVProtocol@@PAVString@@@Z 00453ee0 f   item.obj
 0001:00052ef0       ?send@Item@@UAEHPAVProtocol@@PAVString@@@Z 00453ef0 f   item.obj
 0001:00053150       ?send@Item_field@@UAEHPAVProtocol@@PAVString@@@Z 00454150 f   item.obj
 0001:00053170       ?update_null_value@Item_field@@UAEXXZ 00454170 f   item.obj
 0001:000531b0       ?set_properties@Item_ref@@IAEXXZ 004541b0 f   item.obj
 0001:00053250       ?cleanup@Item_ref@@UAEXXZ  00454250 f   item.obj
 0001:00053290       ?print@Item_ref@@UAEXPAVString@@@Z 00454290 f   item.obj
 0001:00053350       ?send@Item_ref@@UAEHPAVProtocol@@PAVString@@@Z 00454350 f   item.obj
 0001:00053380       ?val_result@Item_ref@@UAENXZ 00454380 f   item.obj
 0001:000533e0       ?val_int_result@Item_ref@@UAE_JXZ 004543e0 f   item.obj
 0001:00053430       ?str_result@Item_ref@@UAEPAVString@@PAV2@@Z 00454430 f   item.obj
 0001:000534a0       ?val_decimal_result@Item_ref@@UAEPAVmy_decimal@@PAV2@@Z 004544a0 f   item.obj
 0001:000534f0       ?val_bool_result@Item_ref@@UAEHXZ 004544f0 f   item.obj
 0001:00053600       ?val_real@Item_ref@@UAENXZ 00454600 f   item.obj
 0001:00053620       ?val_int@Item_ref@@UAE_JXZ 00454620 f   item.obj
 0001:00053640       ?val_bool@Item_ref@@UAEHXZ 00454640 f   item.obj
 0001:00053660       ?val_str@Item_ref@@UAEPAVString@@PAV2@@Z 00454660 f   item.obj
 0001:00053690       ?is_null@Item_ref@@UAEHXZ  00454690 f   item.obj
 0001:000536a0       ?get_date@Item_ref@@UAEHPAUst_mysql_time@@I@Z 004546a0 f   item.obj
 0001:000536d0       ?val_decimal@Item_ref@@UAEPAVmy_decimal@@PAV2@@Z 004546d0 f   item.obj
 0001:00053700       ?save_in_field@Item_ref@@UAEHPAVField@@H@Z 00454700 f   item.obj
 0001:00053730       ?save_org_in_field@Item_ref@@UAEXPAVField@@@Z 00454730 f   item.obj
 0001:00053740       ?make_field@Item_ref@@UAEXPAVSend_field@@@Z 00454740 f   item.obj
 0001:00053790       ?print@Item_ref_null_helper@@UAEXPAVString@@@Z 00454790 f   item.obj
 0001:00053840       ?val_real@Item_direct_ref@@UAENXZ 00454840 f   item.obj
 0001:00053860       ?val_int@Item_direct_ref@@UAE_JXZ 00454860 f   item.obj
 0001:00053880       ?val_str@Item_direct_ref@@UAEPAVString@@PAV2@@Z 00454880 f   item.obj
 0001:000538b0       ?val_decimal@Item_direct_ref@@UAEPAVmy_decimal@@PAV2@@Z 004548b0 f   item.obj
 0001:000538e0       ?val_bool@Item_direct_ref@@UAEHXZ 004548e0 f   item.obj
 0001:00053900       ?is_null@Item_direct_ref@@UAEHXZ 00454900 f   item.obj
 0001:00053910       ?get_date@Item_direct_ref@@UAEHPAUst_mysql_time@@I@Z 00454910 f   item.obj
 0001:00053940       ?eq@Item_direct_view_ref@@UBEHPBVItem@@H@Z 00454940 f   item.obj
 0001:000539b0       ?eq@Item_default_value@@UBEHPBVItem@@H@Z 004549b0 f   item.obj
 0001:00053a00       ?fix_fields@Item_default_value@@UAEHPAVTHD@@PAPAVItem@@@Z 00454a00 f   item.obj
 0001:00053b50       ?print@Item_default_value@@UAEXPAVString@@@Z 00454b50 f   item.obj
 0001:00053bf0       ?transform@Item_default_value@@UAEPAVItem@@P82@AEPAV2@PAE@Z0@Z 00454bf0 f   item.obj
 0001:00053c80       ?eq@Item_insert_value@@UBEHPBVItem@@H@Z 00454c80 f   item.obj
 0001:00053cd0       ?fix_fields@Item_insert_value@@UAEHPAVTHD@@PAPAVItem@@@Z 00454cd0 f   item.obj
 0001:00053e80       ?print@Item_insert_value@@UAEXPAVString@@@Z 00454e80 f   item.obj
 0001:00053f00       ?setup_field@Item_trigger_field@@QAEXPAVTHD@@PAUst_table@@PAUst_grant_info@@@Z 00454f00 f   item.obj
 0001:00053f80       ?eq@Item_trigger_field@@UBEHPBVItem@@H@Z 00454f80 f   item.obj
 0001:00053ff0       ?set_required_privilege@Item_trigger_field@@EAEXH@Z 00454ff0 f   item.obj
 0001:00054010       ?set_value@Item_trigger_field@@EAEHPAVTHD@@PAVsp_rcontext@@PAPAVItem@@@Z 00455010 f   item.obj
 0001:00054090       ?fix_fields@Item_trigger_field@@UAEHPAVTHD@@PAPAVItem@@@Z 00455090 f   item.obj
 0001:000541b0       ?print@Item_trigger_field@@UAEXPAVString@@@Z 004551b0 f   item.obj
 0001:00054230       ?cleanup@Item_trigger_field@@UAEXXZ 00455230 f   item.obj
 0001:00054260       ?item_cmp_type@@YA?AW4Item_result@@W41@0@Z 00455260 f   item.obj
 0001:000542c0       ?print@Item_cache@@UAEXPAVString@@@Z 004552c0 f   item.obj
 0001:00054350       ?store@Item_cache_int@@UAEXPAVItem@@@Z 00455350 f   item.obj
 0001:00054380       ?store@Item_cache_int@@QAEXPAVItem@@_J@Z 00455380 f   item.obj
 0001:000543b0       ?val_str@Item_cache_int@@UAEPAVString@@PAV2@@Z 004553b0 f   item.obj
 0001:00054400       ?val_decimal@Item_cache_int@@UAEPAVmy_decimal@@PAV2@@Z 00455400 f   item.obj
 0001:00054450       ?store@Item_cache_real@@UAEXPAVItem@@@Z 00455450 f   item.obj
 0001:00054480       ?val_int@Item_cache_real@@UAE_JXZ 00455480 f   item.obj
 0001:000544e0       ?val_str@Item_cache_real@@UAEPAVString@@PAV2@@Z 004554e0 f   item.obj
 0001:00054530       ?val_decimal@Item_cache_real@@UAEPAVmy_decimal@@PAV2@@Z 00455530 f   item.obj
 0001:00054560       ?store@Item_cache_decimal@@UAEXPAVItem@@@Z 00455560 f   item.obj
 0001:000545b0       ?val_real@Item_cache_decimal@@UAENXZ 004555b0 f   item.obj
 0001:000545d0       ?val_int@Item_cache_decimal@@UAE_JXZ 004555d0 f   item.obj
 0001:00054600       ?val_str@Item_cache_decimal@@UAEPAVString@@PAV2@@Z 00455600 f   item.obj
 0001:00054650       ?val_decimal@Item_cache_decimal@@UAEPAVmy_decimal@@PAV2@@Z 00455650 f   item.obj
 0001:00054660       ?val_real@Item_cache_str@@UAENXZ 00455660 f   item.obj
 0001:000546b0       ?val_int@Item_cache_str@@UAE_JXZ 004556b0 f   item.obj
 0001:00054700       ?val_decimal@Item_cache_str@@UAEPAVmy_decimal@@PAV2@@Z 00455700 f   item.obj
 0001:00054740       ?allocate@Item_cache_row@@UAEHI@Z 00455740 f   item.obj
 0001:000547c0       ?store@Item_cache_row@@UAEXPAVItem@@@Z 004557c0 f   item.obj
 0001:00054840       ?illegal_method_call@Item_cache_row@@QAEXPBD@Z 00455840 f   item.obj
 0001:00054860       ?check_cols@Item_cache_row@@UAEHI@Z 00455860 f   item.obj
 0001:00054890       ?null_inside@Item_cache_row@@UAEHXZ 00455890 f   item.obj
 0001:00054910       ?bring_value@Item_cache_row@@UAEXXZ 00455910 f   item.obj
 0001:00054950       ?result_type@Item_type_holder@@UBE?AW4Item_result@@XZ 00455950 f   item.obj
 0001:00054960       ?get_real_type@Item_type_holder@@SA?AW4enum_field_types@@PAVItem@@@Z 00455960 f   item.obj
 0001:00054a50       ?display_length@Item_type_holder@@SAKPAVItem@@@Z 00455a50 f   item.obj
 0001:00054b40       ?get_full_info@Item_type_holder@@IAEXPAVItem@@@Z 00455b40 f   item.obj
 0001:00054bc0       ?val_real@Item_type_holder@@UAENXZ 00455bc0 f   item.obj
 0001:00054bd0       ?val_int@Item_type_holder@@UAE_JXZ 00455bd0 f   item.obj
 0001:00054be0       ?val_decimal@Item_type_holder@@UAEPAVmy_decimal@@PAV2@@Z 00455be0 f   item.obj
 0001:00054bf0       ?val_str@Item_type_holder@@UAEPAVString@@PAV2@@Z 00455bf0 f   item.obj
 0001:00054c00       ?cleanup@Item_result_field@@UAEXXZ 00455c00 f   item.obj
 0001:00054c20       ?dummy_error_processor@@YAXPAVTHD@@PAX@Z 00455c20 f   item.obj
 0001:00054c30       ?view_error_processor@@YAXPAVTHD@@PAX@Z 00455c30 f   item.obj
 0001:00054c50       ?push_front@?$List@VItem@@@@QAEHPAVItem@@@Z 00455c50 f i item.obj
 0001:00054ca0       ?push_back@?$List@VItem_field@@@@QAEHPAVItem_field@@@Z 00455ca0 f i item.obj
 0001:00054d00       ?head@?$List@VItem_field@@@@QAEPAVItem_field@@XZ 00455d00 f i item.obj
 0001:00054d10       ?push_back@?$List@VItem_outer_ref@@@@QAEHPAVItem_outer_ref@@@Z 00455d10 f i item.obj
 0001:00054d70       ??E?$List_iterator@VItem_field@@@@QAEPAVItem_field@@H@Z 00455d70 f i item.obj
 0001:00054d90       ??E?$List_iterator_fast@VItem_equal@@@@QAEPAVItem_equal@@H@Z 00455d90 f i item.obj
 0001:00054db0       ??0Field_string@@QAE@KHPBDPAUst_table@@PAUcharset_info_st@@@Z 00455db0 f i item.obj
 0001:00054e10       ??0Field_blob@@QAE@KHPBDPAUst_table@@PAUcharset_info_st@@@Z 00455e10 f i item.obj
 0001:00054e90       ??0Field_blob@@QAE@KHPBDPAUst_table@@PAUcharset_info_st@@H@Z 00455e90 f i item.obj
 0001:00054f70       ??0Field_geom@@QAE@KHPBDPAUst_table@@W4geometry_type@Field@@@Z 00455f70 f i item.obj
 0001:00054fc0       ??_EHybrid_type_traits_decimal@@UAEPAXI@Z 00455fc0 f i item.obj
 0001:00054fc0       ??_GHybrid_type_traits_decimal@@UAEPAXI@Z 00455fc0 f i item.obj
 0001:00054ff0       ??_GHybrid_type_traits_integer@@UAEPAXI@Z 00455ff0 f i item.obj
 0001:00054ff0       ??_EHybrid_type_traits_integer@@UAEPAXI@Z 00455ff0 f i item.obj
 0001:00055020       ??1Item_int@@UAE@XZ        00456020 f i item.obj
 0001:00055060       ??1Item_hex_string@@UAE@XZ 00456060 f i item.obj
 0001:000550a0       ??1Item_result_field@@UAE@XZ 004560a0 f i item.obj
 0001:000550e0       ??1Item_ident@@UAE@XZ      004560e0 f i item.obj
 0001:00055120       ??1Item_ref@@UAE@XZ        00456120 f i item.obj
 0001:00055160       ??1Item_direct_ref@@UAE@XZ 00456160 f i item.obj
 0001:000551a0       ??1Item_func@@UAE@XZ       004561a0 f i item.obj
 0001:000551e0       ?get_first@Item_equal@@QAEPAVItem_field@@XZ 004561e0 f i item.obj
 0001:000551f0       ??1Item_str_func@@UAE@XZ   004561f0 f i item.obj
 0001:00055230       ??1Item_cache@@UAE@XZ      00456230 f i item.obj
 0001:00055270       ??0Item@@QAE@XZ            00456270 f   item.obj
 0001:00055360       ??0Item@@QAE@PAVTHD@@PAV0@@Z 00456360 f   item.obj
 0001:00055420       ??0Item_ident@@QAE@PAUName_resolution_context@@PBD11@Z 00456420 f   item.obj
 0001:00055490       ?change_context_processor@Item_ident@@UAEHPAE@Z 00456490 f i item.obj
 0001:000554a0       ??_EItem_ident@@UAEPAXI@Z  004564a0 f i item.obj
 0001:000554a0       ??_GItem_ident@@UAEPAXI@Z  004564a0 f i item.obj
 0001:000554e0       ??0Item_ident@@QAE@PAVTHD@@PAV0@@Z 004564e0 f   item.obj
 0001:00055560       ?get_date@Item@@UAEHPAUst_mysql_time@@I@Z 00456560 f   item.obj
 0001:00055700       ?get_time@Item@@UAEHPAUst_mysql_time@@@Z 00456700 f   item.obj
 0001:00055810       ??0Item_sp_variable@@QAE@PADI@Z 00456810 f   item.obj
 0001:00055850       ?const_item@Item_sp_variable@@UBEHXZ 00456850 f i item.obj
 0001:00055860       ?save_in_field@Item_sp_variable@@UAEHPAVField@@H@Z 00456860 f i item.obj
 0001:00055880       ?send@Item_sp_variable@@UAEHPAVProtocol@@PAVString@@@Z 00456880 f i item.obj
 0001:000558a0       ?make_field@Item_sp_variable@@UAEXPAVSend_field@@@Z 004568a0 f i item.obj
 0001:00055910       ??1Item_sp_variable@@UAE@XZ 00456910 f i item.obj
 0001:00055950       ?val_str@Item_sp_variable@@UAEPAVString@@PAV2@@Z 00456950 f   item.obj
 0001:000559c0       ??0Item_splocal@@QAE@ABUst_lex_string@@IW4enum_field_types@@II@Z 004569c0 f   item.obj
 0001:00055a50       ?is_splocal@Item_splocal@@UAEHXZ 00456a50 f i item.obj
 0001:00055a60       ?field_type@Item_splocal@@UBE?AW4enum_field_types@@XZ 00456a60 f i item.obj
 0001:00055a70       ?get_settable_routine_parameter@Item_splocal@@UAEPAVSettable_routine_parameter@@XZ 00456a70 f i item.obj
 0001:00055a80       ?type@Item_splocal@@UBE?AW4Type@Item@@XZ 00456a80 f i item.obj
 0001:00055a90       ?result_type@Item_splocal@@UBE?AW4Item_result@@XZ 00456a90 f i item.obj
 0001:00055aa0       ??_EItem_splocal@@WFI@AEPAXI@Z 00456aa0 f i item.obj
 0001:00055ab0       ??0Item_case_expr@@QAE@H@Z 00456ab0 f   item.obj
 0001:00055af0       ?type@Item_case_expr@@UBE?AW4Type@Item@@XZ 00456af0 f i item.obj
 0001:00055b10       ?result_type@Item_case_expr@@UBE?AW4Item_result@@XZ 00456b10 f i item.obj
 0001:00055b30       ?fix_fields@Item_name_const@@UAEHPAVTHD@@PAPAVItem@@@Z 00456b30 f   item.obj
 0001:00055cb0       ??0Item_field@@QAE@PAVField@@@Z 00456cb0 f   item.obj
 0001:00055d50       ?type@Item_field@@UBE?AW4Type@Item@@XZ 00456d50 f i item.obj
 0001:00055d60       ?result_type@Item_field@@UBE?AW4Item_result@@XZ 00456d60 f i item.obj
 0001:00055d70       ?cast_to_int_type@Item_field@@UBE?AW4Item_result@@XZ 00456d70 f i item.obj
 0001:00055d80       ?field_type@Item_field@@UBE?AW4enum_field_types@@XZ 00456d80 f i item.obj
 0001:00055d90       ?get_tmp_table_field@Item_field@@UAEPAVField@@XZ 00456d90 f i item.obj
 0001:00055da0       ?tmp_table_field@Item_field@@UAEPAVField@@PAUst_table@@@Z 00456da0 f i item.obj
 0001:00055db0       ?is_null@Item_field@@UAEHXZ 00456db0 f i item.obj
 0001:00055de0       ?reset_query_id_processor@Item_field@@UAEHPAE@Z 00456de0 f i item.obj
 0001:00055e20       ?result_as_longlong@Item_field@@UAEHXZ 00456e20 f i item.obj
 0001:00055e30       ?filed_for_view_update@Item_field@@UAEPAV1@XZ 00456e30 f i item.obj
 0001:00055e40       ??_EItem_field@@UAEPAXI@Z  00456e40 f i item.obj
 0001:00055e40       ??_GItem_field@@UAEPAXI@Z  00456e40 f i item.obj
 0001:00055e60       ??0Item_field@@QAE@PAVTHD@@PAUName_resolution_context@@PAVField@@@Z 00456e60 f   item.obj
 0001:00055f70       ??0Item_field@@QAE@PAUName_resolution_context@@PBD11@Z 00456f70 f   item.obj
 0001:00056040       ??0Item_field@@QAE@PAVTHD@@PAV0@@Z 00457040 f   item.obj
 0001:000560c0       ?get_tmp_table_item@Item_field@@UAEPAVItem@@PAVTHD@@@Z 004570c0 f   item.obj
 0001:00056140       ?get_time@Item_param@@UAEHPAUst_mysql_time@@@Z 00457140 f   item.obj
 0001:00056180       ?get_date@Item_param@@UAEHPAUst_mysql_time@@I@Z 00457180 f   item.obj
 0001:000561c0       ?convert_str_value@Item_param@@QAEHPAVTHD@@@Z 004571c0 f   item.obj
 0001:000562e0       ?print@Item_param@@UAEXPAVString@@@Z 004572e0 f   item.obj
 0001:000563e0       ?replace_equal_field@Item_field@@UAEPAVItem@@PAE@Z 004573e0 f   item.obj
 0001:00056450       ?make_string_field@Item@@QAEPAVField@@PAUst_table@@@Z 00457450 f   item.obj
 0001:00056560       ?tmp_table_field_from_field_type@Item@@QAEPAVField@@PAUst_table@@@Z 00457560 f   item.obj
 0001:00056b40       ?save_in_field@Item_uint@@UAEHPAVField@@H@Z 00457b40 f   item.obj
 0001:00056bb0       ?print@Item_float@@UAEXPAVString@@@Z 00457bb0 f   item.obj
 0001:00056c90       ??0Item_hex_string@@QAE@PBDI@Z 00457c90 f   item.obj
 0001:00056e30       ?type@Item_hex_string@@UBE?AW4Type@Item@@XZ 00457e30 f i item.obj
 0001:00056e40       ?basic_const_item@Item_hex_string@@UBEHXZ 00457e40 f i item.obj
 0001:00056e50       ?val_str@Item_hex_string@@UAEPAVString@@PAV2@@Z 00457e50 f i item.obj
 0001:00056e60       ?result_type@Item_hex_string@@UBE?AW4Item_result@@XZ 00457e60 f i item.obj
 0001:00056e70       ?cast_to_int_type@Item_hex_string@@UBE?AW4Item_result@@XZ 00457e70 f i item.obj
 0001:00056e80       ?field_type@Item_hex_string@@UBE?AW4enum_field_types@@XZ 00457e80 f i item.obj
 0001:00056e90       ?cleanup@Item_hex_string@@UAEXXZ 00457e90 f i item.obj
 0001:00056ea0       ?val_real@Item_hex_string@@UAENXZ 00457ea0 f i item.obj
 0001:00056ef0       ?print@Item_field@@UAEXPAVString@@@Z 00457ef0 f   item.obj
 0001:00057060       ??0Item_ref@@QAE@PAUName_resolution_context@@PAPAVItem@@PBD2H@Z 00458060 f   item.obj
 0001:000570f0       ?type@Item_ref@@UBE?AW4Type@Item@@XZ 004580f0 f i item.obj
 0001:00057100       ?eq@Item_ref@@UBEHPBVItem@@H@Z 00458100 f i item.obj
 0001:00057150       ?result_type@Item_ref@@UBE?AW4Item_result@@XZ 00458150 f i item.obj
 0001:00057160       ?field_type@Item_ref@@UBE?AW4enum_field_types@@XZ 00458160 f i item.obj
 0001:00057170       ?get_tmp_table_field@Item_ref@@UAEPAVField@@XZ 00458170 f i item.obj
 0001:00057190       ?used_tables@Item_ref@@UBE_KXZ 00458190 f i item.obj
 0001:000571b0       ?update_used_tables@Item_ref@@UAEXXZ 004581b0 f i item.obj
 0001:000571d0       ?not_null_tables@Item_ref@@UBE_KXZ 004581d0 f i item.obj
 0001:000571e0       ?set_result_field@Item_ref@@UAEXPAVField@@@Z 004581e0 f i item.obj
 0001:000571f0       ?is_result_field@Item_ref@@UAEHXZ 004581f0 f i item.obj
 0001:00057200       ?save_in_result_field@Item_ref@@UAEXH@Z 00458200 f i item.obj
 0001:00057220       ?real_item@Item_ref@@UAEPAVItem@@XZ 00458220 f i item.obj
 0001:00057240       ?walk@Item_ref@@UAEHP8Item@@AEHPAE@Z0@Z 00458240 f i item.obj
 0001:00057250       ?result_as_longlong@Item_ref@@UAEHXZ 00458250 f i item.obj
 0001:00057260       ?filed_for_view_update@Item_ref@@UAEPAVItem_field@@XZ 00458260 f i item.obj
 0001:00057270       ?ref_type@Item_ref@@UAE?AW4Ref_Type@1@XZ 00458270 f i item.obj
 0001:00057280       ?fix_fields@Item_ref@@UAEHPAVTHD@@PAPAVItem@@@Z 00458280 f   item.obj
 0001:000577b0       ?get_tmp_table_item@Item_ref@@UAEPAVItem@@PAVTHD@@@Z 004587b0 f   item.obj
 0001:00057820       ?fix_fields@Item_direct_view_ref@@UAEHPAVTHD@@PAPAVItem@@@Z 00458820 f   item.obj
 0001:00057870       ?fix_fields@Item_outer_ref@@UAEHPAVTHD@@PAPAVItem@@@Z 00458870 f   item.obj
 0001:00057910       ?save_in_field@Item_default_value@@UAEHPAVField@@H@Z 00458910 f   item.obj
 0001:00057a50       ?field_is_equal_to_item@@YAHPAVField@@PAVItem@@@Z 00458a50 f   item.obj
 0001:00057d40       ?store@Item_cache_str@@UAEXPAVItem@@@Z 00458d40 f   item.obj
 0001:00057e00       ??0Item_type_holder@@QAE@PAVTHD@@PAVItem@@@Z 00458e00 f   item.obj
 0001:00057ef0       ?field_type@Item_type_holder@@UBE?AW4enum_field_types@@XZ 00458ef0 f i item.obj
 0001:00057f00       ?type@Item_type_holder@@UBE?AW4Type@Item@@XZ 00458f00 f i item.obj
 0001:00057f10       ?join_types@Item_type_holder@@QAEHPAVTHD@@PAVItem@@@Z 00458f10 f   item.obj
 0001:00058300       ?make_field_by_type@Item_type_holder@@QAEPAVField@@PAUst_table@@@Z 00459300 f   item.obj
 0001:00058410       ??0?$List_iterator@VItem_field@@@@QAE@AAV?$List@VItem_field@@@@@Z 00459410 f i item.obj
 0001:00058430       ??0?$List_iterator_fast@VItem_equal@@@@QAE@AAV?$List@VItem_equal@@@@@Z 00459430 f i item.obj
 0001:00058450       ??0Item_null@@QAE@PAD@Z    00459450 f i item.obj
 0001:000584c0       ?type@Item_null@@UBE?AW4Type@Item@@XZ 004594c0 f i item.obj
 0001:000584d0       ?result_type@Item_null@@UBE?AW4Item_result@@XZ 004594d0 f i item.obj
 0001:000584e0       ?field_type@Item_null@@UBE?AW4enum_field_types@@XZ 004594e0 f i item.obj
 0001:000584f0       ?cleanup@Item_null@@UAEXXZ 004594f0 f i item.obj
 0001:00058500       ?basic_const_item@Item_null@@UBEHXZ 00459500 f i item.obj
 0001:00058510       ?is_null@Item_null@@UAEHXZ 00459510 f i item.obj
 0001:00058520       ?print@Item_null@@UAEXPAVString@@@Z 00459520 f i item.obj
 0001:00058540       ?clone_item@Item_null@@UAEPAVItem@@XZ 00459540 f i item.obj
 0001:00058570       ??_GItem_null@@UAEPAXI@Z   00459570 f i item.obj
 0001:00058570       ??_EItem_null@@UAEPAXI@Z   00459570 f i item.obj
 0001:00058590       ??0Item_float@@QAE@PBDNII@Z 00459590 f i item.obj
 0001:000585e0       ?type@Item_float@@UBE?AW4Type@Item@@XZ 004595e0 f i item.obj
 0001:000585f0       ?field_type@Item_float@@UBE?AW4enum_field_types@@XZ 004595f0 f i item.obj
 0001:00058600       ?val_real@Item_float@@UAENXZ 00459600 f i item.obj
 0001:00058610       ?val_int@Item_float@@UAE_JXZ 00459610 f i item.obj
 0001:00058670       ?basic_const_item@Item_float@@UBEHXZ 00459670 f i item.obj
 0001:00058680       ?cleanup@Item_float@@UAEXXZ 00459680 f i item.obj
 0001:00058690       ?neg@Item_float@@UAEPAVItem_num@@XZ 00459690 f i item.obj
 0001:000586a0       ?clone_item@Item_float@@UAEPAVItem@@XZ 004596a0 f i item.obj
 0001:00058710       ??_GItem_float@@UAEPAXI@Z  00459710 f i item.obj
 0001:00058710       ??_EItem_float@@UAEPAXI@Z  00459710 f i item.obj
 0001:00058730       ??0Item_static_string_func@@QAE@PBD0IPAUcharset_info_st@@W4Derivation@@@Z 00459730 f i item.obj
 0001:00058780       ?print@Item_static_string_func@@UAEXPAVString@@@Z 00459780 f i item.obj
 0001:000587a0       ??_GItem_static_string_func@@UAEPAXI@Z 004597a0 f i item.obj
 0001:000587a0       ??_EItem_static_string_func@@UAEPAXI@Z 004597a0 f i item.obj
 0001:000587c0       ??0Item_hex_string@@QAE@XZ 004597c0 f i item.obj
 0001:000587e0       ??_EItem_hex_string@@UAEPAXI@Z 004597e0 f i item.obj
 0001:000587e0       ??_GItem_hex_string@@UAEPAXI@Z 004597e0 f i item.obj
 0001:00058820       ??0Item_result_field@@QAE@XZ 00459820 f i item.obj
 0001:00058840       ?get_tmp_table_field@Item_result_field@@UAEPAVField@@XZ 00459840 f i item.obj
 0001:00058850       ?tmp_table_field@Item_result_field@@UAEPAVField@@PAUst_table@@@Z 00459850 f i item.obj
 0001:00058860       ?used_tables@Item_result_field@@UBE_KXZ 00459860 f i item.obj
 0001:00058870       ?set_result_field@Item_result_field@@UAEXPAVField@@@Z 00459870 f i item.obj
 0001:00058880       ?is_result_field@Item_result_field@@UAEHXZ 00459880 f i item.obj
 0001:00058890       ?save_in_result_field@Item_result_field@@UAEXH@Z 00459890 f i item.obj
 0001:000588b0       ??_GItem_result_field@@UAEPAXI@Z 004598b0 f i item.obj
 0001:000588b0       ??_EItem_result_field@@UAEPAXI@Z 004598b0 f i item.obj
 0001:000588f0       ??0Item_ref@@QAE@PAUName_resolution_context@@PBD11@Z 004598f0 f i item.obj
 0001:00058960       ??_GItem_ref@@UAEPAXI@Z    00459960 f i item.obj
 0001:00058960       ??_EItem_ref@@UAEPAXI@Z    00459960 f i item.obj
 0001:000589a0       ??0Item_direct_ref@@QAE@PAUName_resolution_context@@PAPAVItem@@PBD2H@Z 004599a0 f i item.obj
 0001:000589e0       ?ref_type@Item_direct_ref@@UAE?AW4Ref_Type@Item_ref@@XZ 004599e0 f i item.obj
 0001:000589f0       ??_EItem_direct_ref@@UAEPAXI@Z 004599f0 f i item.obj
 0001:000589f0       ??_GItem_direct_ref@@UAEPAXI@Z 004599f0 f i item.obj
 0001:00058a30       ??0Item_outer_ref@@QAE@PAUName_resolution_context@@PAVItem_field@@@Z 00459a30 f i item.obj
 0001:00058ad0       ?save_in_result_field@Item_outer_ref@@UAEXH@Z 00459ad0 f i item.obj
 0001:00058af0       ?used_tables@Item_outer_ref@@UBE_KXZ 00459af0 f i item.obj
 0001:00058b20       ?ref_type@Item_outer_ref@@UAE?AW4Ref_Type@Item_ref@@XZ 00459b20 f i item.obj
 0001:00058b30       ??0Item_outer_ref@@QAE@PAUName_resolution_context@@PAPAVItem@@PBD2H@Z 00459b30 f i item.obj
 0001:00058b90       ??_GItem_outer_ref@@UAEPAXI@Z 00459b90 f i item.obj
 0001:00058b90       ??_EItem_outer_ref@@UAEPAXI@Z 00459b90 f i item.obj
 0001:00058bb0       ??0Item_func@@QAE@PAVItem@@@Z 00459bb0 f i item.obj
 0001:00058c00       ?type@Item_func@@UBE?AW4Type@Item@@XZ 00459c00 f i item.obj
 0001:00058c10       ?functype@Item_func@@UBE?AW4Functype@1@XZ 00459c10 f i item.obj
 0001:00058c20       ?select_optimize@Item_func@@UBE?AW4optimize_type@1@XZ 00459c20 f i item.obj
 0001:00058c30       ?have_rev_func@Item_func@@UBEHXZ 00459c30 f i item.obj
 0001:00058c40       ?key_item@Item_func@@UBEPAVItem@@XZ 00459c40 f i item.obj
 0001:00058c50       ?const_item@Item_func@@UBEHXZ 00459c50 f i item.obj
 0001:00058c60       ?is_null@Item_func@@UAEHXZ 00459c60 f i item.obj
 0001:00058c80       ?is_expensive@Item_func@@UAEHXZ 00459c80 f i item.obj
 0001:00058c90       ??_EItem_func@@UAEPAXI@Z   00459c90 f i item.obj
 0001:00058c90       ??_GItem_func@@UAEPAXI@Z   00459c90 f i item.obj
 0001:00058cd0       ??0Item_str_func@@QAE@PAVItem@@@Z 00459cd0 f i item.obj
 0001:00058d30       ?result_type@Item_str_func@@UBE?AW4Item_result@@XZ 00459d30 f i item.obj
 0001:00058d40       ??_EItem_str_func@@UAEPAXI@Z 00459d40 f i item.obj
 0001:00058d40       ??_GItem_str_func@@UAEPAXI@Z 00459d40 f i item.obj
 0001:00058d80       ??0Item_func_conv_charset@@QAE@PAVItem@@PAUcharset_info_st@@H@Z 00459d80 f i item.obj
 0001:00058f10       ?func_name@Item_func_conv_charset@@UBEPBDXZ 00459f10 f i item.obj
 0001:00058f20       ??_GItem_func_conv_charset@@UAEPAXI@Z 00459f20 f i item.obj
 0001:00058f20       ??_EItem_func_conv_charset@@UAEPAXI@Z 00459f20 f i item.obj
 0001:00058f40       ??0Item_cache@@QAE@XZ      00459f40 f i item.obj
 0001:00058f70       ?allocate@Item_cache@@UAEHI@Z 00459f70 f i item.obj
 0001:00058f80       ?setup@Item_cache@@UAEHPAVItem@@@Z 00459f80 f i item.obj
 0001:00058fc0       ?type@Item_cache@@UBE?AW4Type@Item@@XZ 00459fc0 f i item.obj
 0001:00058fd0       ?used_tables@Item_cache@@UBE_KXZ 00459fd0 f i item.obj
 0001:00058fe0       ?keep_array@Item_cache@@UAEXXZ 00459fe0 f i item.obj
 0001:00058ff0       ?cleanup@Item_cache@@UAEXXZ 00459ff0 f i item.obj
 0001:00059000       ??_EItem_cache@@UAEPAXI@Z  0045a000 f i item.obj
 0001:00059000       ??_GItem_cache@@UAEPAXI@Z  0045a000 f i item.obj
 0001:00059040       ??0Item_cache_int@@QAE@XZ  0045a040 f i item.obj
 0001:00059080       ?val_real@Item_cache_int@@UAENXZ 0045a080 f i item.obj
 0001:00059090       ?val_int@Item_cache_int@@UAE_JXZ 0045a090 f i item.obj
 0001:000590a0       ?result_type@Item_cache_int@@UBE?AW4Item_result@@XZ 0045a0a0 f i item.obj
 0001:000590b0       ?result_as_longlong@Item_cache_int@@UAEHXZ 0045a0b0 f i item.obj
 0001:000590c0       ??_GItem_cache_int@@UAEPAXI@Z 0045a0c0 f i item.obj
 0001:000590c0       ??_EItem_cache_int@@UAEPAXI@Z 0045a0c0 f i item.obj
 0001:000590e0       ??0Item_cache_real@@QAE@XZ 0045a0e0 f i item.obj
 0001:00059120       ?val_real@Item_cache_real@@UAENXZ 0045a120 f i item.obj
 0001:00059130       ?result_type@Item_cache_real@@UBE?AW4Item_result@@XZ 0045a130 f i item.obj
 0001:00059140       ??_EItem_cache_real@@UAEPAXI@Z 0045a140 f i item.obj
 0001:00059140       ??_GItem_cache_real@@UAEPAXI@Z 0045a140 f i item.obj
 0001:00059160       ??0Item_cache_decimal@@QAE@XZ 0045a160 f i item.obj
 0001:000591a0       ?result_type@Item_cache_decimal@@UBE?AW4Item_result@@XZ 0045a1a0 f i item.obj
 0001:000591b0       ??_GItem_cache_decimal@@UAEPAXI@Z 0045a1b0 f i item.obj
 0001:000591b0       ??_EItem_cache_decimal@@UAEPAXI@Z 0045a1b0 f i item.obj
 0001:000591d0       ??0Item_cache_str@@QAE@XZ  0045a1d0 f i item.obj
 0001:00059230       ?val_str@Item_cache_str@@UAEPAVString@@PAV2@@Z 0045a230 f i item.obj
 0001:00059240       ?result_type@Item_cache_str@@UBE?AW4Item_result@@XZ 0045a240 f i item.obj
 0001:00059250       ??_EItem_cache_str@@UAEPAXI@Z 0045a250 f i item.obj
 0001:00059250       ??_GItem_cache_str@@UAEPAXI@Z 0045a250 f i item.obj
 0001:00059280       ??0Item_cache_row@@QAE@XZ  0045a280 f i item.obj
 0001:000592c0       ?result_type@Item_cache_row@@UBE?AW4Item_result@@XZ 0045a2c0 f i item.obj
 0001:000592d0       ?cols@Item_cache_row@@UAEIXZ 0045a2d0 f i item.obj
 0001:000592e0       ?element_index@Item_cache_row@@UAEPAVItem@@I@Z 0045a2e0 f i item.obj
 0001:000592f0       ?addr@Item_cache_row@@UAEPAPAVItem@@I@Z 0045a2f0 f i item.obj
 0001:00059300       ?keep_array@Item_cache_row@@UAEXXZ 0045a300 f i item.obj
 0001:00059310       ?cleanup@Item_cache_row@@UAEXXZ 0045a310 f i item.obj
 0001:00059350       ?make_field@Item_cache_row@@UAEXPAVSend_field@@@Z 0045a350 f i item.obj
 0001:00059370       ?val_real@Item_cache_row@@UAENXZ 0045a370 f i item.obj
 0001:00059390       ?val_int@Item_cache_row@@UAE_JXZ 0045a390 f i item.obj
 0001:000593b0       ?val_str@Item_cache_row@@UAEPAVString@@PAV2@@Z 0045a3b0 f i item.obj
 0001:000593d0       ?val_decimal@Item_cache_row@@UAEPAVmy_decimal@@PAV2@@Z 0045a3d0 f i item.obj
 0001:000593f0       ??_GItem_cache_row@@UAEPAXI@Z 0045a3f0 f i item.obj
 0001:000593f0       ??_EItem_cache_row@@UAEPAXI@Z 0045a3f0 f i item.obj
 0001:00059410       ?collect_item_field_processor@Item_field@@UAEHPAE@Z 0045a410 f   item.obj
 0001:00059490       ?safe_charset_converter@Item@@UAEPAV1@PAUcharset_info_st@@@Z 0045a490 f   item.obj
 0001:000594f0       ?safe_charset_converter@Item_num@@UAEPAVItem@@PAUcharset_info_st@@@Z 0045a4f0 f   item.obj
 0001:000595c0       ?safe_charset_converter@Item_static_float_func@@UAEPAVItem@@PAUcharset_info_st@@@Z 0045a5c0 f   item.obj
 0001:000596a0       ?safe_charset_converter@Item_string@@UAEPAVItem@@PAUcharset_info_st@@@Z 0045a6a0 f   item.obj
 0001:00059830       ?safe_charset_converter@Item_static_string_func@@UAEPAVItem@@PAUcharset_info_st@@@Z 0045a830 f   item.obj
 0001:000599d0       ??_EItem_sp_variable@@UAEPAXI@Z 0045a9d0 f i item.obj
 0001:000599d0       ??_GItem_sp_variable@@UAEPAXI@Z 0045a9d0 f i item.obj
 0001:00059a10       ??_GItem_splocal@@UAEPAXI@Z 0045aa10 f i item.obj
 0001:00059a10       ??_EItem_splocal@@UAEPAXI@Z 0045aa10 f i item.obj
 0001:00059a50       ??_EItem_case_expr@@UAEPAXI@Z 0045aa50 f i item.obj
 0001:00059a50       ??_GItem_case_expr@@UAEPAXI@Z 0045aa50 f i item.obj
 0001:00059a70       ??0Item_aggregate_ref@@QAE@PAUName_resolution_context@@PAPAVItem@@PBD2@Z 0045aa70 f i item.obj
 0001:00059ab0       ?print@Item_aggregate_ref@@UAEXPAVString@@@Z 0045aab0 f i item.obj
 0001:00059ad0       ??_EItem_aggregate_ref@@UAEPAXI@Z 0045aad0 f i item.obj
 0001:00059ad0       ??_GItem_aggregate_ref@@UAEPAXI@Z 0045aad0 f i item.obj
 0001:00059af0       ?split_sum_func2@Item@@QAEXPAVTHD@@PAPAV1@AAV?$List@VItem@@@@1H@Z 0045aaf0 f   item.obj
 0001:00059cb0       ?agg_item_charsets@@YAHAAVDTCollation@@PBDPAPAVItem@@IIH@Z 0045acb0 f   item.obj
 0001:00059f20       ??0Item_int@@QAE@PBDI@Z    0045af20 f   item.obj
 0001:00059f90       ??0Item_uint@@QAE@PBDI@Z   0045af90 f   item.obj
 0001:00059fc0       ?val_real@Item_uint@@UAENXZ 0045afc0 f i item.obj
 0001:0005a000       ?decimal_precision@Item_uint@@UBEIXZ 0045b000 f i item.obj
 0001:0005a010       ??_GItem_uint@@UAEPAXI@Z   0045b010 f i item.obj
 0001:0005a010       ??_EItem_uint@@UAEPAXI@Z   0045b010 f i item.obj
 0001:0005a030       ??0Item_uint@@QAE@PBD_JI@Z 0045b030 f   item.obj
 0001:0005a080       ??0Item_decimal@@QAE@PBDIPAUcharset_info_st@@@Z 0045b080 f   item.obj
 0001:0005a120       ?type@Item_decimal@@UBE?AW4Type@Item@@XZ 0045b120 f i item.obj
 0001:0005a130       ?result_type@Item_decimal@@UBE?AW4Item_result@@XZ 0045b130 f i item.obj
 0001:0005a140       ?field_type@Item_decimal@@UBE?AW4enum_field_types@@XZ 0045b140 f i item.obj
 0001:0005a150       ?val_decimal@Item_decimal@@UAEPAVmy_decimal@@PAV2@@Z 0045b150 f i item.obj
 0001:0005a160       ?basic_const_item@Item_decimal@@UBEHXZ 0045b160 f i item.obj
 0001:0005a170       ?cleanup@Item_decimal@@UAEXXZ 0045b170 f i item.obj
 0001:0005a180       ?neg@Item_decimal@@UAEPAVItem_num@@XZ 0045b180 f i item.obj
 0001:0005a1d0       ?decimal_precision@Item_decimal@@UBEIXZ 0045b1d0 f i item.obj
 0001:0005a1e0       ??_EItem_decimal@@UAEPAXI@Z 0045b1e0 f i item.obj
 0001:0005a1e0       ??_GItem_decimal@@UAEPAXI@Z 0045b1e0 f i item.obj
 0001:0005a200       ??0Item_decimal@@QAE@_JH@Z 0045b200 f   item.obj
 0001:0005a2c0       ??0Item_decimal@@QAE@NHH@Z 0045b2c0 f   item.obj
 0001:0005a350       ??0Item_decimal@@QAE@PBDPBVmy_decimal@@II@Z 0045b350 f   item.obj
 0001:0005a3c0       ??0Item_decimal@@QAE@PAVmy_decimal@@@Z 0045b3c0 f   item.obj
 0001:0005a450       ??0Item_decimal@@QAE@PBDHH@Z 0045b450 f   item.obj
 0001:0005a4f0       ??0Item_param@@QAE@I@Z     0045b4f0 f   item.obj
 0001:0005a680       ?result_type@Item_param@@UBE?AW4Item_result@@XZ 0045b680 f i item.obj
 0001:0005a690       ?type@Item_param@@UBE?AW4Type@Item@@XZ 0045b690 f i item.obj
 0001:0005a6a0       ?field_type@Item_param@@UBE?AW4enum_field_types@@XZ 0045b6a0 f i item.obj
 0001:0005a6b0       ?used_tables@Item_param@@UBE_KXZ 0045b6b0 f i item.obj
 0001:0005a6d0       ?is_null@Item_param@@UAEHXZ 0045b6d0 f i item.obj
 0001:0005a6f0       ??_GItem_param@@UAEPAXI@Z  0045b6f0 f i item.obj
 0001:0005a6f0       ??_EItem_param@@UAEPAXI@Z  0045b6f0 f i item.obj
 0001:0005a720       ?clone_item@Item_param@@UAEPAVItem@@XZ 0045b720 f   item.obj
 0001:0005a8b0       ?fix_outer_field@Item_field@@QAEHPAVTHD@@PAPAVField@@PAPAVItem@@@Z 0045b8b0 f   item.obj
 0001:0005b0a0       ?fix_fields@Item_field@@UAEHPAVTHD@@PAPAVItem@@@Z 0045c0a0 f   item.obj
 0001:0005b550       ?safe_charset_converter@Item_field@@UAEPAVItem@@PAUcharset_info_st@@@Z 0045c550 f   item.obj
 0001:0005b5c0       ?find_item_equal@Item_field@@QAEPAVItem_equal@@PAVCOND_EQUAL@@@Z 0045c5c0 f   item.obj
 0001:0005b630       ?equal_fields_propagator@Item_field@@UAEPAVItem@@PAE@Z 0045c630 f   item.obj
 0001:0005b680       ?clone_item@Item_int_with_ref@@UAEPAVItem@@XZ 0045c680 f   item.obj
 0001:0005b760       ?neg@Item_uint@@UAEPAVItem_num@@XZ 0045c760 f   item.obj
 0001:0005b7b0       ??0Item_float@@QAE@PBDI@Z  0045c7b0 f   item.obj
 0001:0005b850       ?safe_charset_converter@Item_hex_string@@UAEPAVItem@@PAUcharset_info_st@@@Z 0045c850 f   item.obj
 0001:0005b930       ??0Item_bin_string@@QAE@PBDI@Z 0045c930 f   item.obj
 0001:0005ba70       ??_EItem_bin_string@@UAEPAXI@Z 0045ca70 f i item.obj
 0001:0005ba70       ??_GItem_bin_string@@UAEPAXI@Z 0045ca70 f i item.obj
 0001:0005ba90       ?update_value_transformer@Item_field@@UAEPAVItem@@PAE@Z 0045ca90 f   item.obj
 0001:0005bb60       ?resolve_const_item@@YAXPAVTHD@@PAPAVItem@@PAV2@@Z 0045cb60 f   item.obj
 0001:0005bee0       ?get_cache@Item_cache@@SAPAV1@W4Item_result@@@Z 0045cee0 f   item.obj
 0001:0005bfa0       ?setup@Item_cache_row@@UAEHPAVItem@@@Z 0045cfa0 f   item.obj
 0001:0005c060       ??_EItem_type_holder@@UAEPAXI@Z 0045d060 f i item.obj
 0001:0005c060       ??_GItem_type_holder@@UAEPAXI@Z 0045d060 f i item.obj
 0001:0005c080       ?clone_item@Item_uint@@UAEPAVItem@@XZ 0045d080 f i item.obj
 0001:0005c0d0       ?clone_item@Item_decimal@@UAEPAVItem@@XZ 0045d0d0 f i item.obj
 0001:0005c110       ??0String@@QAE@K@Z         0045d110 f i item_buff.obj
 0001:0005c140       ?cmp@Field@@QAEHPBD@Z      0045d140 f i item_buff.obj
 0001:0005c160       ??0Cached_item@@QAE@XZ     0045d160 f i item_buff.obj
 0001:0005c170       ??1Cached_item@@UAE@XZ     0045d170 f   item_buff.obj
 0001:0005c180       ?cmp@Cached_item_str@@UAEHXZ 0045d180 f   item_buff.obj
 0001:0005c230       ?cmp@Cached_item_real@@UAEHXZ 0045d230 f   item_buff.obj
 0001:0005c280       ?cmp@Cached_item_int@@UAEHXZ 0045d280 f   item_buff.obj
 0001:0005c2d0       ?cmp@Cached_item_field@@UAEHXZ 0045d2d0 f   item_buff.obj
 0001:0005c370       ??0Cached_item_decimal@@QAE@PAVItem@@@Z 0045d370 f   item_buff.obj
 0001:0005c3b0       ?cmp@Cached_item_decimal@@UAEHXZ 0045d3b0 f   item_buff.obj
 0001:0005c450       ??_GCached_item@@UAEPAXI@Z 0045d450 f i item_buff.obj
 0001:0005c450       ??_ECached_item@@UAEPAXI@Z 0045d450 f i item_buff.obj
 0001:0005c460       ??0Cached_item_real@@QAE@PAVItem@@@Z 0045d460 f i item_buff.obj
 0001:0005c490       ??0Cached_item_int@@QAE@PAVItem@@@Z 0045d490 f i item_buff.obj
 0001:0005c4c0       ??0Cached_item_field@@QAE@PAVItem_field@@@Z 0045d4c0 f i item_buff.obj
 0001:0005c500       ??0Cached_item_str@@QAE@PAVTHD@@PAVItem@@@Z 0045d500 f   item_buff.obj
 0001:0005c570       ??1Cached_item_str@@UAE@XZ 0045d570 f   item_buff.obj
 0001:0005c5e0       ??_GCached_item_decimal@@UAEPAXI@Z 0045d5e0 f i item_buff.obj
 0001:0005c5e0       ??_ECached_item_decimal@@UAEPAXI@Z 0045d5e0 f i item_buff.obj
 0001:0005c5f0       ??_ECached_item_real@@UAEPAXI@Z 0045d5f0 f i item_buff.obj
 0001:0005c5f0       ??_GCached_item_real@@UAEPAXI@Z 0045d5f0 f i item_buff.obj
 0001:0005c600       ??_ECached_item_int@@UAEPAXI@Z 0045d600 f i item_buff.obj
 0001:0005c600       ??_GCached_item_int@@UAEPAXI@Z 0045d600 f i item_buff.obj
 0001:0005c610       ??_GCached_item_field@@UAEPAXI@Z 0045d610 f i item_buff.obj
 0001:0005c610       ??_ECached_item_field@@UAEPAXI@Z 0045d610 f i item_buff.obj
 0001:0005c620       ?new_Cached_item@@YAPAVCached_item@@PAVTHD@@PAVItem@@@Z 0045d620 f   item_buff.obj
 0001:0005c760       ??_GCached_item_str@@UAEPAXI@Z 0045d760 f i item_buff.obj
 0001:0005c760       ??_ECached_item_str@@UAEPAXI@Z 0045d760 f i item_buff.obj
 0001:0005c780       ??4String@@QAEAAV0@ABV0@@Z 0045d780 f i item_cmpfunc.obj
 0001:0005c7e0       ?uses_buffer_owned_by@String@@QBEHPBV1@@Z 0045d7e0 f i item_cmpfunc.obj
 0001:0005c820       ??_USql_alloc@@SAPAXI@Z    0045d820 f i item_cmpfunc.obj
 0001:0005c830       ??3Sql_alloc@@SAXPAXI@Z    0045d830 f i item_cmpfunc.obj
 0001:0005c840       ??_VSql_alloc@@SAXPAXI@Z   0045d840 f i item_cmpfunc.obj
 0001:0005c850       ??0base_list@@QAE@ABV0@@Z  0045d850 f i item_cmpfunc.obj
 0001:0005c880       ?is_empty@base_list@@QAEHXZ 0045d880 f i item_cmpfunc.obj
 0001:0005c8a0       ??1list_node@@QAE@XZ       0045d8a0 f i item_cmpfunc.obj
 0001:0005c8b0       ?replace@base_list_iterator@@QAEPAXPAX@Z 0045d8b0 f i item_cmpfunc.obj
 0001:0005c8d0       ?replace@base_list_iterator@@QAEPAXAAVbase_list@@@Z 0045d8d0 f i item_cmpfunc.obj
 0001:0005c950       ?ref@base_list_iterator@@QAEPAPAXXZ 0045d950 f i item_cmpfunc.obj
 0001:0005c960       ??0DTCollation@@QAE@XZ     0045d960 f i item_cmpfunc.obj
 0001:0005c980       ?set@DTCollation@@QAEHAAV1@0I@Z 0045d980 f i item_cmpfunc.obj
 0001:0005c9b0       ?quick_fix_field@Item@@QAEXXZ 0045d9b0 f i item_cmpfunc.obj
 0001:0005c9c0       ?any_value@Item_sum_hybrid@@QAEHXZ 0045d9c0 f i item_cmpfunc.obj
 0001:0005c9d0       ?arguments@Item_func@@QBEPAPAVItem@@XZ 0045d9d0 f i item_cmpfunc.obj
 0001:0005c9e0       ?agg_arg_charsets@Item_func@@QAEHAAVDTCollation@@PAPAVItem@@IIH@Z 0045d9e0 f i item_cmpfunc.obj
 0001:0005ca20       ??0Arg_comparator@@QAE@XZ  0045da20 f i item_cmpfunc.obj
 0001:0005ca50       ??0Arg_comparator@@QAE@PAPAVItem@@0@Z 0045da50 f i item_cmpfunc.obj
 0001:0005ca90       ?compare@Arg_comparator@@QAEHXZ 0045da90 f i item_cmpfunc.obj
 0001:0005caa0       ??1Arg_comparator@@QAE@XZ  0045daa0 f i item_cmpfunc.obj
 0001:0005cab0       ??0in_vector@@QAE@XZ       0045dab0 f i item_cmpfunc.obj
 0001:0005cac0       ??0in_vector@@QAE@IIP6AHPBX00@ZPAUcharset_info_st@@@Z 0045dac0 f i item_cmpfunc.obj
 0001:0005cb20       ??1in_vector@@UAE@XZ       0045db20 f i item_cmpfunc.obj
 0001:0005cb30       ?sort@in_vector@@QAEXXZ    0045db30 f i item_cmpfunc.obj
 0001:0005cb60       ?create_item@in_vector@@UAEPAVItem@@XZ 0045db60 f i item_cmpfunc.obj
 0001:0005cb70       ?value_to_item@in_vector@@UAEXIPAVItem@@@Z 0045db70 f i item_cmpfunc.obj
 0001:0005cb80       ??_Gin_vector@@UAEPAXI@Z   0045db80 f i item_cmpfunc.obj
 0001:0005cb80       ??_Ein_vector@@UAEPAXI@Z   0045db80 f i item_cmpfunc.obj
 0001:0005cb90       ??1in_longlong@@UAE@XZ     0045db90 f i item_cmpfunc.obj
 0001:0005cba0       ??0cmp_item@@QAE@XZ        0045dba0 f i item_cmpfunc.obj
 0001:0005cbc0       ??1cmp_item@@UAE@XZ        0045dbc0 f i item_cmpfunc.obj
 0001:0005cbd0       ?store_value_by_template@cmp_item@@UAEXPAV1@PAVItem@@@Z 0045dbd0 f i item_cmpfunc.obj
 0001:0005cbe0       ??_Ecmp_item@@UAEPAXI@Z    0045dbe0 f i item_cmpfunc.obj
 0001:0005cbe0       ??_Gcmp_item@@UAEPAXI@Z    0045dbe0 f i item_cmpfunc.obj
 0001:0005cbf0       ??0cmp_item_string@@QAE@PAUcharset_info_st@@@Z 0045dbf0 f i item_cmpfunc.obj
 0001:0005cc10       ??1cmp_item_string@@UAE@XZ 0045dc10 f i item_cmpfunc.obj
 0001:0005cc20       ??0cmp_item_int@@QAE@XZ    0045dc20 f i item_cmpfunc.obj
 0001:0005cc40       ?store_value@cmp_item_int@@UAEXPAVItem@@@Z 0045dc40 f i item_cmpfunc.obj
 0001:0005cc60       ?cmp@cmp_item_int@@UAEHPAVItem@@@Z 0045dc60 f i item_cmpfunc.obj
 0001:0005cca0       ?compare@cmp_item_int@@UAEHPAVcmp_item@@@Z 0045dca0 f i item_cmpfunc.obj
 0001:0005ccf0       ??0cmp_item_datetime@@QAE@PAVItem@@@Z 0045dcf0 f i item_cmpfunc.obj
 0001:0005cd40       ??0cmp_item_real@@QAE@XZ   0045dd40 f i item_cmpfunc.obj
 0001:0005cd60       ?store_value@cmp_item_real@@UAEXPAVItem@@@Z 0045dd60 f i item_cmpfunc.obj
 0001:0005cd80       ?cmp@cmp_item_real@@UAEHPAVItem@@@Z 0045dd80 f i item_cmpfunc.obj
 0001:0005cdb0       ?compare@cmp_item_real@@UAEHPAVcmp_item@@@Z 0045ddb0 f i item_cmpfunc.obj
 0001:0005ce00       ??0cmp_item_decimal@@QAE@XZ 0045de00 f i item_cmpfunc.obj
 0001:0005ce30       ??0cmp_item_row@@QAE@XZ    0045de30 f i item_cmpfunc.obj
 0001:0005ce50       ??1?$List@VItem_field@@@@QAE@XZ 0045de50 f i item_cmpfunc.obj
 0001:0005ce60       ??1?$List@VItem_equal@@@@QAE@XZ 0045de60 f i item_cmpfunc.obj
 0001:0005ce70       ??1COND_EQUAL@@QAE@XZ      0045de70 f i item_cmpfunc.obj
 0001:0005ce80       ?any_value@Item_maxmin_subselect@@QAEHXZ 0045de80 f i item_cmpfunc.obj
 0001:0005ce90       ?set_cond_guard_var@Item_in_subselect@@QAEXHH@Z 0045de90 f i item_cmpfunc.obj
 0001:0005ceb0       ?is_top_level_item@Item_in_subselect@@QAEHXZ 0045deb0 f i item_cmpfunc.obj
 0001:0005cec0       ?set_used_tables@Item_cache@@QAEX_K@Z 0045dec0 f i item_cmpfunc.obj
 0001:0005cee0       ?is_context_analysis_only@THD@@QAEHXZ 0045dee0 f i item_cmpfunc.obj
 0001:0005d240       ?val_int@Item_func_not@@UAE_JXZ 0045e240 f   item_cmpfunc.obj
 0001:0005d280       ?print@Item_func_not@@UAEXPAVString@@@Z 0045e280 f   item_cmpfunc.obj
 0001:0005d310       ?empty_underlying_subquery@Item_func_not_all@@QAEHXZ 0045e310 f   item_cmpfunc.obj
 0001:0005d350       ?print@Item_func_not_all@@UAEXPAVString@@@Z 0045e350 f   item_cmpfunc.obj
 0001:0005d380       ?val_int@Item_func_nop_all@@UAE_JXZ 0045e380 f   item_cmpfunc.obj
 0001:0005d400       ??_EArg_comparator@@QAEPAXI@Z 0045e400 f i item_cmpfunc.obj
 0001:0005d4f0       ?compare_datetime@Arg_comparator@@QAEHXZ 0045e4f0 f   item_cmpfunc.obj
 0001:0005d610       ?compare_string@Arg_comparator@@QAEHXZ 0045e610 f   item_cmpfunc.obj
 0001:0005d680       ?compare_binary_string@Arg_comparator@@QAEHXZ 0045e680 f   item_cmpfunc.obj
 0001:0005d710       ?compare_e_string@Arg_comparator@@QAEHXZ 0045e710 f   item_cmpfunc.obj
 0001:0005d780       ?compare_e_binary_string@Arg_comparator@@QAEHXZ 0045e780 f   item_cmpfunc.obj
 0001:0005d7f0       ?compare_real@Arg_comparator@@QAEHXZ 0045e7f0 f   item_cmpfunc.obj
 0001:0005d8a0       ?compare_decimal@Arg_comparator@@QAEHXZ 0045e8a0 f   item_cmpfunc.obj
 0001:0005d950       ?compare_e_real@Arg_comparator@@QAEHXZ 0045e950 f   item_cmpfunc.obj
 0001:0005d9d0       ?compare_e_decimal@Arg_comparator@@QAEHXZ 0045e9d0 f   item_cmpfunc.obj
 0001:0005da90       ?compare_real_fixed@Arg_comparator@@QAEHXZ 0045ea90 f   item_cmpfunc.obj
 0001:0005db60       ?compare_e_real_fixed@Arg_comparator@@QAEHXZ 0045eb60 f   item_cmpfunc.obj
 0001:0005dc10       ?compare_int_signed@Arg_comparator@@QAEHXZ 0045ec10 f   item_cmpfunc.obj
 0001:0005dca0       ?compare_int_unsigned@Arg_comparator@@QAEHXZ 0045eca0 f   item_cmpfunc.obj
 0001:0005dd30       ?compare_int_signed_unsigned@Arg_comparator@@QAEHXZ 0045ed30 f   item_cmpfunc.obj
 0001:0005ddc0       ?compare_int_unsigned_signed@Arg_comparator@@QAEHXZ 0045edc0 f   item_cmpfunc.obj
 0001:0005de60       ?compare_e_int@Arg_comparator@@QAEHXZ 0045ee60 f   item_cmpfunc.obj
 0001:0005dee0       ?compare_e_int_diff_signedness@Arg_comparator@@QAEHXZ 0045eee0 f   item_cmpfunc.obj
 0001:0005df60       ?compare_row@Arg_comparator@@QAEHXZ 0045ef60 f   item_cmpfunc.obj
 0001:0005e040       ?compare_e_row@Arg_comparator@@QAEHXZ 0045f040 f   item_cmpfunc.obj
 0001:0005e0b0       ?fix_length_and_dec@Item_func_truth@@UAEXXZ 0045f0b0 f   item_cmpfunc.obj
 0001:0005e0d0       ?print@Item_func_truth@@UAEXPAVString@@@Z 0045f0d0 f   item_cmpfunc.obj
 0001:0005e1c0       ?val_bool@Item_func_truth@@UAEHXZ 0045f1c0 f   item_cmpfunc.obj
 0001:0005e230       ?val_int@Item_func_truth@@UAE_JXZ 0045f230 f   item_cmpfunc.obj
 0001:0005e240       ?fix_left@Item_in_optimizer@@QAEHPAVTHD@@PAPAVItem@@@Z 0045f240 f   item_cmpfunc.obj
 0001:0005e3f0       ?fix_fields@Item_in_optimizer@@UAEHPAVTHD@@PAPAVItem@@@Z 0045f3f0 f   item_cmpfunc.obj
 0001:0005e550       ?val_int@Item_in_optimizer@@UAE_JXZ 0045f550 f   item_cmpfunc.obj
 0001:0005e720       ?keep_top_level_cache@Item_in_optimizer@@QAEXXZ 0045f720 f   item_cmpfunc.obj
 0001:0005e750       ?cleanup@Item_in_optimizer@@UAEXXZ 0045f750 f   item_cmpfunc.obj
 0001:0005e780       ?is_null@Item_in_optimizer@@UAEHXZ 0045f780 f   item_cmpfunc.obj
 0001:0005e7e0       ?val_int@Item_func_eq@@UAE_JXZ 0045f7e0 f   item_cmpfunc.obj
 0001:0005e800       ?val_int@Item_func_equal@@UAE_JXZ 0045f800 f   item_cmpfunc.obj
 0001:0005e810       ?val_int@Item_func_ne@@UAE_JXZ 0045f810 f   item_cmpfunc.obj
 0001:0005e840       ?val_int@Item_func_ge@@UAE_JXZ 0045f840 f   item_cmpfunc.obj
 0001:0005e860       ?val_int@Item_func_gt@@UAE_JXZ 0045f860 f   item_cmpfunc.obj
 0001:0005e880       ?val_int@Item_func_le@@UAE_JXZ 0045f880 f   item_cmpfunc.obj
 0001:0005e8b0       ?val_int@Item_func_lt@@UAE_JXZ 0045f8b0 f   item_cmpfunc.obj
 0001:0005e8e0       ?val_int@Item_func_strcmp@@UAE_JXZ 0045f8e0 f   item_cmpfunc.obj
 0001:0005e970       ?eq@Item_func_opt_neg@@UBEHPBVItem@@H@Z 0045f970 f   item_cmpfunc.obj
 0001:0005ea40       ?fix_length_and_dec@Item_func_interval@@UAEXXZ 0045fa40 f   item_cmpfunc.obj
 0001:0005ed60       ?val_int@Item_func_interval@@UAE_JXZ 0045fd60 f   item_cmpfunc.obj
 0001:0005f060       ?fix_fields@Item_func_between@@UAEHPAVTHD@@PAPAVItem@@@Z 00460060 f   item_cmpfunc.obj
 0001:0005f120       ?val_int@Item_func_between@@UAE_JXZ 00460120 f   item_cmpfunc.obj
 0001:0005f6e0       ?print@Item_func_between@@UAEXPAVString@@@Z 004606e0 f   item_cmpfunc.obj
 0001:0005f7e0       ?fix_length_and_dec@Item_func_ifnull@@UAEXXZ 004607e0 f   item_cmpfunc.obj
 0001:0005f920       ?decimal_precision@Item_func_ifnull@@UBEIXZ 00460920 f   item_cmpfunc.obj
 0001:0005f9d0       ?field_type@Item_func_ifnull@@UBE?AW4enum_field_types@@XZ 004609d0 f   item_cmpfunc.obj
 0001:0005f9e0       ?tmp_table_field@Item_func_ifnull@@UAEPAVField@@PAUst_table@@@Z 004609e0 f   item_cmpfunc.obj
 0001:0005f9f0       ?real_op@Item_func_ifnull@@UAENXZ 004609f0 f   item_cmpfunc.obj
 0001:0005fa50       ?int_op@Item_func_ifnull@@UAE_JXZ 00460a50 f   item_cmpfunc.obj
 0001:0005fab0       ?decimal_op@Item_func_ifnull@@UAEPAVmy_decimal@@PAV2@@Z 00460ab0 f   item_cmpfunc.obj
 0001:0005fb20       ?str_op@Item_func_ifnull@@UAEPAVString@@PAV2@@Z 00460b20 f   item_cmpfunc.obj
 0001:0005fb90       ?fix_fields@Item_func_if@@UAEHPAVTHD@@PAPAVItem@@@Z 00460b90 f   item_cmpfunc.obj
 0001:0005fc10       ?fix_length_and_dec@Item_func_if@@UAEXXZ 00460c10 f   item_cmpfunc.obj
 0001:0005fe60       ?decimal_precision@Item_func_if@@UBEIXZ 00460e60 f   item_cmpfunc.obj
 0001:0005ff10       ?val_real@Item_func_if@@UAENXZ 00460f10 f   item_cmpfunc.obj
 0001:0005ff60       ?val_int@Item_func_if@@UAE_JXZ 00460f60 f   item_cmpfunc.obj
 0001:0005ffb0       ?val_str@Item_func_if@@UAEPAVString@@PAV2@@Z 00460fb0 f   item_cmpfunc.obj
 0001:00060010       ?val_decimal@Item_func_if@@UAEPAVmy_decimal@@PAV2@@Z 00461010 f   item_cmpfunc.obj
 0001:00060060       ?val_real@Item_func_nullif@@UAENXZ 00461060 f   item_cmpfunc.obj
 0001:000600a0       ?val_int@Item_func_nullif@@UAE_JXZ 004610a0 f   item_cmpfunc.obj
 0001:000600e0       ?val_str@Item_func_nullif@@UAEPAVString@@PAV2@@Z 004610e0 f   item_cmpfunc.obj
 0001:00060130       ?val_decimal@Item_func_nullif@@UAEPAVmy_decimal@@PAV2@@Z 00461130 f   item_cmpfunc.obj
 0001:00060180       ?is_null@Item_func_nullif@@UAEHXZ 00461180 f   item_cmpfunc.obj
 0001:000601c0       ?fix_fields@Item_func_case@@UAEHPAVTHD@@PAPAVItem@@@Z 004611c0 f   item_cmpfunc.obj
 0001:00060240       ?fix_length_and_dec@Item_func_case@@UAEXXZ 00461240 f   item_cmpfunc.obj
 0001:00060490       ?decimal_precision@Item_func_case@@UBEIXZ 00461490 f   item_cmpfunc.obj
 0001:00060590       ?print@Item_func_case@@UAEXPAVString@@@Z 00461590 f   item_cmpfunc.obj
 0001:00060720       ?str_op@Item_func_coalesce@@UAEPAVString@@PAV2@@Z 00461720 f   item_cmpfunc.obj
 0001:00060770       ?int_op@Item_func_coalesce@@UAE_JXZ 00461770 f   item_cmpfunc.obj
 0001:000607c0       ?real_op@Item_func_coalesce@@UAENXZ 004617c0 f   item_cmpfunc.obj
 0001:00060810       ?decimal_op@Item_func_coalesce@@UAEPAVmy_decimal@@PAV2@@Z 00461810 f   item_cmpfunc.obj
 0001:00060870       ?fix_length_and_dec@Item_func_coalesce@@UAEXXZ 00461870 f   item_cmpfunc.obj
 0001:000609a0       ?cmp_longlong@@YAHPAXPAUpacked_longlong@in_longlong@@1@Z 004619a0 f   item_cmpfunc.obj
 0001:00060b20       ?find@in_vector@@QAEHPAVItem@@@Z 00461b20 f   item_cmpfunc.obj
 0001:00060be0       ?set@in_string@@UAEXIPAVItem@@@Z 00461be0 f   item_cmpfunc.obj
 0001:00060c70       ?get_value@in_string@@UAEPAEPAVItem@@@Z 00461c70 f   item_cmpfunc.obj
 0001:00060c90       ?get_value@in_row@@UAEPAEPAVItem@@@Z 00461c90 f   item_cmpfunc.obj
 0001:00060cd0       ?set@in_row@@UAEXIPAVItem@@@Z 00461cd0 f   item_cmpfunc.obj
 0001:00060d00       ??0in_longlong@@QAE@I@Z    00461d00 f   item_cmpfunc.obj
 0001:00060d60       ?value_to_item@in_longlong@@UAEXIPAVItem@@@Z 00461d60 f i item_cmpfunc.obj
 0001:00060da0       ??_Ein_longlong@@UAEPAXI@Z 00461da0 f i item_cmpfunc.obj
 0001:00060da0       ??_Gin_longlong@@UAEPAXI@Z 00461da0 f i item_cmpfunc.obj
 0001:00060db0       ?set@in_longlong@@UAEXIPAVItem@@@Z 00461db0 f   item_cmpfunc.obj
 0001:00060df0       ?get_value@in_longlong@@UAEPAEPAVItem@@@Z 00461df0 f   item_cmpfunc.obj
 0001:00060e40       ??0in_double@@QAE@I@Z      00461e40 f   item_cmpfunc.obj
 0001:00060ea0       ?value_to_item@in_double@@UAEXIPAVItem@@@Z 00461ea0 f i item_cmpfunc.obj
 0001:00060ec0       ?set@in_double@@UAEXIPAVItem@@@Z 00461ec0 f   item_cmpfunc.obj
 0001:00060ee0       ?get_value@in_double@@UAEPAEPAVItem@@@Z 00461ee0 f   item_cmpfunc.obj
 0001:00060f10       ??0in_decimal@@QAE@I@Z     00461f10 f   item_cmpfunc.obj
 0001:00060f80       ?create_item@in_decimal@@UAEPAVItem@@XZ 00461f80 f i item_cmpfunc.obj
 0001:00060fb0       ?value_to_item@in_decimal@@UAEXIPAVItem@@@Z 00461fb0 f i item_cmpfunc.obj
 0001:00060fd0       ?set@in_decimal@@UAEXIPAVItem@@@Z 00461fd0 f   item_cmpfunc.obj
 0001:00061030       ?get_value@in_decimal@@UAEPAEPAVItem@@@Z 00462030 f   item_cmpfunc.obj
 0001:00061060       ?make_same@cmp_item_int@@UAEPAVcmp_item@@XZ 00462060 f   item_cmpfunc.obj
 0001:00061090       ?make_same@cmp_item_real@@UAEPAVcmp_item@@XZ 00462090 f   item_cmpfunc.obj
 0001:000610c0       ?make_same@cmp_item_row@@UAEPAVcmp_item@@XZ 004620c0 f   item_cmpfunc.obj
 0001:000610f0       ??1cmp_item_row@@UAE@XZ    004620f0 f   item_cmpfunc.obj
 0001:00061150       ?alloc_comparators@cmp_item_row@@QAEXXZ 00462150 f i item_cmpfunc.obj
 0001:000611c0       ?store_value_by_template@cmp_item_row@@UAEXPAVcmp_item@@PAVItem@@@Z 004621c0 f   item_cmpfunc.obj
 0001:000612d0       ?cmp@cmp_item_row@@UAEHPAVItem@@@Z 004622d0 f   item_cmpfunc.obj
 0001:000613a0       ?compare@cmp_item_row@@UAEHPAVcmp_item@@@Z 004623a0 f   item_cmpfunc.obj
 0001:000613f0       ?store_value@cmp_item_decimal@@UAEXPAVItem@@@Z 004623f0 f   item_cmpfunc.obj
 0001:00061430       ?cmp@cmp_item_decimal@@UAEHPAVItem@@@Z 00462430 f   item_cmpfunc.obj
 0001:000614a0       ?compare@cmp_item_decimal@@UAEHPAVcmp_item@@@Z 004624a0 f   item_cmpfunc.obj
 0001:000614c0       ?make_same@cmp_item_decimal@@UAEPAVcmp_item@@XZ 004624c0 f   item_cmpfunc.obj
 0001:00061500       ?compare@cmp_item_datetime@@UAEHPAVcmp_item@@@Z 00462500 f   item_cmpfunc.obj
 0001:00061550       ?make_same@cmp_item_datetime@@UAEPAVcmp_item@@XZ 00462550 f   item_cmpfunc.obj
 0001:000615b0       ?nulls_in_row@Item_func_in@@QAEHXZ 004625b0 f   item_cmpfunc.obj
 0001:00061600       ?fix_fields@Item_func_in@@UAEHPAVTHD@@PAPAVItem@@@Z 00462600 f   item_cmpfunc.obj
 0001:00061700       ?print@Item_func_in@@UAEXPAVString@@@Z 00462700 f   item_cmpfunc.obj
 0001:000617b0       ?val_int@Item_func_in@@UAE_JXZ 004627b0 f   item_cmpfunc.obj
 0001:000618f0       ?val_int@Item_func_bit_or@@UAE_JXZ 004628f0 f   item_cmpfunc.obj
 0001:00061950       ?val_int@Item_func_bit_and@@UAE_JXZ 00462950 f   item_cmpfunc.obj
 0001:000619b0       ?used_tables@Item_cond@@UBE_KXZ 004629b0 f   item_cmpfunc.obj
 0001:000619c0       ?val_int@Item_func_isnull@@UAE_JXZ 004629c0 f   item_cmpfunc.obj
 0001:00061a00       ?val_int@Item_is_not_null_test@@UAE_JXZ 00462a00 f   item_cmpfunc.obj
 0001:00061a90       ?update_used_tables@Item_is_not_null_test@@UAEXXZ 00462a90 f   item_cmpfunc.obj
 0001:00061b50       ?val_int@Item_func_isnotnull@@UAE_JXZ 00462b50 f   item_cmpfunc.obj
 0001:00061b70       ?print@Item_func_isnotnull@@UAEXPAVString@@@Z 00462b70 f   item_cmpfunc.obj
 0001:00061be0       ?select_optimize@Item_func_like@@UBE?AW4optimize_type@Item_func@@XZ 00462be0 f   item_cmpfunc.obj
 0001:00061c60       ?cleanup@Item_func_like@@UAEXXZ 00462c60 f   item_cmpfunc.obj
 0001:00061c80       ?cleanup@Item_func_regex@@UAEXXZ 00462c80 f   item_cmpfunc.obj
 0001:00061cc0       ?turboBM_compute_suffixes@Item_func_like@@AAEXPAH@Z 00462cc0 f   item_cmpfunc.obj
 0001:00061e40       ?turboBM_compute_good_suffix_shifts@Item_func_like@@AAEXPAH@Z 00462e40 f   item_cmpfunc.obj
 0001:00061f50       ?turboBM_compute_bad_character_shifts@Item_func_like@@AAEXXZ 00462f50 f   item_cmpfunc.obj
 0001:00062010       ?turboBM_matches@Item_func_like@@ABEHPBDH@Z 00463010 f   item_cmpfunc.obj
 0001:000622f0       ?neg_transformer@Item_func_not@@UAEPAVItem@@PAVTHD@@@Z 004632f0 f   item_cmpfunc.obj
 0001:00062300       ?neg_transformer@Item_bool_rowready_func2@@UAEPAVItem@@PAVTHD@@@Z 00463300 f   item_cmpfunc.obj
 0001:00062310       ?negated_item@Item_bool_rowready_func2@@UAEPAVItem@@XZ 00463310 f   item_cmpfunc.obj
 0001:00062320       ?members@Item_equal@@QAEIXZ 00463320 f   item_cmpfunc.obj
 0001:00062330       ??0?$List@VItem@@@@QAE@ABV0@@Z 00463330 f i item_cmpfunc.obj
 0001:00062360       ??0?$List@VItem_field@@@@QAE@XZ 00463360 f i item_cmpfunc.obj
 0001:00062380       ??0?$List@VItem_equal@@@@QAE@XZ 00463380 f i item_cmpfunc.obj
 0001:000623a0       ??E?$List_iterator_fast@VItem_field@@@@QAEPAVItem_field@@H@Z 004633a0 f i item_cmpfunc.obj
 0001:000623c0       ??E?$List_iterator_fast@VItem@@@@QAEPAVItem@@H@Z 004633c0 f i item_cmpfunc.obj
 0001:000623e0       ??E?$List_iterator@VItem@@@@QAEPAVItem@@H@Z 004633e0 f i item_cmpfunc.obj
 0001:00062400       ?replace@?$List_iterator@VItem@@@@QAEPAVItem@@PAV2@@Z 00463400 f i item_cmpfunc.obj
 0001:00062420       ?replace@?$List_iterator@VItem@@@@QAEPAVItem@@AAV?$List@VItem@@@@@Z 00463420 f i item_cmpfunc.obj
 0001:00062430       ?ref@?$List_iterator@VItem@@@@QAEPAPAVItem@@XZ 00463430 f i item_cmpfunc.obj
 0001:00062440       ?rewind@?$List_iterator@VItem_field@@@@QAEXXZ 00463440 f i item_cmpfunc.obj
 0001:00062450       ?ref@?$List_iterator@VItem_field@@@@QAEPAPAVItem_field@@XZ 00463450 f i item_cmpfunc.obj
 0001:00062460       ??_9@$BBAM@AE              00463460 f i item_cmpfunc.obj
 0001:00062470       ?concat@base_list@@QAEXPAV1@@Z 00463470 f i item_cmpfunc.obj
 0001:000624a0       ??_Glist_node@@QAEPAXI@Z   004634a0 f i item_cmpfunc.obj
 0001:000624b0       ??0Item_int@@QAE@_JI@Z     004634b0 f i item_cmpfunc.obj
 0001:000624f0       ??0Item_int_with_ref@@QAE@_JPAVItem@@D@Z 004634f0 f i item_cmpfunc.obj
 0001:00062540       ?save_in_field@Item_int_with_ref@@UAEHPAVField@@H@Z 00463540 f i item_cmpfunc.obj
 0001:00062550       ?real_item@Item_int_with_ref@@UAEPAVItem@@XZ 00463550 f i item_cmpfunc.obj
 0001:00062560       ??0Item_func@@QAE@XZ       00463560 f i item_cmpfunc.obj
 0001:00062590       ??0Item_func@@QAE@PAVItem@@0@Z 00463590 f i item_cmpfunc.obj
 0001:00062610       ??0Item_int_func@@QAE@XZ   00463610 f i item_cmpfunc.obj
 0001:00062650       ?result_type@Item_int_func@@UBE?AW4Item_result@@XZ 00463650 f i item_cmpfunc.obj
 0001:00062660       ?fix_length_and_dec@Item_int_func@@UAEXXZ 00463660 f i item_cmpfunc.obj
 0001:00062670       ??0Item_int_func@@QAE@PAVItem@@@Z 00463670 f i item_cmpfunc.obj
 0001:000626d0       ??0Item_int_func@@QAE@PAVItem@@0@Z 004636d0 f i item_cmpfunc.obj
 0001:00062700       ??0Item_int_func@@QAE@PAVTHD@@PAV0@@Z 00463700 f i item_cmpfunc.obj
 0001:00062730       ??1Item_int_func@@UAE@XZ   00463730 f i item_cmpfunc.obj
 0001:00062770       ??0Item_bool_func@@QAE@XZ  00463770 f i item_cmpfunc.obj
 0001:000627b0       ?is_bool_func@Item_bool_func@@UAEHXZ 004637b0 f i item_cmpfunc.obj
 0001:000627c0       ?fix_length_and_dec@Item_bool_func@@UAEXXZ 004637c0 f i item_cmpfunc.obj
 0001:000627d0       ?decimal_precision@Item_bool_func@@UBEIXZ 004637d0 f i item_cmpfunc.obj
 0001:000627e0       ??0Item_bool_func@@QAE@PAVItem@@@Z 004637e0 f i item_cmpfunc.obj
 0001:00062840       ??0Item_bool_func@@QAE@PAVTHD@@PAV0@@Z 00463840 f i item_cmpfunc.obj
 0001:00062870       ??1Item_bool_func@@UAE@XZ  00463870 f i item_cmpfunc.obj
 0001:000628b0       ??0Item_bool_func2@@QAE@PAVItem@@0@Z 004638b0 f i item_cmpfunc.obj
 0001:00062990       ?select_optimize@Item_bool_func2@@UBE?AW4optimize_type@Item_func@@XZ 00463990 f i item_cmpfunc.obj
 0001:000629a0       ?rev_functype@Item_bool_func2@@UBE?AW4Functype@Item_func@@XZ 004639a0 f i item_cmpfunc.obj
 0001:000629b0       ?have_rev_func@Item_bool_func2@@UBEHXZ 004639b0 f i item_cmpfunc.obj
 0001:000629d0       ?print@Item_bool_func2@@UAEXPAVString@@@Z 004639d0 f i item_cmpfunc.obj
 0001:000629e0       ?is_null@Item_bool_func2@@UAEHXZ 004639e0 f i item_cmpfunc.obj
 0001:00062a20       ?is_bool_func@Item_bool_func2@@UAEHXZ 00463a20 f i item_cmpfunc.obj
 0001:00062a30       ?compare_collation@Item_bool_func2@@UAEPAUcharset_info_st@@XZ 00463a30 f i item_cmpfunc.obj
 0001:00062a40       ?decimal_precision@Item_bool_func2@@UBEIXZ 00463a40 f i item_cmpfunc.obj
 0001:00062a50       ?top_level_item@Item_bool_func2@@UAEXXZ 00463a50 f i item_cmpfunc.obj
 0001:00062a60       ??1Item_bool_func2@@UAE@XZ 00463a60 f i item_cmpfunc.obj
 0001:00062b10       ??0Item_bool_rowready_func2@@QAE@PAVItem@@0@Z 00463b10 f i item_cmpfunc.obj
 0001:00062b40       ?subst_argument_checker@Item_bool_rowready_func2@@UAEHPAPAE@Z 00463b40 f i item_cmpfunc.obj
 0001:00062b50       ??1Item_bool_rowready_func2@@UAE@XZ 00463b50 f i item_cmpfunc.obj
 0001:00062b60       ??0Item_func_not@@QAE@PAVItem@@@Z 00463b60 f i item_cmpfunc.obj
 0001:00062bc0       ?functype@Item_func_not@@UBE?AW4Functype@Item_func@@XZ 00463bc0 f i item_cmpfunc.obj
 0001:00062bd0       ?func_name@Item_func_not@@UBEPBDXZ 00463bd0 f i item_cmpfunc.obj
 0001:00062be0       ??1Item_func_not@@UAE@XZ   00463be0 f i item_cmpfunc.obj
 0001:00062c20       ??0Item_func_not_all@@QAE@PAVItem@@@Z 00463c20 f i item_cmpfunc.obj
 0001:00062ca0       ?top_level_item@Item_func_not_all@@UAEXXZ 00463ca0 f i item_cmpfunc.obj
 0001:00062cb0       ?functype@Item_func_not_all@@UBE?AW4Functype@Item_func@@XZ 00463cb0 f i item_cmpfunc.obj
 0001:00062cc0       ?func_name@Item_func_not_all@@UBEPBDXZ 00463cc0 f i item_cmpfunc.obj
 0001:00062cd0       ??1Item_func_not_all@@UAE@XZ 00463cd0 f i item_cmpfunc.obj
 0001:00062d10       ??0Item_func_nop_all@@QAE@PAVItem@@@Z 00463d10 f i item_cmpfunc.obj
 0001:00062d30       ?func_name@Item_func_nop_all@@UBEPBDXZ 00463d30 f i item_cmpfunc.obj
 0001:00062d40       ??0Item_func_eq@@QAE@PAVItem@@0@Z 00463d40 f i item_cmpfunc.obj
 0001:00062d70       ?functype@Item_func_eq@@UBE?AW4Functype@Item_func@@XZ 00463d70 f i item_cmpfunc.obj
 0001:00062d80       ?rev_functype@Item_func_eq@@UBE?AW4Functype@Item_func@@XZ 00463d80 f i item_cmpfunc.obj
 0001:00062d90       ?eq_cmp_result@Item_func_eq@@UBE?AW4cond_result@Item@@XZ 00463d90 f i item_cmpfunc.obj
 0001:00062da0       ?func_name@Item_func_eq@@UBEPBDXZ 00463da0 f i item_cmpfunc.obj
 0001:00062db0       ??0Item_func_ge@@QAE@PAVItem@@0@Z 00463db0 f i item_cmpfunc.obj
 0001:00062de0       ?functype@Item_func_ge@@UBE?AW4Functype@Item_func@@XZ 00463de0 f i item_cmpfunc.obj
 0001:00062df0       ?rev_functype@Item_func_ge@@UBE?AW4Functype@Item_func@@XZ 00463df0 f i item_cmpfunc.obj
 0001:00062e00       ?eq_cmp_result@Item_func_ge@@UBE?AW4cond_result@Item@@XZ 00463e00 f i item_cmpfunc.obj
 0001:00062e10       ?func_name@Item_func_ge@@UBEPBDXZ 00463e10 f i item_cmpfunc.obj
 0001:00062e20       ??0Item_func_gt@@QAE@PAVItem@@0@Z 00463e20 f i item_cmpfunc.obj
 0001:00062e50       ?functype@Item_func_gt@@UBE?AW4Functype@Item_func@@XZ 00463e50 f i item_cmpfunc.obj
 0001:00062e60       ?rev_functype@Item_func_gt@@UBE?AW4Functype@Item_func@@XZ 00463e60 f i item_cmpfunc.obj
 0001:00062e70       ?eq_cmp_result@Item_func_gt@@UBE?AW4cond_result@Item@@XZ 00463e70 f i item_cmpfunc.obj
 0001:00062e80       ?func_name@Item_func_gt@@UBEPBDXZ 00463e80 f i item_cmpfunc.obj
 0001:00062e90       ??0Item_func_le@@QAE@PAVItem@@0@Z 00463e90 f i item_cmpfunc.obj
 0001:00062ec0       ?functype@Item_func_le@@UBE?AW4Functype@Item_func@@XZ 00463ec0 f i item_cmpfunc.obj
 0001:00062ed0       ?rev_functype@Item_func_le@@UBE?AW4Functype@Item_func@@XZ 00463ed0 f i item_cmpfunc.obj
 0001:00062ee0       ?eq_cmp_result@Item_func_le@@UBE?AW4cond_result@Item@@XZ 00463ee0 f i item_cmpfunc.obj
 0001:00062ef0       ?func_name@Item_func_le@@UBEPBDXZ 00463ef0 f i item_cmpfunc.obj
 0001:00062f00       ??0Item_func_lt@@QAE@PAVItem@@0@Z 00463f00 f i item_cmpfunc.obj
 0001:00062f30       ?functype@Item_func_lt@@UBE?AW4Functype@Item_func@@XZ 00463f30 f i item_cmpfunc.obj
 0001:00062f40       ?rev_functype@Item_func_lt@@UBE?AW4Functype@Item_func@@XZ 00463f40 f i item_cmpfunc.obj
 0001:00062f50       ?eq_cmp_result@Item_func_lt@@UBE?AW4cond_result@Item@@XZ 00463f50 f i item_cmpfunc.obj
 0001:00062f60       ?func_name@Item_func_lt@@UBEPBDXZ 00463f60 f i item_cmpfunc.obj
 0001:00062f70       ??0Item_func_ne@@QAE@PAVItem@@0@Z 00463f70 f i item_cmpfunc.obj
 0001:00062fa0       ?functype@Item_func_ne@@UBE?AW4Functype@Item_func@@XZ 00463fa0 f i item_cmpfunc.obj
 0001:00062fb0       ?eq_cmp_result@Item_func_ne@@UBE?AW4cond_result@Item@@XZ 00463fb0 f i item_cmpfunc.obj
 0001:00062fc0       ?select_optimize@Item_func_ne@@UBE?AW4optimize_type@Item_func@@XZ 00463fc0 f i item_cmpfunc.obj
 0001:00062fd0       ?func_name@Item_func_ne@@UBEPBDXZ 00463fd0 f i item_cmpfunc.obj
 0001:00062fe0       ?create_item@in_longlong@@UAEPAVItem@@XZ 00463fe0 f i item_cmpfunc.obj
 0001:00063030       ??0in_datetime@@QAE@PAVItem@@I@Z 00464030 f i item_cmpfunc.obj
 0001:000630c0       ??_Ein_datetime@@UAEPAXI@Z 004640c0 f i item_cmpfunc.obj
 0001:000630c0       ??_Gin_datetime@@UAEPAXI@Z 004640c0 f i item_cmpfunc.obj
 0001:000630d0       ?create_item@in_double@@UAEPAVItem@@XZ 004640d0 f i item_cmpfunc.obj
 0001:00063120       ??_Gcmp_item_string@@UAEPAXI@Z 00464120 f i item_cmpfunc.obj
 0001:00063120       ??_Ecmp_item_string@@UAEPAXI@Z 00464120 f i item_cmpfunc.obj
 0001:00063130       ??0cmp_item_sort_string@@QAE@PAUcharset_info_st@@@Z 00464130 f i item_cmpfunc.obj
 0001:00063170       ?store_value@cmp_item_sort_string@@UAEXPAVItem@@@Z 00464170 f i item_cmpfunc.obj
 0001:00063190       ?compare@cmp_item_sort_string@@UAEHPAVcmp_item@@@Z 00464190 f i item_cmpfunc.obj
 0001:000631c0       ?cmp@cmp_item_sort_string@@UAEHPAVItem@@@Z 004641c0 f i item_cmpfunc.obj
 0001:00063290       ??_Gcmp_item_int@@UAEPAXI@Z 00464290 f i item_cmpfunc.obj
 0001:00063290       ??_Ecmp_item_int@@UAEPAXI@Z 00464290 f i item_cmpfunc.obj
 0001:000632a0       ??_Ecmp_item_datetime@@UAEPAXI@Z 004642a0 f i item_cmpfunc.obj
 0001:000632a0       ??_Gcmp_item_datetime@@UAEPAXI@Z 004642a0 f i item_cmpfunc.obj
 0001:000632b0       ??_Ecmp_item_real@@UAEPAXI@Z 004642b0 f i item_cmpfunc.obj
 0001:000632b0       ??_Gcmp_item_real@@UAEPAXI@Z 004642b0 f i item_cmpfunc.obj
 0001:000632c0       ??_Ecmp_item_decimal@@UAEPAXI@Z 004642c0 f i item_cmpfunc.obj
 0001:000632c0       ??_Gcmp_item_decimal@@UAEPAXI@Z 004642c0 f i item_cmpfunc.obj
 0001:000632d0       ??0cmp_item_sort_string_in_static@@QAE@PAUcharset_info_st@@@Z 004642d0 f i item_cmpfunc.obj
 0001:00063300       ?store_value@cmp_item_sort_string_in_static@@UAEXPAVItem@@@Z 00464300 f i item_cmpfunc.obj
 0001:00063320       ?cmp@cmp_item_sort_string_in_static@@UAEHPAVItem@@@Z 00464320 f i item_cmpfunc.obj
 0001:00063330       ?compare@cmp_item_sort_string_in_static@@UAEHPAVcmp_item@@@Z 00464330 f i item_cmpfunc.obj
 0001:00063360       ?make_same@cmp_item_sort_string_in_static@@UAEPAVcmp_item@@XZ 00464360 f i item_cmpfunc.obj
 0001:000633b0       ??0Item_func_isnull@@QAE@PAVItem@@@Z 004643b0 f i item_cmpfunc.obj
 0001:00063410       ?functype@Item_func_isnull@@UBE?AW4Functype@Item_func@@XZ 00464410 f i item_cmpfunc.obj
 0001:00063420       ?fix_length_and_dec@Item_func_isnull@@UAEXXZ 00464420 f i item_cmpfunc.obj
 0001:00063440       ?func_name@Item_func_isnull@@UBEPBDXZ 00464440 f i item_cmpfunc.obj
 0001:00063450       ?update_used_tables@Item_func_isnull@@UAEXXZ 00464450 f i item_cmpfunc.obj
 0001:000634f0       ?not_null_tables@Item_func_isnull@@UBE_KXZ 004644f0 f i item_cmpfunc.obj
 0001:00063500       ?select_optimize@Item_func_isnull@@UBE?AW4optimize_type@Item_func@@XZ 00464500 f i item_cmpfunc.obj
 0001:00063510       ?compare_collation@Item_func_isnull@@UAEPAUcharset_info_st@@XZ 00464510 f i item_cmpfunc.obj
 0001:00063520       ??0Item_func_isnotnull@@QAE@PAVItem@@@Z 00464520 f i item_cmpfunc.obj
 0001:00063580       ?functype@Item_func_isnotnull@@UBE?AW4Functype@Item_func@@XZ 00464580 f i item_cmpfunc.obj
 0001:00063590       ?fix_length_and_dec@Item_func_isnotnull@@UAEXXZ 00464590 f i item_cmpfunc.obj
 0001:000635b0       ?func_name@Item_func_isnotnull@@UBEPBDXZ 004645b0 f i item_cmpfunc.obj
 0001:000635c0       ?select_optimize@Item_func_isnotnull@@UBE?AW4optimize_type@Item_func@@XZ 004645c0 f i item_cmpfunc.obj
 0001:000635d0       ?not_null_tables@Item_func_isnotnull@@UBE_KXZ 004645d0 f i item_cmpfunc.obj
 0001:000635f0       ?compare_collation@Item_func_isnotnull@@UAEPAUcharset_info_st@@XZ 004645f0 f i item_cmpfunc.obj
 0001:00063600       ?top_level_item@Item_func_isnotnull@@UAEXXZ 00464600 f i item_cmpfunc.obj
 0001:00063610       ??0Item_cond@@QAE@PAVItem@@0@Z 00464610 f i item_cmpfunc.obj
 0001:000636f0       ?type@Item_cond@@UBE?AW4Type@Item@@XZ 004646f0 f i item_cmpfunc.obj
 0001:00063700       ?top_level_item@Item_cond@@UAEXXZ 00464700 f i item_cmpfunc.obj
 0001:00063710       ?subst_argument_checker@Item_cond@@UAEHPAPAE@Z 00464710 f i item_cmpfunc.obj
 0001:00063720       ??0Item_cond@@QAE@AAV?$List@VItem@@@@@Z 00464720 f i item_cmpfunc.obj
 0001:000637a0       ?add@Item_cond@@QAEHPAVItem@@@Z 004647a0 f i item_cmpfunc.obj
 0001:00063810       ??1Item_cond@@UAE@XZ       00464810 f i item_cmpfunc.obj
 0001:00063850       ??0COND_EQUAL@@QAE@XZ      00464850 f i item_cmpfunc.obj
 0001:00063870       ??0Item_cond_and@@QAE@PAVItem@@0@Z 00464870 f i item_cmpfunc.obj
 0001:000638c0       ?functype@Item_cond_and@@UBE?AW4Functype@Item_func@@XZ 004648c0 f i item_cmpfunc.obj
 0001:000638d0       ?func_name@Item_cond_and@@UBEPBDXZ 004648d0 f i item_cmpfunc.obj
 0001:000638e0       ?not_null_tables@Item_cond_and@@UBE_KXZ 004648e0 f i item_cmpfunc.obj
 0001:00063910       ??0Item_cond_and@@QAE@AAV?$List@VItem@@@@@Z 00464910 f i item_cmpfunc.obj
 0001:00063950       ??0Item_cond_or@@QAE@AAV?$List@VItem@@@@@Z 00464950 f i item_cmpfunc.obj
 0001:00063970       ?functype@Item_cond_or@@UBE?AW4Functype@Item_func@@XZ 00464970 f i item_cmpfunc.obj
 0001:00063980       ?func_name@Item_cond_or@@UBEPBDXZ 00464980 f i item_cmpfunc.obj
 0001:00063990       ?not_null_tables@Item_cond_or@@UBE_KXZ 00464990 f i item_cmpfunc.obj
 0001:000639a0       ?create@Eq_creator@@UBEPAVItem_bool_func2@@PAVItem@@0@Z 004649a0 f   item_cmpfunc.obj
 0001:000639f0       ?create@Ne_creator@@UBEPAVItem_bool_func2@@PAVItem@@0@Z 004649f0 f   item_cmpfunc.obj
 0001:00063a40       ?create@Gt_creator@@UBEPAVItem_bool_func2@@PAVItem@@0@Z 00464a40 f   item_cmpfunc.obj
 0001:00063a90       ?create@Lt_creator@@UBEPAVItem_bool_func2@@PAVItem@@0@Z 00464a90 f   item_cmpfunc.obj
 0001:00063ae0       ?create@Ge_creator@@UBEPAVItem_bool_func2@@PAVItem@@0@Z 00464ae0 f   item_cmpfunc.obj
 0001:00063b30       ?create@Le_creator@@UBEPAVItem_bool_func2@@PAVItem@@0@Z 00464b30 f   item_cmpfunc.obj
 0001:00063b80       ?val_int@Item_func_not_all@@UAE_JXZ 00464b80 f   item_cmpfunc.obj
 0001:00063d10       ?set_compare_func@Arg_comparator@@QAEHPAVItem_bool_func2@@W4Item_result@@@Z 00464d10 f   item_cmpfunc.obj
 0001:00064140       ?can_compare_as_dates@Arg_comparator@@SA?AW4enum_date_cmp_type@1@PAVItem@@0PA_K@Z 00465140 f   item_cmpfunc.obj
 0001:00064320       ?get_time_value@@YA_KPAVTHD@@PAPAPAVItem@@PAPAV2@PAV2@PAH@Z 00465320 f   item_cmpfunc.obj
 0001:00064440       ?get_datetime_value@@YA_KPAVTHD@@PAPAPAVItem@@PAPAV2@PAV2@PAH@Z 00465440 f   item_cmpfunc.obj
 0001:00064640       ?find_item@Item_func_case@@QAEPAVItem@@PAVString@@@Z 00465640 f   item_cmpfunc.obj
 0001:00064a90       ?val_str@Item_func_case@@UAEPAVString@@PAV2@@Z 00465a90 f   item_cmpfunc.obj
 0001:00064ae0       ?val_int@Item_func_case@@UAE_JXZ 00465ae0 f   item_cmpfunc.obj
 0001:00064bf0       ?val_real@Item_func_case@@UAENXZ 00465bf0 f   item_cmpfunc.obj
 0001:00064d00       ?val_decimal@Item_func_case@@UAEPAVmy_decimal@@PAV2@@Z 00465d00 f   item_cmpfunc.obj
 0001:00064e10       ??0in_string@@QAE@IP6AHPBX00@ZPAUcharset_info_st@@@Z 00465e10 f   item_cmpfunc.obj
 0001:00064e90       ?value_to_item@in_string@@UAEXIPAVItem@@@Z 00465e90 f i item_cmpfunc.obj
 0001:00064f00       ?create_item@in_string@@UAEPAVItem@@XZ 00465f00 f i item_cmpfunc.obj
 0001:00064f30       ??0Item_string@@QAE@PAUcharset_info_st@@W4Derivation@@@Z 00465f30 f i item_cmpfunc.obj
 0001:00064fa0       ??1in_string@@UAE@XZ       00465fa0 f   item_cmpfunc.obj
 0001:00065050       ??0in_row@@QAE@IPAVItem@@@Z 00466050 f   item_cmpfunc.obj
 0001:00065120       ??_Ecmp_item_row@@UAEPAXI@Z 00466120 f i item_cmpfunc.obj
 0001:00065180       ??1in_row@@UAE@XZ          00466180 f   item_cmpfunc.obj
 0001:000651e0       ?set@in_datetime@@UAEXIPAVItem@@@Z 004661e0 f   item_cmpfunc.obj
 0001:00065240       ?get_value@in_datetime@@UAEPAEPAVItem@@@Z 00466240 f   item_cmpfunc.obj
 0001:000652d0       ??_Gin_double@@UAEPAXI@Z   004662d0 f i item_cmpfunc.obj
 0001:000652d0       ??_Ein_double@@UAEPAXI@Z   004662d0 f i item_cmpfunc.obj
 0001:000652e0       ??_Ein_decimal@@UAEPAXI@Z  004662e0 f i item_cmpfunc.obj
 0001:000652e0       ??_Gin_decimal@@UAEPAXI@Z  004662e0 f i item_cmpfunc.obj
 0001:000652f0       ?get_comparator@cmp_item@@SAPAV1@W4Item_result@@PAUcharset_info_st@@@Z 004662f0 f   item_cmpfunc.obj
 0001:00065400       ?make_same@cmp_item_sort_string@@UAEPAVcmp_item@@XZ 00466400 f   item_cmpfunc.obj
 0001:00065450       ?store_value@cmp_item_row@@UAEXPAVItem@@@Z 00466450 f   item_cmpfunc.obj
 0001:00065550       ?store_value@cmp_item_datetime@@UAEXPAVItem@@@Z 00466550 f   item_cmpfunc.obj
 0001:000655b0       ?cmp@cmp_item_datetime@@UAEHPAVItem@@@Z 004665b0 f   item_cmpfunc.obj
 0001:00065610       ?fix_length_and_dec@Item_func_in@@UAEXXZ 00466610 f   item_cmpfunc.obj
 0001:00065d40       ??0Item_cond@@QAE@PAVTHD@@PAV0@@Z 00466d40 f   item_cmpfunc.obj
 0001:00065db0       ?and_expressions@@YAPAVItem@@PAV1@0PAPAV1@@Z 00466db0 f   item_cmpfunc.obj
 0001:00065ed0       ?val_int@Item_func_like@@UAE_JXZ 00466ed0 f   item_cmpfunc.obj
 0001:00065fd0       ?fix_fields@Item_func_like@@UAEHPAVTHD@@PAPAVItem@@@Z 00466fd0 f   item_cmpfunc.obj
 0001:000662f0       ?fix_fields@Item_func_regex@@UAEHPAVTHD@@PAPAVItem@@@Z 004672f0 f   item_cmpfunc.obj
 0001:00066670       ?val_int@Item_func_regex@@UAE_JXZ 00467670 f   item_cmpfunc.obj
 0001:00066910       ?neg_transformer@Item_func_isnull@@UAEPAVItem@@PAVTHD@@@Z 00467910 f   item_cmpfunc.obj
 0001:00066950       ?neg_transformer@Item_func_isnotnull@@UAEPAVItem@@PAVTHD@@@Z 00467950 f   item_cmpfunc.obj
 0001:000669d0       ?neg_transformer@Item_func_nop_all@@UAEPAVItem@@PAVTHD@@@Z 004679d0 f   item_cmpfunc.obj
 0001:00066a50       ?neg_transformer@Item_func_not_all@@UAEPAVItem@@PAVTHD@@@Z 00467a50 f   item_cmpfunc.obj
 0001:00066ae0       ?negated_item@Item_func_eq@@UAEPAVItem@@XZ 00467ae0 f   item_cmpfunc.obj
 0001:00066b30       ?negated_item@Item_func_ne@@UAEPAVItem@@XZ 00467b30 f   item_cmpfunc.obj
 0001:00066b80       ?negated_item@Item_func_lt@@UAEPAVItem@@XZ 00467b80 f   item_cmpfunc.obj
 0001:00066bd0       ?negated_item@Item_func_ge@@UAEPAVItem@@XZ 00467bd0 f   item_cmpfunc.obj
 0001:00066c20       ?negated_item@Item_func_gt@@UAEPAVItem@@XZ 00467c20 f   item_cmpfunc.obj
 0001:00066c70       ?negated_item@Item_func_le@@UAEPAVItem@@XZ 00467c70 f   item_cmpfunc.obj
 0001:00066cc0       ??0Item_equal@@QAE@PAVItem_field@@0@Z 00467cc0 f   item_cmpfunc.obj
 0001:00066dc0       ?functype@Item_equal@@UBE?AW4Functype@Item_func@@XZ 00467dc0 f i item_cmpfunc.obj
 0001:00066dd0       ?func_name@Item_equal@@UBEPBDXZ 00467dd0 f i item_cmpfunc.obj
 0001:00066de0       ?select_optimize@Item_equal@@UBE?AW4optimize_type@Item_func@@XZ 00467de0 f i item_cmpfunc.obj
 0001:00066df0       ?compare_collation@Item_equal@@UAEPAUcharset_info_st@@XZ 00467df0 f i item_cmpfunc.obj
 0001:00066e00       ??0Item_equal@@QAE@PAVItem@@PAVItem_field@@@Z 00467e00 f   item_cmpfunc.obj
 0001:00066ed0       ?add@Item_equal@@QAEXPAVItem_field@@@Z 00467ed0 f   item_cmpfunc.obj
 0001:00066f30       ?fix_length_and_dec@Item_equal@@UAEXXZ 00467f30 f   item_cmpfunc.obj
 0001:00066f60       ?concat@?$List@VItem_field@@@@QAEXPAV1@@Z 00467f60 f i item_cmpfunc.obj
 0001:00066f90       ??0?$List_iterator_fast@VItem_field@@@@QAE@AAV?$List@VItem_field@@@@@Z 00467f90 f i item_cmpfunc.obj
 0001:00066fb0       ??0?$List_iterator_fast@VItem@@@@QAE@AAV?$List@VItem@@@@@Z 00467fb0 f i item_cmpfunc.obj
 0001:00066fd0       ??0?$List_iterator@VItem@@@@QAE@AAV?$List@VItem@@@@@Z 00467fd0 f i item_cmpfunc.obj
 0001:00066ff0       ?remove@base_list@@QAEXPAPAUlist_node@@@Z 00467ff0 f i item_cmpfunc.obj
 0001:00067020       ?remove@base_list_iterator@@QAEXXZ 00468020 f i item_cmpfunc.obj
 0001:00067080       ??_GItem_int_with_ref@@UAEPAXI@Z 00468080 f i item_cmpfunc.obj
 0001:00067080       ??_EItem_int_with_ref@@UAEPAXI@Z 00468080 f i item_cmpfunc.obj
 0001:000670a0       ??_EItem_int_func@@UAEPAXI@Z 004680a0 f i item_cmpfunc.obj
 0001:000670a0       ??_GItem_int_func@@UAEPAXI@Z 004680a0 f i item_cmpfunc.obj
 0001:000670e0       ??_EItem_bool_func@@UAEPAXI@Z 004680e0 f i item_cmpfunc.obj
 0001:000670e0       ??_GItem_bool_func@@UAEPAXI@Z 004680e0 f i item_cmpfunc.obj
 0001:00067120       ??_GItem_bool_func2@@UAEPAXI@Z 00468120 f i item_cmpfunc.obj
 0001:00067120       ??_EItem_bool_func2@@UAEPAXI@Z 00468120 f i item_cmpfunc.obj
 0001:00067140       ??_EItem_bool_rowready_func2@@UAEPAXI@Z 00468140 f i item_cmpfunc.obj
 0001:00067140       ??_GItem_bool_rowready_func2@@UAEPAXI@Z 00468140 f i item_cmpfunc.obj
 0001:00067160       ??_EItem_func_not@@UAEPAXI@Z 00468160 f i item_cmpfunc.obj
 0001:00067160       ??_GItem_func_not@@UAEPAXI@Z 00468160 f i item_cmpfunc.obj
 0001:000671a0       ??_EItem_func_not_all@@UAEPAXI@Z 004681a0 f i item_cmpfunc.obj
 0001:000671a0       ??_GItem_func_not_all@@UAEPAXI@Z 004681a0 f i item_cmpfunc.obj
 0001:000671e0       ??_GItem_func_nop_all@@UAEPAXI@Z 004681e0 f i item_cmpfunc.obj
 0001:000671e0       ??_EItem_func_nop_all@@UAEPAXI@Z 004681e0 f i item_cmpfunc.obj
 0001:00067200       ??_EItem_func_eq@@UAEPAXI@Z 00468200 f i item_cmpfunc.obj
 0001:00067200       ??_GItem_func_eq@@UAEPAXI@Z 00468200 f i item_cmpfunc.obj
 0001:00067220       ??_EItem_func_ge@@UAEPAXI@Z 00468220 f i item_cmpfunc.obj
 0001:00067220       ??_GItem_func_ge@@UAEPAXI@Z 00468220 f i item_cmpfunc.obj
 0001:00067240       ??_EItem_func_gt@@UAEPAXI@Z 00468240 f i item_cmpfunc.obj
 0001:00067240       ??_GItem_func_gt@@UAEPAXI@Z 00468240 f i item_cmpfunc.obj
 0001:00067260       ??_GItem_func_le@@UAEPAXI@Z 00468260 f i item_cmpfunc.obj
 0001:00067260       ??_EItem_func_le@@UAEPAXI@Z 00468260 f i item_cmpfunc.obj
 0001:00067280       ??_EItem_func_lt@@UAEPAXI@Z 00468280 f i item_cmpfunc.obj
 0001:00067280       ??_GItem_func_lt@@UAEPAXI@Z 00468280 f i item_cmpfunc.obj
 0001:000672a0       ??_EItem_func_ne@@UAEPAXI@Z 004682a0 f i item_cmpfunc.obj
 0001:000672a0       ??_GItem_func_ne@@UAEPAXI@Z 004682a0 f i item_cmpfunc.obj
 0001:000672c0       ??_Gcmp_item_sort_string@@UAEPAXI@Z 004682c0 f i item_cmpfunc.obj
 0001:000672c0       ??_Ecmp_item_sort_string@@UAEPAXI@Z 004682c0 f i item_cmpfunc.obj
 0001:000672e0       ??_Ecmp_item_sort_string_in_static@@UAEPAXI@Z 004682e0 f i item_cmpfunc.obj
 0001:000672e0       ??_Gcmp_item_sort_string_in_static@@UAEPAXI@Z 004682e0 f i item_cmpfunc.obj
 0001:00067300       ??_EItem_func_isnull@@UAEPAXI@Z 00468300 f i item_cmpfunc.obj
 0001:00067300       ??_GItem_func_isnull@@UAEPAXI@Z 00468300 f i item_cmpfunc.obj
 0001:00067320       ??_GItem_func_isnotnull@@UAEPAXI@Z 00468320 f i item_cmpfunc.obj
 0001:00067320       ??_EItem_func_isnotnull@@UAEPAXI@Z 00468320 f i item_cmpfunc.obj
 0001:00067340       ??_EItem_cond@@UAEPAXI@Z   00468340 f i item_cmpfunc.obj
 0001:00067340       ??_GItem_cond@@UAEPAXI@Z   00468340 f i item_cmpfunc.obj
 0001:00067380       ??_GItem_equal@@UAEPAXI@Z  00468380 f i item_cmpfunc.obj
 0001:00067380       ??_EItem_equal@@UAEPAXI@Z  00468380 f i item_cmpfunc.obj
 0001:000673a0       ??_EItem_cond_and@@UAEPAXI@Z 004683a0 f i item_cmpfunc.obj
 0001:000673a0       ??_GItem_cond_and@@UAEPAXI@Z 004683a0 f i item_cmpfunc.obj
 0001:000673c0       ??_EItem_cond_or@@UAEPAXI@Z 004683c0 f i item_cmpfunc.obj
 0001:000673c0       ??_GItem_cond_or@@UAEPAXI@Z 004683c0 f i item_cmpfunc.obj
 0001:000673e0       ?set_cmp_func@Arg_comparator@@QAEHPAVItem_bool_func2@@PAPAVItem@@1W4Item_result@@@Z 004683e0 f   item_cmpfunc.obj
 0001:00067630       ?set_datetime_cmp_func@Arg_comparator@@QAEXPAPAVItem@@0@Z 00468630 f   item_cmpfunc.obj
 0001:000676b0       ?fix_length_and_dec@Item_func_between@@UAEXXZ 004686b0 f   item_cmpfunc.obj
 0001:000678f0       ??_Ein_string@@UAEPAXI@Z   004688f0 f i item_cmpfunc.obj
 0001:000678f0       ??_Gin_string@@UAEPAXI@Z   004688f0 f i item_cmpfunc.obj
 0001:00067910       ??_Ein_row@@UAEPAXI@Z      00468910 f i item_cmpfunc.obj
 0001:00067910       ??_Gin_row@@UAEPAXI@Z      00468910 f i item_cmpfunc.obj
 0001:00067980       ?copy_andor_arguments@Item_cond@@QAEXPAVTHD@@PAV1@@Z 00468980 f   item_cmpfunc.obj
 0001:00067a20       ?fix_fields@Item_cond@@UAEHPAVTHD@@PAPAVItem@@@Z 00468a20 f   item_cmpfunc.obj
 0001:00067d10       ?walk@Item_cond@@UAEHP8Item@@AEHPAE@Z0@Z 00468d10 f   item_cmpfunc.obj
 0001:00067d80       ?transform@Item_cond@@UAEPAVItem@@P82@AEPAV2@PAE@Z0@Z 00468d80 f   item_cmpfunc.obj
 0001:00067e40       ?compile@Item_cond@@UAEPAVItem@@P82@AEHPAPAE@Z0P82@AEPAV2@PAE@Z2@Z 00468e40 f   item_cmpfunc.obj
 0001:00067ee0       ?traverse_cond@Item_cond@@UAEXP6AXPBVItem@@PAX@Z1W4traverse_order@2@@Z 00468ee0 f   item_cmpfunc.obj
 0001:00067fa0       ?split_sum_func@Item_cond@@UAEXPAVTHD@@PAPAVItem@@AAV?$List@VItem@@@@@Z 00468fa0 f   item_cmpfunc.obj
 0001:00067ff0       ?update_used_tables@Item_cond@@UAEXXZ 00468ff0 f   item_cmpfunc.obj
 0001:00068080       ?print@Item_cond@@UAEXPAVString@@@Z 00469080 f   item_cmpfunc.obj
 0001:000681d0       ?neg_arguments@Item_cond@@QAEXPAVTHD@@@Z 004691d0 f   item_cmpfunc.obj
 0001:00068280       ?val_int@Item_cond_and@@UAE_JXZ 00469280 f   item_cmpfunc.obj
 0001:000682f0       ?val_int@Item_cond_or@@UAE_JXZ 004692f0 f   item_cmpfunc.obj
 0001:00068350       ?val_int@Item_cond_xor@@UAE_JXZ 00469350 f   item_cmpfunc.obj
 0001:000683c0       ?neg_transformer@Item_cond_and@@UAEPAVItem@@PAVTHD@@@Z 004693c0 f   item_cmpfunc.obj
 0001:00068420       ?neg_transformer@Item_cond_or@@UAEPAVItem@@PAVTHD@@@Z 00469420 f   item_cmpfunc.obj
 0001:000684a0       ??0Item_equal@@QAE@PAV0@@Z 004694a0 f   item_cmpfunc.obj
 0001:000685a0       ?contains@Item_equal@@QAEHPAVField@@@Z 004695a0 f   item_cmpfunc.obj
 0001:000685f0       ?sort@Item_equal@@QAEXP6AHPAVItem_field@@0PAX@Z1@Z 004695f0 f   item_cmpfunc.obj
 0001:000686b0       ?fix_fields@Item_equal@@UAEHPAVTHD@@PAPAVItem@@@Z 004696b0 f   item_cmpfunc.obj
 0001:00068740       ?update_used_tables@Item_equal@@UAEXXZ 00469740 f   item_cmpfunc.obj
 0001:000687d0       ?val_int@Item_equal@@UAE_JXZ 004697d0 f   item_cmpfunc.obj
 0001:00068890       ?walk@Item_equal@@UAEHP8Item@@AEHPAE@Z0@Z 00469890 f   item_cmpfunc.obj
 0001:00068900       ?transform@Item_equal@@UAEPAVItem@@P82@AEPAV2@PAE@Z0@Z 00469900 f   item_cmpfunc.obj
 0001:000689c0       ?print@Item_equal@@UAEXPAVString@@@Z 004699c0 f   item_cmpfunc.obj
 0001:00068b20       ?remove@?$List_iterator@VItem_field@@@@QAEXXZ 00469b20 f i item_cmpfunc.obj
 0001:00068b80       ?set_cmp_func@Arg_comparator@@QAEHPAVItem_bool_func2@@PAPAVItem@@1@Z 00469b80 f i item_cmpfunc.obj
 0001:00068bd0       ?set_cmp_func@Item_bool_func2@@QAEXXZ 00469bd0 f i item_cmpfunc.obj
 0001:00068c20       ?copy_andor_structure@Item_cond_and@@UAEPAVItem@@PAVTHD@@@Z 00469c20 f i item_cmpfunc.obj
 0001:00068ca0       ?copy_andor_structure@Item_cond_or@@UAEPAVItem@@PAVTHD@@@Z 00469ca0 f i item_cmpfunc.obj
 0001:00068d00       ?fix_length_and_dec@Item_bool_func2@@UAEXXZ 00469d00 f   item_cmpfunc.obj
 0001:00068f80       ?fix_length_and_dec@Item_func_equal@@UAEXXZ 00469f80 f   item_cmpfunc.obj
 0001:00068fa0       ?fix_length_and_dec@Item_func_nullif@@UAEXXZ 00469fa0 f   item_cmpfunc.obj
 0001:00069020       ?add@Item_equal@@QAEXPAVItem@@@Z 0046a020 f   item_cmpfunc.obj
 0001:000690e0       ?merge@Item_equal@@QAEXPAV1@@Z 0046a0e0 f   item_cmpfunc.obj
 0001:00069170       ?update_const@Item_equal@@QAEXXZ 0046a170 f   item_cmpfunc.obj
 0001:000691f0       ?uncacheable@st_lex@@QAEXE@Z 0046a1f0 f i item_create.obj
 0001:00069250       ??0Item_name_const@@QAE@PAVItem@@0@Z 0046a250 f i item_create.obj
 0001:00069280       ?result_type@Item_name_const@@UBE?AW4Item_result@@XZ 0046a280 f i item_create.obj
 0001:00069290       ?const_item@Item_name_const@@UBEHXZ 0046a290 f i item_create.obj
 0001:000692a0       ?save_in_field@Item_name_const@@UAEHPAVField@@H@Z 0046a2a0 f i item_create.obj
 0001:000692b0       ?send@Item_name_const@@UAEHPAVProtocol@@PAVString@@@Z 0046a2b0 f i item_create.obj
 0001:000692c0       ??0Item_int@@QAE@JI@Z      0046a2c0 f i item_create.obj
 0001:00069300       ??1Item_float@@UAE@XZ      0046a300 f i item_create.obj
 0001:00069340       ??0Item_static_float_func@@QAE@PBDNII@Z 0046a340 f i item_create.obj
 0001:00069390       ?print@Item_static_float_func@@UAEXPAVString@@@Z 0046a390 f i item_create.obj
 0001:000693b0       ??0Item_func@@QAE@PAVItem@@00@Z 0046a3b0 f i item_create.obj
 0001:00069460       ??0Item_real_func@@QAE@PAVItem@@@Z 0046a460 f i item_create.obj
 0001:000694b0       ?val_int@Item_real_func@@UAE_JXZ 0046a4b0 f i item_create.obj
 0001:00069510       ?result_type@Item_real_func@@UBE?AW4Item_result@@XZ 0046a510 f i item_create.obj
 0001:00069520       ?fix_length_and_dec@Item_real_func@@UAEXXZ 0046a520 f i item_create.obj
 0001:00069530       ??0Item_real_func@@QAE@PAVItem@@0@Z 0046a530 f i item_create.obj
 0001:00069560       ??1Item_real_func@@UAE@XZ  0046a560 f i item_create.obj
 0001:000695a0       ??0Item_func_numhybrid@@QAE@PAVItem@@@Z 0046a5a0 f i item_create.obj
 0001:00069600       ?result_type@Item_func_numhybrid@@UBE?AW4Item_result@@XZ 0046a600 f i item_create.obj
 0001:00069610       ?is_null@Item_func_numhybrid@@UAEHXZ 0046a610 f i item_create.obj
 0001:00069630       ??0Item_func_numhybrid@@QAE@PAVItem@@0@Z 0046a630 f i item_create.obj
 0001:00069670       ??1Item_func_numhybrid@@UAE@XZ 0046a670 f i item_create.obj
 0001:000696b0       ??0Item_func_num1@@QAE@PAVItem@@@Z 0046a6b0 f i item_create.obj
 0001:00069710       ?str_op@Item_func_num1@@UAEPAVString@@PAV2@@Z 0046a710 f i item_create.obj
 0001:00069720       ??1Item_func_num1@@UAE@XZ  0046a720 f i item_create.obj
 0001:00069760       ??0Item_num_op@@QAE@PAVItem@@0@Z 0046a760 f i item_create.obj
 0001:000697a0       ?print@Item_num_op@@UAEXPAVString@@@Z 0046a7a0 f i item_create.obj
 0001:000697b0       ?str_op@Item_num_op@@UAEPAVString@@PAV2@@Z 0046a7b0 f i item_create.obj
 0001:000697c0       ??1Item_num_op@@UAE@XZ     0046a7c0 f i item_create.obj
 0001:00069800       ??0Item_func_connection_id@@QAE@XZ 0046a800 f i item_create.obj
 0001:00069840       ?func_name@Item_func_connection_id@@UBEPBDXZ 0046a840 f i item_create.obj
 0001:00069850       ?val_int@Item_func_connection_id@@UAE_JXZ 0046a850 f i item_create.obj
 0001:00069860       ??0Item_func_signed@@QAE@PAVItem@@@Z 0046a860 f i item_create.obj
 0001:000698c0       ?func_name@Item_func_signed@@UBEPBDXZ 0046a8c0 f i item_create.obj
 0001:000698d0       ?fix_length_and_dec@Item_func_signed@@UAEXXZ 0046a8d0 f i item_create.obj
 0001:000698f0       ?decimal_precision@Item_func_signed@@UBEIXZ 0046a8f0 f i item_create.obj
 0001:00069900       ??1Item_func_signed@@UAE@XZ 0046a900 f i item_create.obj
 0001:00069940       ??0Item_func_unsigned@@QAE@PAVItem@@@Z 0046a940 f i item_create.obj
 0001:000699a0       ?func_name@Item_func_unsigned@@UBEPBDXZ 0046a9a0 f i item_create.obj
 0001:000699b0       ?fix_length_and_dec@Item_func_unsigned@@UAEXXZ 0046a9b0 f i item_create.obj
 0001:000699d0       ??0Item_decimal_typecast@@QAE@PAVItem@@HH@Z 0046a9d0 f i item_create.obj
 0001:00069a80       ?result_type@Item_decimal_typecast@@UBE?AW4Item_result@@XZ 0046aa80 f i item_create.obj
 0001:00069a90       ?field_type@Item_decimal_typecast@@UBE?AW4enum_field_types@@XZ 0046aa90 f i item_create.obj
 0001:00069aa0       ?fix_length_and_dec@Item_decimal_typecast@@UAEXXZ 0046aaa0 f i item_create.obj
 0001:00069ab0       ?func_name@Item_decimal_typecast@@UBEPBDXZ 0046aab0 f i item_create.obj
 0001:00069ac0       ??0Item_func_additive_op@@QAE@PAVItem@@0@Z 0046aac0 f i item_create.obj
 0001:00069b00       ??1Item_func_additive_op@@UAE@XZ 0046ab00 f i item_create.obj
 0001:00069b40       ??0Item_func_minus@@QAE@PAVItem@@0@Z 0046ab40 f i item_create.obj
 0001:00069b80       ?func_name@Item_func_minus@@UBEPBDXZ 0046ab80 f i item_create.obj
 0001:00069b90       ??0Item_func_div@@QAE@PAVItem@@0@Z 0046ab90 f i item_create.obj
 0001:00069bd0       ?int_op@Item_func_div@@UAE_JXZ 0046abd0 f i item_create.obj
 0001:00069be0       ?func_name@Item_func_div@@UBEPBDXZ 0046abe0 f i item_create.obj
 0001:00069bf0       ??0Item_func_mod@@QAE@PAVItem@@0@Z 0046abf0 f i item_create.obj
 0001:00069c30       ?func_name@Item_func_mod@@UBEPBDXZ 0046ac30 f i item_create.obj
 0001:00069c40       ??0Item_func_abs@@QAE@PAVItem@@@Z 0046ac40 f i item_create.obj
 0001:00069ca0       ?func_name@Item_func_abs@@UBEPBDXZ 0046aca0 f i item_create.obj
 0001:00069cb0       ??0Item_dec_func@@QAE@PAVItem@@@Z 0046acb0 f i item_create.obj
 0001:00069d00       ?fix_length_and_dec@Item_dec_func@@UAEXXZ 0046ad00 f i item_create.obj
 0001:00069d20       ??0Item_dec_func@@QAE@PAVItem@@0@Z 0046ad20 f i item_create.obj
 0001:00069d50       ??1Item_dec_func@@UAE@XZ   0046ad50 f i item_create.obj
 0001:00069d90       ??0Item_func_exp@@QAE@PAVItem@@@Z 0046ad90 f i item_create.obj
 0001:00069de0       ?func_name@Item_func_exp@@UBEPBDXZ 0046ade0 f i item_create.obj
 0001:00069df0       ??0Item_func_ln@@QAE@PAVItem@@@Z 0046adf0 f i item_create.obj
 0001:00069e40       ?func_name@Item_func_ln@@UBEPBDXZ 0046ae40 f i item_create.obj
 0001:00069e50       ??0Item_func_log2@@QAE@PAVItem@@@Z 0046ae50 f i item_create.obj
 0001:00069ea0       ?func_name@Item_func_log2@@UBEPBDXZ 0046aea0 f i item_create.obj
 0001:00069eb0       ??0Item_func_log10@@QAE@PAVItem@@@Z 0046aeb0 f i item_create.obj
 0001:00069f00       ?func_name@Item_func_log10@@UBEPBDXZ 0046af00 f i item_create.obj
 0001:00069f10       ??0Item_func_sqrt@@QAE@PAVItem@@@Z 0046af10 f i item_create.obj
 0001:00069f60       ?func_name@Item_func_sqrt@@UBEPBDXZ 0046af60 f i item_create.obj
 0001:00069f70       ??0Item_func_pow@@QAE@PAVItem@@0@Z 0046af70 f i item_create.obj
 0001:00069fa0       ?func_name@Item_func_pow@@UBEPBDXZ 0046afa0 f i item_create.obj
 0001:00069fb0       ??0Item_func_acos@@QAE@PAVItem@@@Z 0046afb0 f i item_create.obj
 0001:0006a000       ?func_name@Item_func_acos@@UBEPBDXZ 0046b000 f i item_create.obj
 0001:0006a010       ??0Item_func_asin@@QAE@PAVItem@@@Z 0046b010 f i item_create.obj
 0001:0006a060       ?func_name@Item_func_asin@@UBEPBDXZ 0046b060 f i item_create.obj
 0001:0006a070       ??0Item_func_cos@@QAE@PAVItem@@@Z 0046b070 f i item_create.obj
 0001:0006a0c0       ?func_name@Item_func_cos@@UBEPBDXZ 0046b0c0 f i item_create.obj
 0001:0006a0d0       ??0Item_func_sin@@QAE@PAVItem@@@Z 0046b0d0 f i item_create.obj
 0001:0006a120       ?func_name@Item_func_sin@@UBEPBDXZ 0046b120 f i item_create.obj
 0001:0006a130       ??0Item_func_tan@@QAE@PAVItem@@@Z 0046b130 f i item_create.obj
 0001:0006a180       ?func_name@Item_func_tan@@UBEPBDXZ 0046b180 f i item_create.obj
 0001:0006a190       ??0Item_func_int_val@@QAE@PAVItem@@@Z 0046b190 f i item_create.obj
 0001:0006a1f0       ??1Item_func_int_val@@UAE@XZ 0046b1f0 f i item_create.obj
 0001:0006a230       ??0Item_func_ceiling@@QAE@PAVItem@@@Z 0046b230 f i item_create.obj
 0001:0006a290       ?func_name@Item_func_ceiling@@UBEPBDXZ 0046b290 f i item_create.obj
 0001:0006a2a0       ??0Item_func_floor@@QAE@PAVItem@@@Z 0046b2a0 f i item_create.obj
 0001:0006a300       ?func_name@Item_func_floor@@UBEPBDXZ 0046b300 f i item_create.obj
 0001:0006a310       ??0Item_func_sign@@QAE@PAVItem@@@Z 0046b310 f i item_create.obj
 0001:0006a370       ?func_name@Item_func_sign@@UBEPBDXZ 0046b370 f i item_create.obj
 0001:0006a380       ??0Item_func_units@@QAE@PADPAVItem@@NN@Z 0046b380 f i item_create.obj
 0001:0006a400       ?func_name@Item_func_units@@UBEPBDXZ 0046b400 f i item_create.obj
 0001:0006a410       ?fix_length_and_dec@Item_func_units@@UAEXXZ 0046b410 f i item_create.obj
 0001:0006a420       ??0Item_func_length@@QAE@PAVItem@@@Z 0046b420 f i item_create.obj
 0001:0006a4a0       ?func_name@Item_func_length@@UBEPBDXZ 0046b4a0 f i item_create.obj
 0001:0006a4b0       ?fix_length_and_dec@Item_func_length@@UAEXXZ 0046b4b0 f i item_create.obj
 0001:0006a4c0       ??1Item_func_length@@UAE@XZ 0046b4c0 f i item_create.obj
 0001:0006a540       ??0Item_func_bit_length@@QAE@PAVItem@@@Z 0046b540 f i item_create.obj
 0001:0006a560       ?val_int@Item_func_bit_length@@UAE_JXZ 0046b560 f i item_create.obj
 0001:0006a580       ?func_name@Item_func_bit_length@@UBEPBDXZ 0046b580 f i item_create.obj
 0001:0006a590       ??0Item_func_char_length@@QAE@PAVItem@@@Z 0046b590 f i item_create.obj
 0001:0006a610       ?func_name@Item_func_char_length@@UBEPBDXZ 0046b610 f i item_create.obj
 0001:0006a620       ?fix_length_and_dec@Item_func_char_length@@UAEXXZ 0046b620 f i item_create.obj
 0001:0006a630       ??0Item_func_coercibility@@QAE@PAVItem@@@Z 0046b630 f i item_create.obj
 0001:0006a690       ?func_name@Item_func_coercibility@@UBEPBDXZ 0046b690 f i item_create.obj
 0001:0006a6a0       ?fix_length_and_dec@Item_func_coercibility@@UAEXXZ 0046b6a0 f i item_create.obj
 0001:0006a6b0       ?not_null_tables@Item_func_coercibility@@UBE_KXZ 0046b6b0 f i item_create.obj
 0001:0006a6c0       ??0Item_func_locate@@QAE@PAVItem@@0@Z 0046b6c0 f i item_create.obj
 0001:0006a770       ?func_name@Item_func_locate@@UBEPBDXZ 0046b770 f i item_create.obj
 0001:0006a780       ??0Item_func_ascii@@QAE@PAVItem@@@Z 0046b780 f i item_create.obj
 0001:0006a800       ?func_name@Item_func_ascii@@UBEPBDXZ 0046b800 f i item_create.obj
 0001:0006a810       ?fix_length_and_dec@Item_func_ascii@@UAEXXZ 0046b810 f i item_create.obj
 0001:0006a820       ??0Item_func_ord@@QAE@PAVItem@@@Z 0046b820 f i item_create.obj
 0001:0006a8a0       ?func_name@Item_func_ord@@UBEPBDXZ 0046b8a0 f i item_create.obj
 0001:0006a8b0       ??0Item_func_find_in_set@@QAE@PAVItem@@0@Z 0046b8b0 f i item_create.obj
 0001:0006a960       ?func_name@Item_func_find_in_set@@UBEPBDXZ 0046b960 f i item_create.obj
 0001:0006a970       ??0Item_func_bit_count@@QAE@PAVItem@@@Z 0046b970 f i item_create.obj
 0001:0006a9d0       ?func_name@Item_func_bit_count@@UBEPBDXZ 0046b9d0 f i item_create.obj
 0001:0006a9e0       ?fix_length_and_dec@Item_func_bit_count@@UAEXXZ 0046b9e0 f i item_create.obj
 0001:0006a9f0       ??0Item_func_sleep@@QAE@PAVItem@@@Z 0046b9f0 f i item_create.obj
 0001:0006aa50       ?const_item@Item_func_sleep@@UBEHXZ 0046ba50 f i item_create.obj
 0001:0006aa60       ?func_name@Item_func_sleep@@UBEPBDXZ 0046ba60 f i item_create.obj
 0001:0006aa70       ?update_used_tables@Item_func_sleep@@UAEXXZ 0046ba70 f i item_create.obj
 0001:0006aa90       ??0Item_func_get_lock@@QAE@PAVItem@@0@Z 0046ba90 f i item_create.obj
 0001:0006aaf0       ?func_name@Item_func_get_lock@@UBEPBDXZ 0046baf0 f i item_create.obj
 0001:0006ab00       ?fix_length_and_dec@Item_func_get_lock@@UAEXXZ 0046bb00 f i item_create.obj
 0001:0006ab10       ??0Item_func_release_lock@@QAE@PAVItem@@@Z 0046bb10 f i item_create.obj
 0001:0006ab90       ?func_name@Item_func_release_lock@@UBEPBDXZ 0046bb90 f i item_create.obj
 0001:0006aba0       ?fix_length_and_dec@Item_func_release_lock@@UAEXXZ 0046bba0 f i item_create.obj
 0001:0006abb0       ??0Item_func_inet_aton@@QAE@PAVItem@@@Z 0046bbb0 f i item_create.obj
 0001:0006ac10       ?func_name@Item_func_inet_aton@@UBEPBDXZ 0046bc10 f i item_create.obj
 0001:0006ac20       ?fix_length_and_dec@Item_func_inet_aton@@UAEXXZ 0046bc20 f i item_create.obj
 0001:0006ac40       ??0Item_func_is_free_lock@@QAE@PAVItem@@@Z 0046bc40 f i item_create.obj
 0001:0006acc0       ?func_name@Item_func_is_free_lock@@UBEPBDXZ 0046bcc0 f i item_create.obj
 0001:0006acd0       ?fix_length_and_dec@Item_func_is_free_lock@@UAEXXZ 0046bcd0 f i item_create.obj
 0001:0006acf0       ??0Item_func_is_used_lock@@QAE@PAVItem@@@Z 0046bcf0 f i item_create.obj
 0001:0006ad70       ?func_name@Item_func_is_used_lock@@UBEPBDXZ 0046bd70 f i item_create.obj
 0001:0006ad80       ?fix_length_and_dec@Item_func_is_used_lock@@UAEXXZ 0046bd80 f i item_create.obj
 0001:0006ada0       ??0Item_func_found_rows@@QAE@XZ 0046bda0 f i item_create.obj
 0001:0006ade0       ?func_name@Item_func_found_rows@@UBEPBDXZ 0046bde0 f i item_create.obj
 0001:0006adf0       ?fix_length_and_dec@Item_func_found_rows@@UAEXXZ 0046bdf0 f i item_create.obj
 0001:0006ae00       ??0Item_func_strcmp@@QAE@PAVItem@@0@Z 0046be00 f i item_create.obj
 0001:0006ae30       ?select_optimize@Item_func_strcmp@@UBE?AW4optimize_type@Item_func@@XZ 0046be30 f i item_create.obj
 0001:0006ae40       ?func_name@Item_func_strcmp@@UBEPBDXZ 0046be40 f i item_create.obj
 0001:0006ae50       ?print@Item_func_strcmp@@UAEXPAVString@@@Z 0046be50 f i item_create.obj
 0001:0006ae60       ??0Item_func_coalesce@@IAE@PAVItem@@0@Z 0046be60 f i item_create.obj
 0001:0006aea0       ?find_num_type@Item_func_coalesce@@UAEXXZ 0046bea0 f i item_create.obj
 0001:0006aeb0       ?result_type@Item_func_coalesce@@UBE?AW4Item_result@@XZ 0046beb0 f i item_create.obj
 0001:0006aec0       ?func_name@Item_func_coalesce@@UBEPBDXZ 0046bec0 f i item_create.obj
 0001:0006aed0       ?not_null_tables@Item_func_coalesce@@UBE_KXZ 0046bed0 f i item_create.obj
 0001:0006aee0       ??1Item_func_coalesce@@UAE@XZ 0046bee0 f i item_create.obj
 0001:0006af20       ??0Item_func_ifnull@@QAE@PAVItem@@0@Z 0046bf20 f i item_create.obj
 0001:0006af60       ?func_name@Item_func_ifnull@@UBEPBDXZ 0046bf60 f i item_create.obj
 0001:0006af70       ??0Item_func_nullif@@QAE@PAVItem@@0@Z 0046bf70 f i item_create.obj
 0001:0006afb0       ?result_type@Item_func_nullif@@UBE?AW4Item_result@@XZ 0046bfb0 f i item_create.obj
 0001:0006afc0       ?decimal_precision@Item_func_nullif@@UBEIXZ 0046bfc0 f i item_create.obj
 0001:0006afd0       ?func_name@Item_func_nullif@@UBEPBDXZ 0046bfd0 f i item_create.obj
 0001:0006afe0       ?print@Item_func_nullif@@UAEXPAVString@@@Z 0046bfe0 f i item_create.obj
 0001:0006aff0       ?not_null_tables@Item_func_nullif@@UBE_KXZ 0046bff0 f i item_create.obj
 0001:0006b000       ??0Item_str_func@@QAE@XZ   0046c000 f i item_create.obj
 0001:0006b040       ??0Item_str_func@@QAE@PAVItem@@0@Z 0046c040 f i item_create.obj
 0001:0006b070       ??0Item_str_func@@QAE@PAVItem@@00@Z 0046c070 f i item_create.obj
 0001:0006b0b0       ??0Item_func_md5@@QAE@PAVItem@@@Z 0046c0b0 f i item_create.obj
 0001:0006b150       ?func_name@Item_func_md5@@UBEPBDXZ 0046c150 f i item_create.obj
 0001:0006b160       ??0Item_func_sha@@QAE@PAVItem@@@Z 0046c160 f i item_create.obj
 0001:0006b1e0       ?func_name@Item_func_sha@@UBEPBDXZ 0046c1e0 f i item_create.obj
 0001:0006b1f0       ??0Item_func_aes_encrypt@@QAE@PAVItem@@0@Z 0046c1f0 f i item_create.obj
 0001:0006b220       ?func_name@Item_func_aes_encrypt@@UBEPBDXZ 0046c220 f i item_create.obj
 0001:0006b230       ??0Item_func_aes_decrypt@@QAE@PAVItem@@0@Z 0046c230 f i item_create.obj
 0001:0006b260       ?func_name@Item_func_aes_decrypt@@UBEPBDXZ 0046c260 f i item_create.obj
 0001:0006b270       ??0Item_func_reverse@@QAE@PAVItem@@@Z 0046c270 f i item_create.obj
 0001:0006b2f0       ?func_name@Item_func_reverse@@UBEPBDXZ 0046c2f0 f i item_create.obj
 0001:0006b300       ??0Item_str_conv@@QAE@PAVItem@@@Z 0046c300 f i item_create.obj
 0001:0006b380       ??1Item_str_conv@@UAE@XZ   0046c380 f i item_create.obj
 0001:0006b400       ??0Item_func_lcase@@QAE@PAVItem@@@Z 0046c400 f i item_create.obj
 0001:0006b420       ?func_name@Item_func_lcase@@UBEPBDXZ 0046c420 f i item_create.obj
 0001:0006b430       ?fix_length_and_dec@Item_func_lcase@@UAEXXZ 0046c430 f i item_create.obj
 0001:0006b490       ??0Item_func_ucase@@QAE@PAVItem@@@Z 0046c490 f i item_create.obj
 0001:0006b4b0       ?func_name@Item_func_ucase@@UBEPBDXZ 0046c4b0 f i item_create.obj
 0001:0006b4c0       ?fix_length_and_dec@Item_func_ucase@@UAEXXZ 0046c4c0 f i item_create.obj
 0001:0006b520       ??0Item_func_trim@@QAE@PAVItem@@@Z 0046c520 f i item_create.obj
 0001:0006b5d0       ?func_name@Item_func_trim@@UBEPBDXZ 0046c5d0 f i item_create.obj
 0001:0006b5e0       ?mode_name@Item_func_trim@@UBEPBDXZ 0046c5e0 f i item_create.obj
 0001:0006b5f0       ??1Item_func_trim@@UAE@XZ  0046c5f0 f i item_create.obj
 0001:0006b6a0       ??0Item_func_ltrim@@QAE@PAVItem@@@Z 0046c6a0 f i item_create.obj
 0001:0006b6c0       ?func_name@Item_func_ltrim@@UBEPBDXZ 0046c6c0 f i item_create.obj
 0001:0006b6d0       ?mode_name@Item_func_ltrim@@UBEPBDXZ 0046c6d0 f i item_create.obj
 0001:0006b6e0       ??0Item_func_rtrim@@QAE@PAVItem@@@Z 0046c6e0 f i item_create.obj
 0001:0006b700       ?func_name@Item_func_rtrim@@UBEPBDXZ 0046c700 f i item_create.obj
 0001:0006b710       ?mode_name@Item_func_rtrim@@UBEPBDXZ 0046c710 f i item_create.obj
 0001:0006b720       ??0Item_func_soundex@@QAE@PAVItem@@@Z 0046c720 f i item_create.obj
 0001:0006b7a0       ?func_name@Item_func_soundex@@UBEPBDXZ 0046c7a0 f i item_create.obj
 0001:0006b7b0       ??0Item_func_repeat@@QAE@PAVItem@@0@Z 0046c7b0 f i item_create.obj
 0001:0006b810       ?func_name@Item_func_repeat@@UBEPBDXZ 0046c810 f i item_create.obj
 0001:0006b820       ??0Item_func_rpad@@QAE@PAVItem@@00@Z 0046c820 f i item_create.obj
 0001:0006b8b0       ?func_name@Item_func_rpad@@UBEPBDXZ 0046c8b0 f i item_create.obj
 0001:0006b8c0       ??0Item_func_lpad@@QAE@PAVItem@@00@Z 0046c8c0 f i item_create.obj
 0001:0006b950       ?func_name@Item_func_lpad@@UBEPBDXZ 0046c950 f i item_create.obj
 0001:0006b960       ??0Item_func_conv@@QAE@PAVItem@@00@Z 0046c960 f i item_create.obj
 0001:0006b9a0       ?func_name@Item_func_conv@@UBEPBDXZ 0046c9a0 f i item_create.obj
 0001:0006b9b0       ?fix_length_and_dec@Item_func_conv@@UAEXXZ 0046c9b0 f i item_create.obj
 0001:0006b9e0       ??0Item_func_hex@@QAE@PAVItem@@@Z 0046c9e0 f i item_create.obj
 0001:0006ba60       ?func_name@Item_func_hex@@UBEPBDXZ 0046ca60 f i item_create.obj
 0001:0006ba70       ?fix_length_and_dec@Item_func_hex@@UAEXXZ 0046ca70 f i item_create.obj
 0001:0006bac0       ??0Item_func_unhex@@QAE@PAVItem@@@Z 0046cac0 f i item_create.obj
 0001:0006bb50       ?func_name@Item_func_unhex@@UBEPBDXZ 0046cb50 f i item_create.obj
 0001:0006bb60       ?fix_length_and_dec@Item_func_unhex@@UAEXXZ 0046cb60 f i item_create.obj
 0001:0006bba0       ??0Item_func_binary@@QAE@PAVItem@@@Z 0046cba0 f i item_create.obj
 0001:0006bc00       ?val_str@Item_func_binary@@UAEPAVString@@PAV2@@Z 0046cc00 f i item_create.obj
 0001:0006bc40       ?fix_length_and_dec@Item_func_binary@@UAEXXZ 0046cc40 f i item_create.obj
 0001:0006bc70       ?func_name@Item_func_binary@@UBEPBDXZ 0046cc70 f i item_create.obj
 0001:0006bc80       ??0Item_load_file@@QAE@PAVItem@@@Z 0046cc80 f i item_create.obj
 0001:0006bd00       ?func_name@Item_load_file@@UBEPBDXZ 0046cd00 f i item_create.obj
 0001:0006bd10       ?fix_length_and_dec@Item_load_file@@UAEXXZ 0046cd10 f i item_create.obj
 0001:0006bd50       ??0Item_func_inet_ntoa@@QAE@PAVItem@@@Z 0046cd50 f i item_create.obj
 0001:0006bdb0       ?func_name@Item_func_inet_ntoa@@UBEPBDXZ 0046cdb0 f i item_create.obj
 0001:0006bdc0       ?fix_length_and_dec@Item_func_inet_ntoa@@UAEXXZ 0046cdc0 f i item_create.obj
 0001:0006bdd0       ??0Item_func_quote@@QAE@PAVItem@@@Z 0046cdd0 f i item_create.obj
 0001:0006be50       ?func_name@Item_func_quote@@UBEPBDXZ 0046ce50 f i item_create.obj
 0001:0006be60       ?fix_length_and_dec@Item_func_quote@@UAEXXZ 0046ce60 f i item_create.obj
 0001:0006bea0       ??0Item_func_crc32@@QAE@PAVItem@@@Z 0046cea0 f i item_create.obj
 0001:0006bf30       ?func_name@Item_func_crc32@@UBEPBDXZ 0046cf30 f i item_create.obj
 0001:0006bf40       ?fix_length_and_dec@Item_func_crc32@@UAEXXZ 0046cf40 f i item_create.obj
 0001:0006bf50       ??0Item_func_uncompressed_length@@QAE@PAVItem@@@Z 0046cf50 f i item_create.obj
 0001:0006bfd0       ?func_name@Item_func_uncompressed_length@@UBEPBDXZ 0046cfd0 f i item_create.obj
 0001:0006bfe0       ?fix_length_and_dec@Item_func_uncompressed_length@@UAEXXZ 0046cfe0 f i item_create.obj
 0001:0006bff0       ??0Item_func_compress@@QAE@PAVItem@@@Z 0046cff0 f i item_create.obj
 0001:0006c070       ?fix_length_and_dec@Item_func_compress@@UAEXXZ 0046d070 f i item_create.obj
 0001:0006c0a0       ?func_name@Item_func_compress@@UBEPBDXZ 0046d0a0 f i item_create.obj
 0001:0006c0b0       ??0Item_func_uncompress@@QAE@PAVItem@@@Z 0046d0b0 f i item_create.obj
 0001:0006c130       ?fix_length_and_dec@Item_func_uncompress@@UAEXXZ 0046d130 f i item_create.obj
 0001:0006c140       ?func_name@Item_func_uncompress@@UBEPBDXZ 0046d140 f i item_create.obj
 0001:0006c150       ??0Item_func_uuid@@QAE@XZ  0046d150 f i item_create.obj
 0001:0006c190       ?fix_length_and_dec@Item_func_uuid@@UAEXXZ 0046d190 f i item_create.obj
 0001:0006c1d0       ?func_name@Item_func_uuid@@UBEPBDXZ 0046d1d0 f i item_create.obj
 0001:0006c1e0       ??0Item_geometry_func@@QAE@PAVItem@@@Z 0046d1e0 f i item_create.obj
 0001:0006c240       ?field_type@Item_geometry_func@@UBE?AW4enum_field_types@@XZ 0046d240 f i item_create.obj
 0001:0006c250       ?is_null@Item_geometry_func@@UAEHXZ 0046d250 f i item_create.obj
 0001:0006c270       ??0Item_geometry_func@@QAE@PAVItem@@0@Z 0046d270 f i item_create.obj
 0001:0006c2a0       ??1Item_geometry_func@@UAE@XZ 0046d2a0 f i item_create.obj
 0001:0006c2e0       ??0Item_func_as_wkt@@QAE@PAVItem@@@Z 0046d2e0 f i item_create.obj
 0001:0006c340       ?func_name@Item_func_as_wkt@@UBEPBDXZ 0046d340 f i item_create.obj
 0001:0006c350       ??0Item_func_as_wkb@@QAE@PAVItem@@@Z 0046d350 f i item_create.obj
 0001:0006c3b0       ?func_name@Item_func_as_wkb@@UBEPBDXZ 0046d3b0 f i item_create.obj
 0001:0006c3c0       ?field_type@Item_func_as_wkb@@UBE?AW4enum_field_types@@XZ 0046d3c0 f i item_create.obj
 0001:0006c3d0       ??0Item_func_geometry_type@@QAE@PAVItem@@@Z 0046d3d0 f i item_create.obj
 0001:0006c430       ?func_name@Item_func_geometry_type@@UBEPBDXZ 0046d430 f i item_create.obj
 0001:0006c440       ?fix_length_and_dec@Item_func_geometry_type@@UAEXXZ 0046d440 f i item_create.obj
 0001:0006c450       ??0Item_func_centroid@@QAE@PAVItem@@@Z 0046d450 f i item_create.obj
 0001:0006c4b0       ?func_name@Item_func_centroid@@UBEPBDXZ 0046d4b0 f i item_create.obj
 0001:0006c4c0       ??0Item_func_envelope@@QAE@PAVItem@@@Z 0046d4c0 f i item_create.obj
 0001:0006c520       ?func_name@Item_func_envelope@@UBEPBDXZ 0046d520 f i item_create.obj
 0001:0006c530       ??0Item_func_point@@QAE@PAVItem@@0@Z 0046d530 f i item_create.obj
 0001:0006c560       ?func_name@Item_func_point@@UBEPBDXZ 0046d560 f i item_create.obj
 0001:0006c570       ??0Item_func_spatial_decomp@@QAE@PAVItem@@W4Functype@Item_func@@@Z 0046d570 f i item_create.obj
 0001:0006c5d0       ?func_name@Item_func_spatial_decomp@@UBEPBDXZ 0046d5d0 f i item_create.obj
 0001:0006c610       ??0Item_func_spatial_decomp_n@@QAE@PAVItem@@0W4Functype@Item_func@@@Z 0046d610 f i item_create.obj
 0001:0006c650       ?func_name@Item_func_spatial_decomp_n@@UBEPBDXZ 0046d650 f i item_create.obj
 0001:0006c690       ??0Item_func_spatial_rel@@QAE@PAVItem@@0W4Functype@Item_func@@@Z 0046d690 f i item_create.obj
 0001:0006c6d0       ?functype@Item_func_spatial_rel@@UBE?AW4Functype@Item_func@@XZ 0046d6d0 f i item_create.obj
 0001:0006c700       ?rev_functype@Item_func_spatial_rel@@UBE?AW4Functype@Item_func@@XZ 0046d700 f i item_create.obj
 0001:0006c710       ?func_name@Item_func_spatial_rel@@UBEPBDXZ 0046d710 f i item_create.obj
 0001:0006c7a0       ?print@Item_func_spatial_rel@@UAEXPAVString@@@Z 0046d7a0 f i item_create.obj
 0001:0006c7b0       ?fix_length_and_dec@Item_func_spatial_rel@@UAEXXZ 0046d7b0 f i item_create.obj
 0001:0006c7c0       ?is_null@Item_func_spatial_rel@@UAEHXZ 0046d7c0 f i item_create.obj
 0001:0006c7e0       ??0Item_func_isempty@@QAE@PAVItem@@@Z 0046d7e0 f i item_create.obj
 0001:0006c840       ?select_optimize@Item_func_isempty@@UBE?AW4optimize_type@Item_func@@XZ 0046d840 f i item_create.obj
 0001:0006c850       ?func_name@Item_func_isempty@@UBEPBDXZ 0046d850 f i item_create.obj
 0001:0006c860       ?fix_length_and_dec@Item_func_isempty@@UAEXXZ 0046d860 f i item_create.obj
 0001:0006c870       ??0Item_func_issimple@@QAE@PAVItem@@@Z 0046d870 f i item_create.obj
 0001:0006c8d0       ?select_optimize@Item_func_issimple@@UBE?AW4optimize_type@Item_func@@XZ 0046d8d0 f i item_create.obj
 0001:0006c8e0       ?func_name@Item_func_issimple@@UBEPBDXZ 0046d8e0 f i item_create.obj
 0001:0006c8f0       ?fix_length_and_dec@Item_func_issimple@@UAEXXZ 0046d8f0 f i item_create.obj
 0001:0006c900       ??0Item_func_isclosed@@QAE@PAVItem@@@Z 0046d900 f i item_create.obj
 0001:0006c960       ?select_optimize@Item_func_isclosed@@UBE?AW4optimize_type@Item_func@@XZ 0046d960 f i item_create.obj
 0001:0006c970       ?func_name@Item_func_isclosed@@UBEPBDXZ 0046d970 f i item_create.obj
 0001:0006c980       ?fix_length_and_dec@Item_func_isclosed@@UAEXXZ 0046d980 f i item_create.obj
 0001:0006c990       ??0Item_func_dimension@@QAE@PAVItem@@@Z 0046d990 f i item_create.obj
 0001:0006ca10       ?func_name@Item_func_dimension@@UBEPBDXZ 0046da10 f i item_create.obj
 0001:0006ca20       ?fix_length_and_dec@Item_func_dimension@@UAEXXZ 0046da20 f i item_create.obj
 0001:0006ca30       ??0Item_func_x@@QAE@PAVItem@@@Z 0046da30 f i item_create.obj
 0001:0006cab0       ?func_name@Item_func_x@@UBEPBDXZ 0046dab0 f i item_create.obj
 0001:0006cac0       ?fix_length_and_dec@Item_func_x@@UAEXXZ 0046dac0 f i item_create.obj
 0001:0006cae0       ??0Item_func_y@@QAE@PAVItem@@@Z 0046dae0 f i item_create.obj
 0001:0006cb60       ?func_name@Item_func_y@@UBEPBDXZ 0046db60 f i item_create.obj
 0001:0006cb70       ?fix_length_and_dec@Item_func_y@@UAEXXZ 0046db70 f i item_create.obj
 0001:0006cb90       ??0Item_func_numgeometries@@QAE@PAVItem@@@Z 0046db90 f i item_create.obj
 0001:0006cc10       ?func_name@Item_func_numgeometries@@UBEPBDXZ 0046dc10 f i item_create.obj
 0001:0006cc20       ?fix_length_and_dec@Item_func_numgeometries@@UAEXXZ 0046dc20 f i item_create.obj
 0001:0006cc30       ??0Item_func_numinteriorring@@QAE@PAVItem@@@Z 0046dc30 f i item_create.obj
 0001:0006ccb0       ?func_name@Item_func_numinteriorring@@UBEPBDXZ 0046dcb0 f i item_create.obj
 0001:0006ccc0       ?fix_length_and_dec@Item_func_numinteriorring@@UAEXXZ 0046dcc0 f i item_create.obj
 0001:0006ccd0       ??0Item_func_numpoints@@QAE@PAVItem@@@Z 0046dcd0 f i item_create.obj
 0001:0006cd50       ?func_name@Item_func_numpoints@@UBEPBDXZ 0046dd50 f i item_create.obj
 0001:0006cd60       ?fix_length_and_dec@Item_func_numpoints@@UAEXXZ 0046dd60 f i item_create.obj
 0001:0006cd70       ??0Item_func_area@@QAE@PAVItem@@@Z 0046dd70 f i item_create.obj
 0001:0006cdf0       ?func_name@Item_func_area@@UBEPBDXZ 0046ddf0 f i item_create.obj
 0001:0006ce00       ?fix_length_and_dec@Item_func_area@@UAEXXZ 0046de00 f i item_create.obj
 0001:0006ce20       ??0Item_func_glength@@QAE@PAVItem@@@Z 0046de20 f i item_create.obj
 0001:0006cea0       ?func_name@Item_func_glength@@UBEPBDXZ 0046dea0 f i item_create.obj
 0001:0006ceb0       ?fix_length_and_dec@Item_func_glength@@UAEXXZ 0046deb0 f i item_create.obj
 0001:0006ced0       ??0Item_func_srid@@QAE@PAVItem@@@Z 0046ded0 f i item_create.obj
 0001:0006cf50       ?func_name@Item_func_srid@@UBEPBDXZ 0046df50 f i item_create.obj
 0001:0006cf60       ?fix_length_and_dec@Item_func_srid@@UAEXXZ 0046df60 f i item_create.obj
 0001:0006cf70       ??0Item_func_period_add@@QAE@PAVItem@@0@Z 0046df70 f i item_create.obj
 0001:0006cfa0       ?func_name@Item_func_period_add@@UBEPBDXZ 0046dfa0 f i item_create.obj
 0001:0006cfb0       ?fix_length_and_dec@Item_func_period_add@@UAEXXZ 0046dfb0 f i item_create.obj
 0001:0006cfc0       ??0Item_func_period_diff@@QAE@PAVItem@@0@Z 0046dfc0 f i item_create.obj
 0001:0006cff0       ?func_name@Item_func_period_diff@@UBEPBDXZ 0046dff0 f i item_create.obj
 0001:0006d000       ?fix_length_and_dec@Item_func_period_diff@@UAEXXZ 0046e000 f i item_create.obj
 0001:0006d010       ??0Item_func_to_days@@QAE@PAVItem@@@Z 0046e010 f i item_create.obj
 0001:0006d070       ?func_name@Item_func_to_days@@UBEPBDXZ 0046e070 f i item_create.obj
 0001:0006d080       ?fix_length_and_dec@Item_func_to_days@@UAEXXZ 0046e080 f i item_create.obj
 0001:0006d0a0       ??0Item_func_dayofmonth@@QAE@PAVItem@@@Z 0046e0a0 f i item_create.obj
 0001:0006d100       ?func_name@Item_func_dayofmonth@@UBEPBDXZ 0046e100 f i item_create.obj
 0001:0006d110       ?fix_length_and_dec@Item_func_dayofmonth@@UAEXXZ 0046e110 f i item_create.obj
 0001:0006d130       ??0Item_func_month@@QAE@PAVItem@@@Z 0046e130 f i item_create.obj
 0001:0006d180       ?val_real@Item_func_month@@UAENXZ 0046e180 f i item_create.obj
 0001:0006d1a0       ?val_str@Item_func_month@@UAEPAVString@@PAV2@@Z 0046e1a0 f i item_create.obj
 0001:0006d1e0       ?func_name@Item_func_month@@UBEPBDXZ 0046e1e0 f i item_create.obj
 0001:0006d1f0       ?result_type@Item_func_month@@UBE?AW4Item_result@@XZ 0046e1f0 f i item_create.obj
 0001:0006d200       ?fix_length_and_dec@Item_func_month@@UAEXXZ 0046e200 f i item_create.obj
 0001:0006d240       ??1Item_func_month@@UAE@XZ 0046e240 f i item_create.obj
 0001:0006d280       ??0Item_func_monthname@@QAE@PAVItem@@@Z 0046e280 f i item_create.obj
 0001:0006d2d0       ?func_name@Item_func_monthname@@UBEPBDXZ 0046e2d0 f i item_create.obj
 0001:0006d2e0       ?result_type@Item_func_monthname@@UBE?AW4Item_result@@XZ 0046e2e0 f i item_create.obj
 0001:0006d2f0       ?fix_length_and_dec@Item_func_monthname@@UAEXXZ 0046e2f0 f i item_create.obj
 0001:0006d330       ??0Item_func_dayofyear@@QAE@PAVItem@@@Z 0046e330 f i item_create.obj
 0001:0006d390       ?func_name@Item_func_dayofyear@@UBEPBDXZ 0046e390 f i item_create.obj
 0001:0006d3a0       ?fix_length_and_dec@Item_func_dayofyear@@UAEXXZ 0046e3a0 f i item_create.obj
 0001:0006d3c0       ??0Item_func_week@@QAE@PAVItem@@0@Z 0046e3c0 f i item_create.obj
 0001:0006d3f0       ?func_name@Item_func_week@@UBEPBDXZ 0046e3f0 f i item_create.obj
 0001:0006d400       ?fix_length_and_dec@Item_func_week@@UAEXXZ 0046e400 f i item_create.obj
 0001:0006d420       ??0Item_func_year@@QAE@PAVItem@@@Z 0046e420 f i item_create.obj
 0001:0006d480       ?func_name@Item_func_year@@UBEPBDXZ 0046e480 f i item_create.obj
 0001:0006d490       ?fix_length_and_dec@Item_func_year@@UAEXXZ 0046e490 f i item_create.obj
 0001:0006d4b0       ??0Item_func_weekday@@QAE@PAVItem@@H@Z 0046e4b0 f i item_create.obj
 0001:0006d510       ?val_real@Item_func_weekday@@UAENXZ 0046e510 f i item_create.obj
 0001:0006d530       ?val_str@Item_func_weekday@@UAEPAVString@@PAV2@@Z 0046e530 f i item_create.obj
 0001:0006d570       ?func_name@Item_func_weekday@@UBEPBDXZ 0046e570 f i item_create.obj
 0001:0006d590       ?result_type@Item_func_weekday@@UBE?AW4Item_result@@XZ 0046e590 f i item_create.obj
 0001:0006d5a0       ?fix_length_and_dec@Item_func_weekday@@UAEXXZ 0046e5a0 f i item_create.obj
 0001:0006d5e0       ??1Item_func_weekday@@UAE@XZ 0046e5e0 f i item_create.obj
 0001:0006d620       ??0Item_func_dayname@@QAE@PAVItem@@@Z 0046e620 f i item_create.obj
 0001:0006d680       ?func_name@Item_func_dayname@@UBEPBDXZ 0046e680 f i item_create.obj
 0001:0006d690       ?result_type@Item_func_dayname@@UBE?AW4Item_result@@XZ 0046e690 f i item_create.obj
 0001:0006d6a0       ?fix_length_and_dec@Item_func_dayname@@UAEXXZ 0046e6a0 f i item_create.obj
 0001:0006d6e0       ??0Item_func_time_to_sec@@QAE@PAVItem@@@Z 0046e6e0 f i item_create.obj
 0001:0006d740       ?func_name@Item_func_time_to_sec@@UBEPBDXZ 0046e740 f i item_create.obj
 0001:0006d750       ?fix_length_and_dec@Item_func_time_to_sec@@UAEXXZ 0046e750 f i item_create.obj
 0001:0006d760       ??0Item_date@@QAE@PAVItem@@@Z 0046e760 f i item_create.obj
 0001:0006d7b0       ?result_type@Item_date@@UBE?AW4Item_result@@XZ 0046e7b0 f i item_create.obj
 0001:0006d7c0       ?field_type@Item_date@@UBE?AW4enum_field_types@@XZ 0046e7c0 f i item_create.obj
 0001:0006d7d0       ?val_real@Item_date@@UAENXZ 0046e7d0 f i item_create.obj
 0001:0006d7e0       ?func_name@Item_date@@UBEPBDXZ 0046e7e0 f i item_create.obj
 0001:0006d7f0       ?fix_length_and_dec@Item_date@@UAEXXZ 0046e7f0 f i item_create.obj
 0001:0006d820       ?tmp_table_field@Item_date@@UAEPAVField@@PAUst_table@@@Z 0046e820 f i item_create.obj
 0001:0006d890       ?result_as_longlong@Item_date@@UAEHXZ 0046e890 f i item_create.obj
 0001:0006d8a0       ?val_decimal@Item_date@@UAEPAVmy_decimal@@PAV2@@Z 0046e8a0 f i item_create.obj
 0001:0006d8b0       ?save_in_field@Item_date@@UAEHPAVField@@H@Z 0046e8b0 f i item_create.obj
 0001:0006d8c0       ??1Item_date@@UAE@XZ       0046e8c0 f i item_create.obj
 0001:0006d900       ??0Item_date_func@@QAE@PAVItem@@0@Z 0046e900 f i item_create.obj
 0001:0006d930       ?field_type@Item_date_func@@UBE?AW4enum_field_types@@XZ 0046e930 f i item_create.obj
 0001:0006d940       ?tmp_table_field@Item_date_func@@UAEPAVField@@PAUst_table@@@Z 0046e940 f i item_create.obj
 0001:0006d9b0       ?result_as_longlong@Item_date_func@@UAEHXZ 0046e9b0 f i item_create.obj
 0001:0006d9c0       ?val_real@Item_date_func@@UAENXZ 0046e9c0 f i item_create.obj
 0001:0006d9e0       ?val_decimal@Item_date_func@@UAEPAVmy_decimal@@PAV2@@Z 0046e9e0 f i item_create.obj
 0001:0006d9f0       ?save_in_field@Item_date_func@@UAEHPAVField@@H@Z 0046e9f0 f i item_create.obj
 0001:0006da00       ??1Item_date_func@@UAE@XZ  0046ea00 f i item_create.obj
 0001:0006da40       ??0Item_str_timefunc@@QAE@PAVItem@@@Z 0046ea40 f i item_create.obj
 0001:0006daa0       ?field_type@Item_str_timefunc@@UBE?AW4enum_field_types@@XZ 0046eaa0 f i item_create.obj
 0001:0006dab0       ?fix_length_and_dec@Item_str_timefunc@@UAEXXZ 0046eab0 f i item_create.obj
 0001:0006dac0       ?tmp_table_field@Item_str_timefunc@@UAEPAVField@@PAUst_table@@@Z 0046eac0 f i item_create.obj
 0001:0006db30       ?val_real@Item_str_timefunc@@UAENXZ 0046eb30 f i item_create.obj
 0001:0006db40       ?val_decimal@Item_str_timefunc@@UAEPAVmy_decimal@@PAV2@@Z 0046eb40 f i item_create.obj
 0001:0006db50       ?save_in_field@Item_str_timefunc@@UAEHPAVField@@H@Z 0046eb50 f i item_create.obj
 0001:0006db60       ??0Item_str_timefunc@@QAE@PAVItem@@0@Z 0046eb60 f i item_create.obj
 0001:0006db90       ??0Item_str_timefunc@@QAE@PAVItem@@00@Z 0046eb90 f i item_create.obj
 0001:0006dbd0       ??1Item_str_timefunc@@UAE@XZ 0046ebd0 f i item_create.obj
 0001:0006dc10       ??0Item_func_from_days@@QAE@PAVItem@@@Z 0046ec10 f i item_create.obj
 0001:0006dc60       ?func_name@Item_func_from_days@@UBEPBDXZ 0046ec60 f i item_create.obj
 0001:0006dc70       ??0Item_func_date_format@@QAE@PAVItem@@0H@Z 0046ec70 f i item_create.obj
 0001:0006dce0       ?func_name@Item_func_date_format@@UBEPBDXZ 0046ece0 f i item_create.obj
 0001:0006dd00       ??0Item_func_sec_to_time@@QAE@PAVItem@@@Z 0046ed00 f i item_create.obj
 0001:0006dd60       ?val_real@Item_func_sec_to_time@@UAENXZ 0046ed60 f i item_create.obj
 0001:0006dd80       ?fix_length_and_dec@Item_func_sec_to_time@@UAEXXZ 0046ed80 f i item_create.obj
 0001:0006ddc0       ?func_name@Item_func_sec_to_time@@UBEPBDXZ 0046edc0 f i item_create.obj
 0001:0006ddd0       ?result_as_longlong@Item_func_sec_to_time@@UAEHXZ 0046edd0 f i item_create.obj
 0001:0006dde0       ??0Item_typecast@@QAE@PAVItem@@@Z 0046ede0 f i item_create.obj
 0001:0006de40       ?val_str@Item_typecast@@UAEPAVString@@PAV2@@Z 0046ee40 f i item_create.obj
 0001:0006de80       ?fix_length_and_dec@Item_typecast@@UAEXXZ 0046ee80 f i item_create.obj
 0001:0006deb0       ??1Item_typecast@@UAE@XZ   0046eeb0 f i item_create.obj
 0001:0006def0       ??0Item_typecast_maybe_null@@QAE@PAVItem@@@Z 0046eef0 f i item_create.obj
 0001:0006df50       ?fix_length_and_dec@Item_typecast_maybe_null@@UAEXXZ 0046ef50 f i item_create.obj
 0001:0006df90       ??1Item_typecast_maybe_null@@UAE@XZ 0046ef90 f i item_create.obj
 0001:0006dfd0       ??0Item_char_typecast@@QAE@PAVItem@@HPAUcharset_info_st@@@Z 0046efd0 f i item_create.obj
 0001:0006e070       ?functype@Item_char_typecast@@UBE?AW4Functype@Item_func@@XZ 0046f070 f i item_create.obj
 0001:0006e080       ?func_name@Item_char_typecast@@UBEPBDXZ 0046f080 f i item_create.obj
 0001:0006e090       ?cast_type@Item_char_typecast@@UBEPBDXZ 0046f090 f i item_create.obj
 0001:0006e0a0       ??0Item_date_typecast@@QAE@PAVItem@@@Z 0046f0a0 f i item_create.obj
 0001:0006e100       ?func_name@Item_date_typecast@@UBEPBDXZ 0046f100 f i item_create.obj
 0001:0006e110       ?cast_type@Item_date_typecast@@UBEPBDXZ 0046f110 f i item_create.obj
 0001:0006e120       ?field_type@Item_date_typecast@@UBE?AW4enum_field_types@@XZ 0046f120 f i item_create.obj
 0001:0006e130       ?tmp_table_field@Item_date_typecast@@UAEPAVField@@PAUst_table@@@Z 0046f130 f i item_create.obj
 0001:0006e1a0       ?fix_length_and_dec@Item_date_typecast@@UAEXXZ 0046f1a0 f i item_create.obj
 0001:0006e1d0       ?result_as_longlong@Item_date_typecast@@UAEHXZ 0046f1d0 f i item_create.obj
 0001:0006e1e0       ?val_real@Item_date_typecast@@UAENXZ 0046f1e0 f i item_create.obj
 0001:0006e200       ?val_decimal@Item_date_typecast@@UAEPAVmy_decimal@@PAV2@@Z 0046f200 f i item_create.obj
 0001:0006e210       ?save_in_field@Item_date_typecast@@UAEHPAVField@@H@Z 0046f210 f i item_create.obj
 0001:0006e220       ??0Item_time_typecast@@QAE@PAVItem@@@Z 0046f220 f i item_create.obj
 0001:0006e280       ?func_name@Item_time_typecast@@UBEPBDXZ 0046f280 f i item_create.obj
 0001:0006e290       ?cast_type@Item_time_typecast@@UBEPBDXZ 0046f290 f i item_create.obj
 0001:0006e2a0       ?field_type@Item_time_typecast@@UBE?AW4enum_field_types@@XZ 0046f2a0 f i item_create.obj
 0001:0006e2b0       ?tmp_table_field@Item_time_typecast@@UAEPAVField@@PAUst_table@@@Z 0046f2b0 f i item_create.obj
 0001:0006e320       ?result_as_longlong@Item_time_typecast@@UAEHXZ 0046f320 f i item_create.obj
 0001:0006e330       ?val_real@Item_time_typecast@@UAENXZ 0046f330 f i item_create.obj
 0001:0006e340       ?val_decimal@Item_time_typecast@@UAEPAVmy_decimal@@PAV2@@Z 0046f340 f i item_create.obj
 0001:0006e350       ?save_in_field@Item_time_typecast@@UAEHPAVField@@H@Z 0046f350 f i item_create.obj
 0001:0006e360       ??0Item_datetime_typecast@@QAE@PAVItem@@@Z 0046f360 f i item_create.obj
 0001:0006e3c0       ?func_name@Item_datetime_typecast@@UBEPBDXZ 0046f3c0 f i item_create.obj
 0001:0006e3d0       ?cast_type@Item_datetime_typecast@@UBEPBDXZ 0046f3d0 f i item_create.obj
 0001:0006e3e0       ?field_type@Item_datetime_typecast@@UBE?AW4enum_field_types@@XZ 0046f3e0 f i item_create.obj
 0001:0006e3f0       ?fix_length_and_dec@Item_datetime_typecast@@UAEXXZ 0046f3f0 f i item_create.obj
 0001:0006e430       ?tmp_table_field@Item_datetime_typecast@@UAEPAVField@@PAUst_table@@@Z 0046f430 f i item_create.obj
 0001:0006e4a0       ?result_as_longlong@Item_datetime_typecast@@UAEHXZ 0046f4a0 f i item_create.obj
 0001:0006e4b0       ?val_real@Item_datetime_typecast@@UAENXZ 0046f4b0 f i item_create.obj
 0001:0006e4c0       ?val_decimal@Item_datetime_typecast@@UAEPAVmy_decimal@@PAV2@@Z 0046f4c0 f i item_create.obj
 0001:0006e4d0       ?save_in_field@Item_datetime_typecast@@UAEHPAVField@@H@Z 0046f4d0 f i item_create.obj
 0001:0006e4e0       ??0Item_func_makedate@@QAE@PAVItem@@0@Z 0046f4e0 f i item_create.obj
 0001:0006e510       ?func_name@Item_func_makedate@@UBEPBDXZ 0046f510 f i item_create.obj
 0001:0006e520       ?field_type@Item_func_makedate@@UBE?AW4enum_field_types@@XZ 0046f520 f i item_create.obj
 0001:0006e530       ?fix_length_and_dec@Item_func_makedate@@UAEXXZ 0046f530 f i item_create.obj
 0001:0006e540       ?tmp_table_field@Item_func_makedate@@UAEPAVField@@PAUst_table@@@Z 0046f540 f i item_create.obj
 0001:0006e5b0       ?val_decimal@Item_func_makedate@@UAEPAVmy_decimal@@PAV2@@Z 0046f5b0 f i item_create.obj
 0001:0006e5c0       ?save_in_field@Item_func_makedate@@UAEHPAVField@@H@Z 0046f5c0 f i item_create.obj
 0001:0006e5d0       ??0Item_func_add_time@@QAE@PAVItem@@0HH@Z 0046f5d0 f i item_create.obj
 0001:0006e630       ?field_type@Item_func_add_time@@UBE?AW4enum_field_types@@XZ 0046f630 f i item_create.obj
 0001:0006e640       ?func_name@Item_func_add_time@@UBEPBDXZ 0046f640 f i item_create.obj
 0001:0006e650       ?val_real@Item_func_add_time@@UAENXZ 0046f650 f i item_create.obj
 0001:0006e660       ?val_decimal@Item_func_add_time@@UAEPAVmy_decimal@@PAV2@@Z 0046f660 f i item_create.obj
 0001:0006e690       ?save_in_field@Item_func_add_time@@UAEHPAVField@@H@Z 0046f690 f i item_create.obj
 0001:0006e6d0       ?tmp_table_field@Item_func_add_time@@UAEPAVField@@PAUst_table@@@Z 0046f6d0 f i item_create.obj
 0001:0006e820       ??0Item_func_timediff@@QAE@PAVItem@@0@Z 0046f820 f i item_create.obj
 0001:0006e850       ?func_name@Item_func_timediff@@UBEPBDXZ 0046f850 f i item_create.obj
 0001:0006e860       ?fix_length_and_dec@Item_func_timediff@@UAEXXZ 0046f860 f i item_create.obj
 0001:0006e880       ??0Item_func_maketime@@QAE@PAVItem@@00@Z 0046f880 f i item_create.obj
 0001:0006e8c0       ?func_name@Item_func_maketime@@UBEPBDXZ 0046f8c0 f i item_create.obj
 0001:0006e8d0       ??0Item_func_str_to_date@@QAE@PAVItem@@0@Z 0046f8d0 f i item_create.obj
 0001:0006e900       ?func_name@Item_func_str_to_date@@UBEPBDXZ 0046f900 f i item_create.obj
 0001:0006e910       ?field_type@Item_func_str_to_date@@UBE?AW4enum_field_types@@XZ 0046f910 f i item_create.obj
 0001:0006e920       ??0Item_func_last_day@@QAE@PAVItem@@@Z 0046f920 f i item_create.obj
 0001:0006e970       ?func_name@Item_func_last_day@@UBEPBDXZ 0046f970 f i item_create.obj
 0001:0006e980       ?create_func_abs@@YAPAVItem@@PAV1@@Z 0046f980 f   item_create.obj
 0001:0006e9f0       ?create_func_acos@@YAPAVItem@@PAV1@@Z 0046f9f0 f   item_create.obj
 0001:0006ea60       ?create_func_aes_encrypt@@YAPAVItem@@PAV1@0@Z 0046fa60 f   item_create.obj
 0001:0006eab0       ?create_func_aes_decrypt@@YAPAVItem@@PAV1@0@Z 0046fab0 f   item_create.obj
 0001:0006eb00       ?create_func_ascii@@YAPAVItem@@PAV1@@Z 0046fb00 f   item_create.obj
 0001:0006eb30       ?create_func_ord@@YAPAVItem@@PAV1@@Z 0046fb30 f   item_create.obj
 0001:0006eb60       ?create_func_asin@@YAPAVItem@@PAV1@@Z 0046fb60 f   item_create.obj
 0001:0006ebd0       ?create_func_bin@@YAPAVItem@@PAV1@@Z 0046fbd0 f   item_create.obj
 0001:0006ecc0       ?create_func_bit_count@@YAPAVItem@@PAV1@@Z 0046fcc0 f   item_create.obj
 0001:0006ed30       ?create_func_ceiling@@YAPAVItem@@PAV1@@Z 0046fd30 f   item_create.obj
 0001:0006eda0       ?create_func_connection_id@@YAPAVItem@@XZ 0046fda0 f   item_create.obj
 0001:0006ee20       ?create_func_conv@@YAPAVItem@@PAV1@00@Z 0046fe20 f   item_create.obj
 0001:0006ee70       ?create_func_cos@@YAPAVItem@@PAV1@@Z 0046fe70 f   item_create.obj
 0001:0006eee0       ?create_func_cot@@YAPAVItem@@PAV1@@Z 0046fee0 f   item_create.obj
 0001:0006efa0       ?create_func_date_format@@YAPAVItem@@PAV1@0@Z 0046ffa0 f   item_create.obj
 0001:0006efe0       ?create_func_dayofmonth@@YAPAVItem@@PAV1@@Z 0046ffe0 f   item_create.obj
 0001:0006f050       ?create_func_dayofweek@@YAPAVItem@@PAV1@@Z 00470050 f   item_create.obj
 0001:0006f0c0       ?create_func_dayofyear@@YAPAVItem@@PAV1@@Z 004700c0 f   item_create.obj
 0001:0006f130       ?create_func_dayname@@YAPAVItem@@PAV1@@Z 00470130 f   item_create.obj
 0001:0006f1b0       ?create_func_degrees@@YAPAVItem@@PAV1@@Z 004701b0 f   item_create.obj
 0001:0006f200       ?create_func_exp@@YAPAVItem@@PAV1@@Z 00470200 f   item_create.obj
 0001:0006f270       ?create_func_find_in_set@@YAPAVItem@@PAV1@0@Z 00470270 f   item_create.obj
 0001:0006f2a0       ?create_func_floor@@YAPAVItem@@PAV1@@Z 004702a0 f   item_create.obj
 0001:0006f310       ?create_func_found_rows@@YAPAVItem@@XZ 00470310 f   item_create.obj
 0001:0006f390       ?create_func_from_days@@YAPAVItem@@PAV1@@Z 00470390 f   item_create.obj
 0001:0006f400       ?create_func_get_lock@@YAPAVItem@@PAV1@0@Z 00470400 f   item_create.obj
 0001:0006f460       ?create_func_hex@@YAPAVItem@@PAV1@@Z 00470460 f   item_create.obj
 0001:0006f490       ?create_func_inet_ntoa@@YAPAVItem@@PAV1@@Z 00470490 f   item_create.obj
 0001:0006f500       ?create_func_inet_aton@@YAPAVItem@@PAV1@@Z 00470500 f   item_create.obj
 0001:0006f570       ?create_func_ifnull@@YAPAVItem@@PAV1@0@Z 00470570 f   item_create.obj
 0001:0006f5c0       ?create_func_nullif@@YAPAVItem@@PAV1@0@Z 004705c0 f   item_create.obj
 0001:0006f610       ?create_func_locate@@YAPAVItem@@PAV1@0@Z 00470610 f   item_create.obj
 0001:0006f640       ?create_func_instr@@YAPAVItem@@PAV1@0@Z 00470640 f   item_create.obj
 0001:0006f670       ?create_func_isnull@@YAPAVItem@@PAV1@@Z 00470670 f   item_create.obj
 0001:0006f6e0       ?create_func_lcase@@YAPAVItem@@PAV1@@Z 004706e0 f   item_create.obj
 0001:0006f720       ?create_func_length@@YAPAVItem@@PAV1@@Z 00470720 f   item_create.obj
 0001:0006f750       ?create_func_bit_length@@YAPAVItem@@PAV1@@Z 00470750 f   item_create.obj
 0001:0006f790       ?create_func_coercibility@@YAPAVItem@@PAV1@@Z 00470790 f   item_create.obj
 0001:0006f800       ?create_func_char_length@@YAPAVItem@@PAV1@@Z 00470800 f   item_create.obj
 0001:0006f830       ?create_func_ln@@YAPAVItem@@PAV1@@Z 00470830 f   item_create.obj
 0001:0006f8a0       ?create_func_log2@@YAPAVItem@@PAV1@@Z 004708a0 f   item_create.obj
 0001:0006f910       ?create_func_log10@@YAPAVItem@@PAV1@@Z 00470910 f   item_create.obj
 0001:0006f980       ?create_func_lpad@@YAPAVItem@@PAV1@00@Z 00470980 f   item_create.obj
 0001:0006f9c0       ?create_func_ltrim@@YAPAVItem@@PAV1@@Z 004709c0 f   item_create.obj
 0001:0006fa00       ?create_func_md5@@YAPAVItem@@PAV1@@Z 00470a00 f   item_create.obj
 0001:0006fa30       ?create_func_mod@@YAPAVItem@@PAV1@0@Z 00470a30 f   item_create.obj
 0001:0006fa80       ?create_func_name_const@@YAPAVItem@@PAV1@0@Z 00470a80 f   item_create.obj
 0001:0006fad0       ?create_func_monthname@@YAPAVItem@@PAV1@@Z 00470ad0 f   item_create.obj
 0001:0006fb40       ?create_func_month@@YAPAVItem@@PAV1@@Z 00470b40 f   item_create.obj
 0001:0006fbb0       ?create_func_oct@@YAPAVItem@@PAV1@@Z 00470bb0 f   item_create.obj
 0001:0006fc90       ?create_func_period_add@@YAPAVItem@@PAV1@0@Z 00470c90 f   item_create.obj
 0001:0006fce0       ?create_func_period_diff@@YAPAVItem@@PAV1@0@Z 00470ce0 f   item_create.obj
 0001:0006fd30       ?create_func_pi@@YAPAVItem@@XZ 00470d30 f   item_create.obj
 0001:0006fda0       ?create_func_pow@@YAPAVItem@@PAV1@0@Z 00470da0 f   item_create.obj
 0001:0006fde0       ?create_func_radians@@YAPAVItem@@PAV1@@Z 00470de0 f   item_create.obj
 0001:0006fe30       ?create_func_release_lock@@YAPAVItem@@PAV1@@Z 00470e30 f   item_create.obj
 0001:0006fe80       ?create_func_repeat@@YAPAVItem@@PAV1@0@Z 00470e80 f   item_create.obj
 0001:0006feb0       ?create_func_reverse@@YAPAVItem@@PAV1@@Z 00470eb0 f   item_create.obj
 0001:0006fee0       ?create_func_rpad@@YAPAVItem@@PAV1@00@Z 00470ee0 f   item_create.obj
 0001:0006ff20       ?create_func_rtrim@@YAPAVItem@@PAV1@@Z 00470f20 f   item_create.obj
 0001:0006ff60       ?create_func_sec_to_time@@YAPAVItem@@PAV1@@Z 00470f60 f   item_create.obj
 0001:0006ffd0       ?create_func_sign@@YAPAVItem@@PAV1@@Z 00470fd0 f   item_create.obj
 0001:00070040       ?create_func_sin@@YAPAVItem@@PAV1@@Z 00471040 f   item_create.obj
 0001:000700b0       ?create_func_sha@@YAPAVItem@@PAV1@@Z 004710b0 f   item_create.obj
 0001:000700e0       ?create_func_sleep@@YAPAVItem@@PAV1@@Z 004710e0 f   item_create.obj
 0001:00070180       ?create_func_space@@YAPAVItem@@PAV1@@Z 00471180 f   item_create.obj
 0001:00070270       ?create_func_soundex@@YAPAVItem@@PAV1@@Z 00471270 f   item_create.obj
 0001:000702a0       ?create_func_sqrt@@YAPAVItem@@PAV1@@Z 004712a0 f   item_create.obj
 0001:00070310       ?create_func_strcmp@@YAPAVItem@@PAV1@0@Z 00471310 f   item_create.obj
 0001:00070350       ?create_func_tan@@YAPAVItem@@PAV1@@Z 00471350 f   item_create.obj
 0001:000703c0       ?create_func_time_format@@YAPAVItem@@PAV1@0@Z 004713c0 f   item_create.obj
 0001:00070400       ?create_func_time_to_sec@@YAPAVItem@@PAV1@@Z 00471400 f   item_create.obj
 0001:00070470       ?create_func_to_days@@YAPAVItem@@PAV1@@Z 00471470 f   item_create.obj
 0001:000704e0       ?create_func_ucase@@YAPAVItem@@PAV1@@Z 004714e0 f   item_create.obj
 0001:00070520       ?create_func_unhex@@YAPAVItem@@PAV1@@Z 00471520 f   item_create.obj
 0001:00070550       ?create_func_uuid@@YAPAVItem@@XZ 00471550 f   item_create.obj
 0001:000705d0       ?create_func_version@@YAPAVItem@@XZ 004715d0 f   item_create.obj
 0001:00070640       ?create_func_weekday@@YAPAVItem@@PAV1@@Z 00471640 f   item_create.obj
 0001:000706c0       ?create_func_year@@YAPAVItem@@PAV1@@Z 004716c0 f   item_create.obj
 0001:00070730       ?create_load_file@@YAPAVItem@@PAV1@@Z 00471730 f   item_create.obj
 0001:00070780       ?create_func_cast@@YAPAVItem@@PAV1@W4Cast_target@@PBD2PAUcharset_info_st@@@Z 00471780 f   item_create.obj
 0001:00070a50       ?create_func_is_free_lock@@YAPAVItem@@PAV1@@Z 00471a50 f   item_create.obj
 0001:00070aa0       ?create_func_is_used_lock@@YAPAVItem@@PAV1@@Z 00471aa0 f   item_create.obj
 0001:00070af0       ?create_func_quote@@YAPAVItem@@PAV1@@Z 00471af0 f   item_create.obj
 0001:00070b20       ?create_func_as_wkt@@YAPAVItem@@PAV1@@Z 00471b20 f   item_create.obj
 0001:00070b90       ?create_func_as_wkb@@YAPAVItem@@PAV1@@Z 00471b90 f   item_create.obj
 0001:00070c00       ?create_func_srid@@YAPAVItem@@PAV1@@Z 00471c00 f   item_create.obj
 0001:00070c30       ?create_func_startpoint@@YAPAVItem@@PAV1@@Z 00471c30 f   item_create.obj
 0001:00070c60       ?create_func_endpoint@@YAPAVItem@@PAV1@@Z 00471c60 f   item_create.obj
 0001:00070c90       ?create_func_exteriorring@@YAPAVItem@@PAV1@@Z 00471c90 f   item_create.obj
 0001:00070cc0       ?create_func_pointn@@YAPAVItem@@PAV1@0@Z 00471cc0 f   item_create.obj
 0001:00070d20       ?create_func_interiorringn@@YAPAVItem@@PAV1@0@Z 00471d20 f   item_create.obj
 0001:00070d80       ?create_func_geometryn@@YAPAVItem@@PAV1@0@Z 00471d80 f   item_create.obj
 0001:00070de0       ?create_func_centroid@@YAPAVItem@@PAV1@@Z 00471de0 f   item_create.obj
 0001:00070e50       ?create_func_envelope@@YAPAVItem@@PAV1@@Z 00471e50 f   item_create.obj
 0001:00070ec0       ?create_func_equals@@YAPAVItem@@PAV1@0@Z 00471ec0 f   item_create.obj
 0001:00070f10       ?create_func_disjoint@@YAPAVItem@@PAV1@0@Z 00471f10 f   item_create.obj
 0001:00070f60       ?create_func_intersects@@YAPAVItem@@PAV1@0@Z 00471f60 f   item_create.obj
 0001:00070fb0       ?create_func_touches@@YAPAVItem@@PAV1@0@Z 00471fb0 f   item_create.obj
 0001:00071000       ?create_func_crosses@@YAPAVItem@@PAV1@0@Z 00472000 f   item_create.obj
 0001:00071050       ?create_func_within@@YAPAVItem@@PAV1@0@Z 00472050 f   item_create.obj
 0001:000710a0       ?create_func_contains@@YAPAVItem@@PAV1@0@Z 004720a0 f   item_create.obj
 0001:000710f0       ?create_func_overlaps@@YAPAVItem@@PAV1@0@Z 004720f0 f   item_create.obj
 0001:00071140       ?create_func_isempty@@YAPAVItem@@PAV1@@Z 00472140 f   item_create.obj
 0001:000711b0       ?create_func_issimple@@YAPAVItem@@PAV1@@Z 004721b0 f   item_create.obj
 0001:00071220       ?create_func_isclosed@@YAPAVItem@@PAV1@@Z 00472220 f   item_create.obj
 0001:00071290       ?create_func_geometry_type@@YAPAVItem@@PAV1@@Z 00472290 f   item_create.obj
 0001:00071300       ?create_func_dimension@@YAPAVItem@@PAV1@@Z 00472300 f   item_create.obj
 0001:00071330       ?create_func_x@@YAPAVItem@@PAV1@@Z 00472330 f   item_create.obj
 0001:00071360       ?create_func_y@@YAPAVItem@@PAV1@@Z 00472360 f   item_create.obj
 0001:00071390       ?create_func_numpoints@@YAPAVItem@@PAV1@@Z 00472390 f   item_create.obj
 0001:000713c0       ?create_func_numinteriorring@@YAPAVItem@@PAV1@@Z 004723c0 f   item_create.obj
 0001:000713f0       ?create_func_numgeometries@@YAPAVItem@@PAV1@@Z 004723f0 f   item_create.obj
 0001:00071420       ?create_func_area@@YAPAVItem@@PAV1@@Z 00472420 f   item_create.obj
 0001:00071450       ?create_func_glength@@YAPAVItem@@PAV1@@Z 00472450 f   item_create.obj
 0001:00071480       ?create_func_point@@YAPAVItem@@PAV1@0@Z 00472480 f   item_create.obj
 0001:000714d0       ?create_func_crc32@@YAPAVItem@@PAV1@@Z 004724d0 f   item_create.obj
 0001:00071500       ?create_func_compress@@YAPAVItem@@PAV1@@Z 00472500 f   item_create.obj
 0001:00071530       ?create_func_uncompress@@YAPAVItem@@PAV1@@Z 00472530 f   item_create.obj
 0001:00071560       ?create_func_uncompressed_length@@YAPAVItem@@PAV1@@Z 00472560 f   item_create.obj
 0001:00071590       ?create_func_datediff@@YAPAVItem@@PAV1@0@Z 00472590 f   item_create.obj
 0001:00071630       ?create_func_weekofyear@@YAPAVItem@@PAV1@@Z 00472630 f   item_create.obj
 0001:000716d0       ?create_func_makedate@@YAPAVItem@@PAV1@0@Z 004726d0 f   item_create.obj
 0001:00071720       ?create_func_addtime@@YAPAVItem@@PAV1@0@Z 00472720 f   item_create.obj
 0001:00071780       ?create_func_subtime@@YAPAVItem@@PAV1@0@Z 00472780 f   item_create.obj
 0001:000717e0       ?create_func_timediff@@YAPAVItem@@PAV1@0@Z 004727e0 f   item_create.obj
 0001:00071830       ?create_func_maketime@@YAPAVItem@@PAV1@00@Z 00472830 f   item_create.obj
 0001:00071880       ?create_func_str_to_date@@YAPAVItem@@PAV1@0@Z 00472880 f   item_create.obj
 0001:000718d0       ?create_func_last_day@@YAPAVItem@@PAV1@@Z 004728d0 f   item_create.obj
 0001:00071940       ??_EItem_name_const@@UAEPAXI@Z 00472940 f i item_create.obj
 0001:00071940       ??_GItem_name_const@@UAEPAXI@Z 00472940 f i item_create.obj
 0001:00071960       ??_EItem_static_float_func@@UAEPAXI@Z 00472960 f i item_create.obj
 0001:00071960       ??_GItem_static_float_func@@UAEPAXI@Z 00472960 f i item_create.obj
 0001:00071980       ??_GItem_real_func@@UAEPAXI@Z 00472980 f i item_create.obj
 0001:00071980       ??_EItem_real_func@@UAEPAXI@Z 00472980 f i item_create.obj
 0001:000719c0       ??_EItem_func_numhybrid@@UAEPAXI@Z 004729c0 f i item_create.obj
 0001:000719c0       ??_GItem_func_numhybrid@@UAEPAXI@Z 004729c0 f i item_create.obj
 0001:00071a00       ??_EItem_func_num1@@UAEPAXI@Z 00472a00 f i item_create.obj
 0001:00071a00       ??_GItem_func_num1@@UAEPAXI@Z 00472a00 f i item_create.obj
 0001:00071a40       ??_GItem_num_op@@UAEPAXI@Z 00472a40 f i item_create.obj
 0001:00071a40       ??_EItem_num_op@@UAEPAXI@Z 00472a40 f i item_create.obj
 0001:00071a80       ??_EItem_func_connection_id@@UAEPAXI@Z 00472a80 f i item_create.obj
 0001:00071a80       ??_GItem_func_connection_id@@UAEPAXI@Z 00472a80 f i item_create.obj
 0001:00071aa0       ??_EItem_func_signed@@UAEPAXI@Z 00472aa0 f i item_create.obj
 0001:00071aa0       ??_GItem_func_signed@@UAEPAXI@Z 00472aa0 f i item_create.obj
 0001:00071ae0       ??_GItem_func_unsigned@@UAEPAXI@Z 00472ae0 f i item_create.obj
 0001:00071ae0       ??_EItem_func_unsigned@@UAEPAXI@Z 00472ae0 f i item_create.obj
 0001:00071b00       ??_EItem_decimal_typecast@@UAEPAXI@Z 00472b00 f i item_create.obj
 0001:00071b00       ??_GItem_decimal_typecast@@UAEPAXI@Z 00472b00 f i item_create.obj
 0001:00071b20       ??_EItem_func_additive_op@@UAEPAXI@Z 00472b20 f i item_create.obj
 0001:00071b20       ??_GItem_func_additive_op@@UAEPAXI@Z 00472b20 f i item_create.obj
 0001:00071b60       ??_GItem_func_minus@@UAEPAXI@Z 00472b60 f i item_create.obj
 0001:00071b60       ??_EItem_func_minus@@UAEPAXI@Z 00472b60 f i item_create.obj
 0001:00071b80       ??_GItem_func_div@@UAEPAXI@Z 00472b80 f i item_create.obj
 0001:00071b80       ??_EItem_func_div@@UAEPAXI@Z 00472b80 f i item_create.obj
 0001:00071ba0       ??_GItem_func_mod@@UAEPAXI@Z 00472ba0 f i item_create.obj
 0001:00071ba0       ??_EItem_func_mod@@UAEPAXI@Z 00472ba0 f i item_create.obj
 0001:00071bc0       ??_EItem_func_abs@@UAEPAXI@Z 00472bc0 f i item_create.obj
 0001:00071bc0       ??_GItem_func_abs@@UAEPAXI@Z 00472bc0 f i item_create.obj
 0001:00071be0       ??_EItem_dec_func@@UAEPAXI@Z 00472be0 f i item_create.obj
 0001:00071be0       ??_GItem_dec_func@@UAEPAXI@Z 00472be0 f i item_create.obj
 0001:00071c20       ??_GItem_func_exp@@UAEPAXI@Z 00472c20 f i item_create.obj
 0001:00071c20       ??_EItem_func_exp@@UAEPAXI@Z 00472c20 f i item_create.obj
 0001:00071c40       ??_GItem_func_ln@@UAEPAXI@Z 00472c40 f i item_create.obj
 0001:00071c40       ??_EItem_func_ln@@UAEPAXI@Z 00472c40 f i item_create.obj
 0001:00071c60       ??_GItem_func_log2@@UAEPAXI@Z 00472c60 f i item_create.obj
 0001:00071c60       ??_EItem_func_log2@@UAEPAXI@Z 00472c60 f i item_create.obj
 0001:00071c80       ??_GItem_func_log10@@UAEPAXI@Z 00472c80 f i item_create.obj
 0001:00071c80       ??_EItem_func_log10@@UAEPAXI@Z 00472c80 f i item_create.obj
 0001:00071ca0       ??_GItem_func_sqrt@@UAEPAXI@Z 00472ca0 f i item_create.obj
 0001:00071ca0       ??_EItem_func_sqrt@@UAEPAXI@Z 00472ca0 f i item_create.obj
 0001:00071cc0       ??_GItem_func_pow@@UAEPAXI@Z 00472cc0 f i item_create.obj
 0001:00071cc0       ??_EItem_func_pow@@UAEPAXI@Z 00472cc0 f i item_create.obj
 0001:00071ce0       ??_GItem_func_acos@@UAEPAXI@Z 00472ce0 f i item_create.obj
 0001:00071ce0       ??_EItem_func_acos@@UAEPAXI@Z 00472ce0 f i item_create.obj
 0001:00071d00       ??_EItem_func_asin@@UAEPAXI@Z 00472d00 f i item_create.obj
 0001:00071d00       ??_GItem_func_asin@@UAEPAXI@Z 00472d00 f i item_create.obj
 0001:00071d20       ??_GItem_func_cos@@UAEPAXI@Z 00472d20 f i item_create.obj
 0001:00071d20       ??_EItem_func_cos@@UAEPAXI@Z 00472d20 f i item_create.obj
 0001:00071d40       ??_GItem_func_sin@@UAEPAXI@Z 00472d40 f i item_create.obj
 0001:00071d40       ??_EItem_func_sin@@UAEPAXI@Z 00472d40 f i item_create.obj
 0001:00071d60       ??_EItem_func_tan@@UAEPAXI@Z 00472d60 f i item_create.obj
 0001:00071d60       ??_GItem_func_tan@@UAEPAXI@Z 00472d60 f i item_create.obj
 0001:00071d80       ??_EItem_func_int_val@@UAEPAXI@Z 00472d80 f i item_create.obj
 0001:00071d80       ??_GItem_func_int_val@@UAEPAXI@Z 00472d80 f i item_create.obj
 0001:00071dc0       ??_GItem_func_ceiling@@UAEPAXI@Z 00472dc0 f i item_create.obj
 0001:00071dc0       ??_EItem_func_ceiling@@UAEPAXI@Z 00472dc0 f i item_create.obj
 0001:00071de0       ??_EItem_func_floor@@UAEPAXI@Z 00472de0 f i item_create.obj
 0001:00071de0       ??_GItem_func_floor@@UAEPAXI@Z 00472de0 f i item_create.obj
 0001:00071e00       ??_GItem_func_sign@@UAEPAXI@Z 00472e00 f i item_create.obj
 0001:00071e00       ??_EItem_func_sign@@UAEPAXI@Z 00472e00 f i item_create.obj
 0001:00071e20       ??_EItem_func_units@@UAEPAXI@Z 00472e20 f i item_create.obj
 0001:00071e20       ??_GItem_func_units@@UAEPAXI@Z 00472e20 f i item_create.obj
 0001:00071e40       ??_GItem_func_length@@UAEPAXI@Z 00472e40 f i item_create.obj
 0001:00071e40       ??_EItem_func_length@@UAEPAXI@Z 00472e40 f i item_create.obj
 0001:00071e60       ??_EItem_func_bit_length@@UAEPAXI@Z 00472e60 f i item_create.obj
 0001:00071e60       ??_GItem_func_bit_length@@UAEPAXI@Z 00472e60 f i item_create.obj
 0001:00071e80       ??_GItem_func_char_length@@UAEPAXI@Z 00472e80 f i item_create.obj
 0001:00071e80       ??_EItem_func_char_length@@UAEPAXI@Z 00472e80 f i item_create.obj
 0001:00071eb0       ??_EItem_func_coercibility@@UAEPAXI@Z 00472eb0 f i item_create.obj
 0001:00071eb0       ??_GItem_func_coercibility@@UAEPAXI@Z 00472eb0 f i item_create.obj
 0001:00071ed0       ??_GItem_func_locate@@UAEPAXI@Z 00472ed0 f i item_create.obj
 0001:00071ed0       ??_EItem_func_locate@@UAEPAXI@Z 00472ed0 f i item_create.obj
 0001:00071f00       ??_EItem_func_ascii@@UAEPAXI@Z 00472f00 f i item_create.obj
 0001:00071f00       ??_GItem_func_ascii@@UAEPAXI@Z 00472f00 f i item_create.obj
 0001:00071f30       ??_GItem_func_ord@@UAEPAXI@Z 00472f30 f i item_create.obj
 0001:00071f30       ??_EItem_func_ord@@UAEPAXI@Z 00472f30 f i item_create.obj
 0001:00071f60       ??_EItem_func_find_in_set@@UAEPAXI@Z 00472f60 f i item_create.obj
 0001:00071f60       ??_GItem_func_find_in_set@@UAEPAXI@Z 00472f60 f i item_create.obj
 0001:00071f90       ??_EItem_func_bit_count@@UAEPAXI@Z 00472f90 f i item_create.obj
 0001:00071f90       ??_GItem_func_bit_count@@UAEPAXI@Z 00472f90 f i item_create.obj
 0001:00071fb0       ??_GItem_func_sleep@@UAEPAXI@Z 00472fb0 f i item_create.obj
 0001:00071fb0       ??_EItem_func_sleep@@UAEPAXI@Z 00472fb0 f i item_create.obj
 0001:00071fd0       ??_EItem_func_get_lock@@UAEPAXI@Z 00472fd0 f i item_create.obj
 0001:00071fd0       ??_GItem_func_get_lock@@UAEPAXI@Z 00472fd0 f i item_create.obj
 0001:00072000       ??_GItem_func_release_lock@@UAEPAXI@Z 00473000 f i item_create.obj
 0001:00072000       ??_EItem_func_release_lock@@UAEPAXI@Z 00473000 f i item_create.obj
 0001:00072030       ??_GItem_func_inet_aton@@UAEPAXI@Z 00473030 f i item_create.obj
 0001:00072030       ??_EItem_func_inet_aton@@UAEPAXI@Z 00473030 f i item_create.obj
 0001:00072050       ??_EItem_func_is_free_lock@@UAEPAXI@Z 00473050 f i item_create.obj
 0001:00072050       ??_GItem_func_is_free_lock@@UAEPAXI@Z 00473050 f i item_create.obj
 0001:00072080       ??_EItem_func_is_used_lock@@UAEPAXI@Z 00473080 f i item_create.obj
 0001:00072080       ??_GItem_func_is_used_lock@@UAEPAXI@Z 00473080 f i item_create.obj
 0001:000720b0       ??_GItem_func_found_rows@@UAEPAXI@Z 004730b0 f i item_create.obj
 0001:000720b0       ??_EItem_func_found_rows@@UAEPAXI@Z 004730b0 f i item_create.obj
 0001:000720d0       ??_EItem_func_strcmp@@UAEPAXI@Z 004730d0 f i item_create.obj
 0001:000720d0       ??_GItem_func_strcmp@@UAEPAXI@Z 004730d0 f i item_create.obj
 0001:000720f0       ??_GItem_func_coalesce@@UAEPAXI@Z 004730f0 f i item_create.obj
 0001:000720f0       ??_EItem_func_coalesce@@UAEPAXI@Z 004730f0 f i item_create.obj
 0001:00072130       ??_GItem_func_ifnull@@UAEPAXI@Z 00473130 f i item_create.obj
 0001:00072130       ??_EItem_func_ifnull@@UAEPAXI@Z 00473130 f i item_create.obj
 0001:00072150       ??_EItem_func_nullif@@UAEPAXI@Z 00473150 f i item_create.obj
 0001:00072150       ??_GItem_func_nullif@@UAEPAXI@Z 00473150 f i item_create.obj
 0001:00072170       ??_EItem_func_md5@@UAEPAXI@Z 00473170 f i item_create.obj
 0001:00072170       ??_GItem_func_md5@@UAEPAXI@Z 00473170 f i item_create.obj
 0001:000721a0       ??_GItem_func_sha@@UAEPAXI@Z 004731a0 f i item_create.obj
 0001:000721a0       ??_EItem_func_sha@@UAEPAXI@Z 004731a0 f i item_create.obj
 0001:000721c0       ??_EItem_func_aes_encrypt@@UAEPAXI@Z 004731c0 f i item_create.obj
 0001:000721c0       ??_GItem_func_aes_encrypt@@UAEPAXI@Z 004731c0 f i item_create.obj
 0001:000721e0       ??_GItem_func_aes_decrypt@@UAEPAXI@Z 004731e0 f i item_create.obj
 0001:000721e0       ??_EItem_func_aes_decrypt@@UAEPAXI@Z 004731e0 f i item_create.obj
 0001:00072200       ??_EItem_func_reverse@@UAEPAXI@Z 00473200 f i item_create.obj
 0001:00072200       ??_GItem_func_reverse@@UAEPAXI@Z 00473200 f i item_create.obj
 0001:00072230       ??_EItem_str_conv@@UAEPAXI@Z 00473230 f i item_create.obj
 0001:00072230       ??_GItem_str_conv@@UAEPAXI@Z 00473230 f i item_create.obj
 0001:00072250       ??_EItem_func_lcase@@UAEPAXI@Z 00473250 f i item_create.obj
 0001:00072250       ??_GItem_func_lcase@@UAEPAXI@Z 00473250 f i item_create.obj
 0001:00072270       ??_GItem_func_ucase@@UAEPAXI@Z 00473270 f i item_create.obj
 0001:00072270       ??_EItem_func_ucase@@UAEPAXI@Z 00473270 f i item_create.obj
 0001:00072290       ??_GItem_func_trim@@UAEPAXI@Z 00473290 f i item_create.obj
 0001:00072290       ??_EItem_func_trim@@UAEPAXI@Z 00473290 f i item_create.obj
 0001:000722b0       ??_EItem_func_ltrim@@UAEPAXI@Z 004732b0 f i item_create.obj
 0001:000722b0       ??_GItem_func_ltrim@@UAEPAXI@Z 004732b0 f i item_create.obj
 0001:000722d0       ??_EItem_func_rtrim@@UAEPAXI@Z 004732d0 f i item_create.obj
 0001:000722d0       ??_GItem_func_rtrim@@UAEPAXI@Z 004732d0 f i item_create.obj
 0001:000722f0       ??_EItem_func_soundex@@UAEPAXI@Z 004732f0 f i item_create.obj
 0001:000722f0       ??_GItem_func_soundex@@UAEPAXI@Z 004732f0 f i item_create.obj
 0001:00072320       ??_EItem_func_repeat@@UAEPAXI@Z 00473320 f i item_create.obj
 0001:00072320       ??_GItem_func_repeat@@UAEPAXI@Z 00473320 f i item_create.obj
 0001:00072350       ??_GItem_func_rpad@@UAEPAXI@Z 00473350 f i item_create.obj
 0001:00072350       ??_EItem_func_rpad@@UAEPAXI@Z 00473350 f i item_create.obj
 0001:00072380       ??_EItem_func_lpad@@UAEPAXI@Z 00473380 f i item_create.obj
 0001:00072380       ??_GItem_func_lpad@@UAEPAXI@Z 00473380 f i item_create.obj
 0001:000723b0       ??_EItem_func_conv@@UAEPAXI@Z 004733b0 f i item_create.obj
 0001:000723b0       ??_GItem_func_conv@@UAEPAXI@Z 004733b0 f i item_create.obj
 0001:000723d0       ??_EItem_func_hex@@UAEPAXI@Z 004733d0 f i item_create.obj
 0001:000723d0       ??_GItem_func_hex@@UAEPAXI@Z 004733d0 f i item_create.obj
 0001:00072400       ??_EItem_func_unhex@@UAEPAXI@Z 00473400 f i item_create.obj
 0001:00072400       ??_GItem_func_unhex@@UAEPAXI@Z 00473400 f i item_create.obj
 0001:00072430       ??_GItem_func_binary@@UAEPAXI@Z 00473430 f i item_create.obj
 0001:00072430       ??_EItem_func_binary@@UAEPAXI@Z 00473430 f i item_create.obj
 0001:00072450       ??_EItem_load_file@@UAEPAXI@Z 00473450 f i item_create.obj
 0001:00072450       ??_GItem_load_file@@UAEPAXI@Z 00473450 f i item_create.obj
 0001:00072480       ??_GItem_func_inet_ntoa@@UAEPAXI@Z 00473480 f i item_create.obj
 0001:00072480       ??_EItem_func_inet_ntoa@@UAEPAXI@Z 00473480 f i item_create.obj
 0001:000724a0       ??_EItem_func_quote@@UAEPAXI@Z 004734a0 f i item_create.obj
 0001:000724a0       ??_GItem_func_quote@@UAEPAXI@Z 004734a0 f i item_create.obj
 0001:000724d0       ??_GItem_func_crc32@@UAEPAXI@Z 004734d0 f i item_create.obj
 0001:000724d0       ??_EItem_func_crc32@@UAEPAXI@Z 004734d0 f i item_create.obj
 0001:00072500       ??_EItem_func_uncompressed_length@@UAEPAXI@Z 00473500 f i item_create.obj
 0001:00072500       ??_GItem_func_uncompressed_length@@UAEPAXI@Z 00473500 f i item_create.obj
 0001:00072530       ??_EItem_func_compress@@UAEPAXI@Z 00473530 f i item_create.obj
 0001:00072530       ??_GItem_func_compress@@UAEPAXI@Z 00473530 f i item_create.obj
 0001:00072560       ??_EItem_func_uncompress@@UAEPAXI@Z 00473560 f i item_create.obj
 0001:00072560       ??_GItem_func_uncompress@@UAEPAXI@Z 00473560 f i item_create.obj
 0001:00072590       ??_EItem_func_uuid@@UAEPAXI@Z 00473590 f i item_create.obj
 0001:00072590       ??_GItem_func_uuid@@UAEPAXI@Z 00473590 f i item_create.obj
 0001:000725b0       ??_GItem_geometry_func@@UAEPAXI@Z 004735b0 f i item_create.obj
 0001:000725b0       ??_EItem_geometry_func@@UAEPAXI@Z 004735b0 f i item_create.obj
 0001:000725f0       ??_EItem_func_as_wkt@@UAEPAXI@Z 004735f0 f i item_create.obj
 0001:000725f0       ??_GItem_func_as_wkt@@UAEPAXI@Z 004735f0 f i item_create.obj
 0001:00072610       ??_EItem_func_as_wkb@@UAEPAXI@Z 00473610 f i item_create.obj
 0001:00072610       ??_GItem_func_as_wkb@@UAEPAXI@Z 00473610 f i item_create.obj
 0001:00072630       ??_EItem_func_geometry_type@@UAEPAXI@Z 00473630 f i item_create.obj
 0001:00072630       ??_GItem_func_geometry_type@@UAEPAXI@Z 00473630 f i item_create.obj
 0001:00072650       ??_EItem_func_centroid@@UAEPAXI@Z 00473650 f i item_create.obj
 0001:00072650       ??_GItem_func_centroid@@UAEPAXI@Z 00473650 f i item_create.obj
 0001:00072670       ??_EItem_func_envelope@@UAEPAXI@Z 00473670 f i item_create.obj
 0001:00072670       ??_GItem_func_envelope@@UAEPAXI@Z 00473670 f i item_create.obj
 0001:00072690       ??_EItem_func_point@@UAEPAXI@Z 00473690 f i item_create.obj
 0001:00072690       ??_GItem_func_point@@UAEPAXI@Z 00473690 f i item_create.obj
 0001:000726b0       ??_EItem_func_spatial_decomp@@UAEPAXI@Z 004736b0 f i item_create.obj
 0001:000726b0       ??_GItem_func_spatial_decomp@@UAEPAXI@Z 004736b0 f i item_create.obj
 0001:000726d0       ??_GItem_func_spatial_decomp_n@@UAEPAXI@Z 004736d0 f i item_create.obj
 0001:000726d0       ??_EItem_func_spatial_decomp_n@@UAEPAXI@Z 004736d0 f i item_create.obj
 0001:000726f0       ??_EItem_func_spatial_rel@@UAEPAXI@Z 004736f0 f i item_create.obj
 0001:000726f0       ??_GItem_func_spatial_rel@@UAEPAXI@Z 004736f0 f i item_create.obj
 0001:00072710       ??_GItem_func_isempty@@UAEPAXI@Z 00473710 f i item_create.obj
 0001:00072710       ??_EItem_func_isempty@@UAEPAXI@Z 00473710 f i item_create.obj
 0001:00072730       ??_GItem_func_issimple@@UAEPAXI@Z 00473730 f i item_create.obj
 0001:00072730       ??_EItem_func_issimple@@UAEPAXI@Z 00473730 f i item_create.obj
 0001:00072750       ??_GItem_func_isclosed@@UAEPAXI@Z 00473750 f i item_create.obj
 0001:00072750       ??_EItem_func_isclosed@@UAEPAXI@Z 00473750 f i item_create.obj
 0001:00072770       ??_GItem_func_dimension@@UAEPAXI@Z 00473770 f i item_create.obj
 0001:00072770       ??_EItem_func_dimension@@UAEPAXI@Z 00473770 f i item_create.obj
 0001:000727a0       ??_EItem_func_x@@UAEPAXI@Z 004737a0 f i item_create.obj
 0001:000727a0       ??_GItem_func_x@@UAEPAXI@Z 004737a0 f i item_create.obj
 0001:000727d0       ??_EItem_func_y@@UAEPAXI@Z 004737d0 f i item_create.obj
 0001:000727d0       ??_GItem_func_y@@UAEPAXI@Z 004737d0 f i item_create.obj
 0001:00072800       ??_GItem_func_numgeometries@@UAEPAXI@Z 00473800 f i item_create.obj
 0001:00072800       ??_EItem_func_numgeometries@@UAEPAXI@Z 00473800 f i item_create.obj
 0001:00072830       ??_EItem_func_numinteriorring@@UAEPAXI@Z 00473830 f i item_create.obj
 0001:00072830       ??_GItem_func_numinteriorring@@UAEPAXI@Z 00473830 f i item_create.obj
 0001:00072860       ??_GItem_func_numpoints@@UAEPAXI@Z 00473860 f i item_create.obj
 0001:00072860       ??_EItem_func_numpoints@@UAEPAXI@Z 00473860 f i item_create.obj
 0001:00072890       ??_EItem_func_area@@UAEPAXI@Z 00473890 f i item_create.obj
 0001:00072890       ??_GItem_func_area@@UAEPAXI@Z 00473890 f i item_create.obj
 0001:000728c0       ??_EItem_func_glength@@UAEPAXI@Z 004738c0 f i item_create.obj
 0001:000728c0       ??_GItem_func_glength@@UAEPAXI@Z 004738c0 f i item_create.obj
 0001:000728f0       ??_EItem_func_srid@@UAEPAXI@Z 004738f0 f i item_create.obj
 0001:000728f0       ??_GItem_func_srid@@UAEPAXI@Z 004738f0 f i item_create.obj
 0001:00072920       ??_EItem_func_period_add@@UAEPAXI@Z 00473920 f i item_create.obj
 0001:00072920       ??_GItem_func_period_add@@UAEPAXI@Z 00473920 f i item_create.obj
 0001:00072940       ??_EItem_func_period_diff@@UAEPAXI@Z 00473940 f i item_create.obj
 0001:00072940       ??_GItem_func_period_diff@@UAEPAXI@Z 00473940 f i item_create.obj
 0001:00072960       ??_EItem_func_to_days@@UAEPAXI@Z 00473960 f i item_create.obj
 0001:00072960       ??_GItem_func_to_days@@UAEPAXI@Z 00473960 f i item_create.obj
 0001:00072980       ??_EItem_func_dayofmonth@@UAEPAXI@Z 00473980 f i item_create.obj
 0001:00072980       ??_GItem_func_dayofmonth@@UAEPAXI@Z 00473980 f i item_create.obj
 0001:000729a0       ??_EItem_func_month@@UAEPAXI@Z 004739a0 f i item_create.obj
 0001:000729a0       ??_GItem_func_month@@UAEPAXI@Z 004739a0 f i item_create.obj
 0001:000729e0       ??_GItem_func_monthname@@UAEPAXI@Z 004739e0 f i item_create.obj
 0001:000729e0       ??_EItem_func_monthname@@UAEPAXI@Z 004739e0 f i item_create.obj
 0001:00072a00       ??_GItem_func_dayofyear@@UAEPAXI@Z 00473a00 f i item_create.obj
 0001:00072a00       ??_EItem_func_dayofyear@@UAEPAXI@Z 00473a00 f i item_create.obj
 0001:00072a20       ??_EItem_func_week@@UAEPAXI@Z 00473a20 f i item_create.obj
 0001:00072a20       ??_GItem_func_week@@UAEPAXI@Z 00473a20 f i item_create.obj
 0001:00072a40       ??_GItem_func_year@@UAEPAXI@Z 00473a40 f i item_create.obj
 0001:00072a40       ??_EItem_func_year@@UAEPAXI@Z 00473a40 f i item_create.obj
 0001:00072a60       ??_EItem_func_weekday@@UAEPAXI@Z 00473a60 f i item_create.obj
 0001:00072a60       ??_GItem_func_weekday@@UAEPAXI@Z 00473a60 f i item_create.obj
 0001:00072aa0       ??_GItem_func_dayname@@UAEPAXI@Z 00473aa0 f i item_create.obj
 0001:00072aa0       ??_EItem_func_dayname@@UAEPAXI@Z 00473aa0 f i item_create.obj
 0001:00072ac0       ??_EItem_func_time_to_sec@@UAEPAXI@Z 00473ac0 f i item_create.obj
 0001:00072ac0       ??_GItem_func_time_to_sec@@UAEPAXI@Z 00473ac0 f i item_create.obj
 0001:00072ae0       ??_EItem_date@@UAEPAXI@Z   00473ae0 f i item_create.obj
 0001:00072ae0       ??_GItem_date@@UAEPAXI@Z   00473ae0 f i item_create.obj
 0001:00072b20       ??_GItem_date_func@@UAEPAXI@Z 00473b20 f i item_create.obj
 0001:00072b20       ??_EItem_date_func@@UAEPAXI@Z 00473b20 f i item_create.obj
 0001:00072b60       ??_GItem_str_timefunc@@UAEPAXI@Z 00473b60 f i item_create.obj
 0001:00072b60       ??_EItem_str_timefunc@@UAEPAXI@Z 00473b60 f i item_create.obj
 0001:00072ba0       ??_GItem_func_from_days@@UAEPAXI@Z 00473ba0 f i item_create.obj
 0001:00072ba0       ??_EItem_func_from_days@@UAEPAXI@Z 00473ba0 f i item_create.obj
 0001:00072bc0       ??_EItem_func_date_format@@UAEPAXI@Z 00473bc0 f i item_create.obj
 0001:00072bc0       ??_GItem_func_date_format@@UAEPAXI@Z 00473bc0 f i item_create.obj
 0001:00072bf0       ??_GItem_func_sec_to_time@@UAEPAXI@Z 00473bf0 f i item_create.obj
 0001:00072bf0       ??_EItem_func_sec_to_time@@UAEPAXI@Z 00473bf0 f i item_create.obj
 0001:00072c10       ??_GItem_typecast@@UAEPAXI@Z 00473c10 f i item_create.obj
 0001:00072c10       ??_EItem_typecast@@UAEPAXI@Z 00473c10 f i item_create.obj
 0001:00072c50       ??_EItem_typecast_maybe_null@@UAEPAXI@Z 00473c50 f i item_create.obj
 0001:00072c50       ??_GItem_typecast_maybe_null@@UAEPAXI@Z 00473c50 f i item_create.obj
 0001:00072c90       ??_GItem_char_typecast@@UAEPAXI@Z 00473c90 f i item_create.obj
 0001:00072c90       ??_EItem_char_typecast@@UAEPAXI@Z 00473c90 f i item_create.obj
 0001:00072cc0       ??_GItem_date_typecast@@UAEPAXI@Z 00473cc0 f i item_create.obj
 0001:00072cc0       ??_EItem_date_typecast@@UAEPAXI@Z 00473cc0 f i item_create.obj
 0001:00072ce0       ??_EItem_time_typecast@@UAEPAXI@Z 00473ce0 f i item_create.obj
 0001:00072ce0       ??_GItem_time_typecast@@UAEPAXI@Z 00473ce0 f i item_create.obj
 0001:00072d00       ??_EItem_datetime_typecast@@UAEPAXI@Z 00473d00 f i item_create.obj
 0001:00072d00       ??_GItem_datetime_typecast@@UAEPAXI@Z 00473d00 f i item_create.obj
 0001:00072d20       ??_GItem_func_makedate@@UAEPAXI@Z 00473d20 f i item_create.obj
 0001:00072d20       ??_EItem_func_makedate@@UAEPAXI@Z 00473d20 f i item_create.obj
 0001:00072d40       ??_GItem_func_add_time@@UAEPAXI@Z 00473d40 f i item_create.obj
 0001:00072d40       ??_EItem_func_add_time@@UAEPAXI@Z 00473d40 f i item_create.obj
 0001:00072d60       ??_GItem_func_timediff@@UAEPAXI@Z 00473d60 f i item_create.obj
 0001:00072d60       ??_EItem_func_timediff@@UAEPAXI@Z 00473d60 f i item_create.obj
 0001:00072d80       ??_GItem_func_maketime@@UAEPAXI@Z 00473d80 f i item_create.obj
 0001:00072d80       ??_EItem_func_maketime@@UAEPAXI@Z 00473d80 f i item_create.obj
 0001:00072da0       ??_GItem_func_str_to_date@@UAEPAXI@Z 00473da0 f i item_create.obj
 0001:00072da0       ??_EItem_func_str_to_date@@UAEPAXI@Z 00473da0 f i item_create.obj
 0001:00072dc0       ??_GItem_func_last_day@@UAEPAXI@Z 00473dc0 f i item_create.obj
 0001:00072dc0       ??_EItem_func_last_day@@UAEPAXI@Z 00473dc0 f i item_create.obj
 0001:00072de0       ?is_set@?$Bitmap@$0EA@@@QBEDI@Z 00473de0 f i item_func.obj
 0001:00072e20       ??3String@@SAXPAXI@Z       00473e20 f i item_func.obj
 0001:00072e30       ??AString@@QBEAADK@Z       00473e30 f i item_func.obj
 0001:00072e40       ?my_decimal_floor@@YAHIPBVmy_decimal@@PAV1@@Z 00473e40 f i item_func.obj
 0001:00072e80       ?my_decimal_ceiling@@YAHIPBVmy_decimal@@PAV1@@Z 00473e80 f i item_func.obj
 0001:00072ec0       ?my_decimal_neg@@YAXPAUst_decimal_t@@@Z 00473ec0 f i item_func.obj
 0001:00072ef0       ?my_decimal_sub@@YAHIPAVmy_decimal@@PBV1@1@Z 00473ef0 f i item_func.obj
 0001:00072f60       ?my_decimal_mul@@YAHIPAVmy_decimal@@PBV1@1@Z 00473f60 f i item_func.obj
 0001:00072fd0       ?my_decimal_mod@@YAHIPAVmy_decimal@@PBV1@1@Z 00473fd0 f i item_func.obj
 0001:00073040       ?my_decimal_intg@@YAHPBVmy_decimal@@@Z 00474040 f i item_func.obj
 0001:00073050       ?move_field@Field@@QAEXPAD@Z 00474050 f i item_func.obj
 0001:00073060       ??0Field_long@@QAE@KHPBDPAUst_table@@H@Z 00474060 f i item_func.obj
 0001:000730c0       ??0Field_longlong@@QAE@KHPBDPAUst_table@@H@Z 004740c0 f i item_func.obj
 0001:00073120       ?agg_arg_collations_for_comparison@Item_func@@QAEHAAVDTCollation@@PAPAVItem@@II@Z 00474120 f i item_func.obj
 0001:00073160       ?fix_result@Item_dec_func@@QAENN@Z 00474160 f i item_func.obj
 0001:000731c0       ?get_name@Item_func_get_user_var@@QAE?AUst_lex_string@@XZ 004741c0 f i item_func.obj
 0001:000731e0       ??1?$List@Vkey_part_spec@@@@QAE@XZ 004741e0 f i item_func.obj
 0001:000731f0       ??0set_var_base@@QAE@XZ    004741f0 f i item_func.obj
 0001:00073200       ??1set_var_base@@UAE@XZ    00474200 f i item_func.obj
 0001:00073210       ?light_check@set_var_base@@UAEHPAVTHD@@@Z 00474210 f i item_func.obj
 0001:00073220       ?no_support_one_shot@set_var_base@@UAEHXZ 00474220 f i item_func.obj
 0001:00073230       ??_Gset_var_base@@UAEPAXI@Z 00474230 f i item_func.obj
 0001:00073230       ??_Eset_var_base@@UAEPAXI@Z 00474230 f i item_func.obj
 0001:00073240       ??0set_var_user@@QAE@PAVItem_func_set_user_var@@@Z 00474240 f i item_func.obj
 0001:00073260       ??1st_select_lex_node@@UAE@XZ 00474260 f i item_func.obj
 0001:00073270       ?set_lock_for_tables@st_select_lex_node@@UAEXW4thr_lock_type@@@Z 00474270 f i item_func.obj
 0001:00073280       ??_Gst_select_lex_node@@UAEPAXI@Z 00474280 f i item_func.obj
 0001:00073280       ??_Est_select_lex_node@@UAEPAXI@Z 00474280 f i item_func.obj
 0001:00073290       ??1Name_resolution_context@@QAE@XZ 00474290 f i item_func.obj
 0001:000732a0       ??1?$List@VItem_func_match@@@@QAE@XZ 004742a0 f i item_func.obj
 0001:000732b0       ??1?$List@UTABLE_LIST@@@@QAE@XZ 004742b0 f i item_func.obj
 0001:000732c0       ??1?$List@V?$List@VItem@@@@@@QAE@XZ 004742c0 f i item_func.obj
 0001:000732d0       ??1?$List@VItem_outer_ref@@@@QAE@XZ 004742d0 f i item_func.obj
 0001:000732e0       ??1?$List@Ust_udf_func@@@@QAE@XZ 004742e0 f i item_func.obj
 0001:000732f0       ??1?$List@VAlter_drop@@@@QAE@XZ 004742f0 f i item_func.obj
 0001:00073300       ??1?$List@VAlter_column@@@@QAE@XZ 00474300 f i item_func.obj
 0001:00073310       ??1?$List@VKey@@@@QAE@XZ   00474310 f i item_func.obj
 0001:00073320       ??1?$List@Vcreate_field@@@@QAE@XZ 00474320 f i item_func.obj
 0001:00073330       ??1Query_tables_list@@QAE@XZ 00474330 f i item_func.obj
 0001:00073340       ??1st_select_lex_unit@@UAE@XZ 00474340 f i item_func.obj
 0001:00073350       ??1?$List@Ust_lex_user@@@@QAE@XZ 00474350 f i item_func.obj
 0001:00073360       ??1?$List@VLEX_COLUMN@@@@QAE@XZ 00474360 f i item_func.obj
 0001:00073370       ??1?$List@Vset_var_base@@@@QAE@XZ 00474370 f i item_func.obj
 0001:00073380       ??1?$List@VItem_param@@@@QAE@XZ 00474380 f i item_func.obj
 0001:00073390       ??1?$List@UName_resolution_context@@@@QAE@XZ 00474390 f i item_func.obj
 0001:000733a0       ??1Alter_info@@QAE@XZ      004743a0 f i item_func.obj
 0001:000733b0       ?found_rows@THD@@QAE_KXZ   004743b0 f i item_func.obj
 0001:000733c0       ?fatal_error@THD@@QAEXXZ   004743c0 f i item_func.obj
 0001:000733e0       ?killed_errno@THD@@QBEHXZ  004743e0 f i item_func.obj
 0001:00073400       ?send_kill_message@THD@@QBEXXZ 00474400 f i item_func.obj
 0001:00073440       ?check_reserved_words@@YAHPAUst_lex_string@@@Z 00474440 f   item_func.obj
 0001:000734c0       ?eval_const_cond@@YAHPAVItem@@@Z 004744c0 f   item_func.obj
 0001:000734e0       ?fix_fields@Item_func@@UAEHPAVTHD@@PAPAVItem@@@Z 004744e0 f   item_func.obj
 0001:000736d0       ?walk@Item_func@@UAEHP8Item@@AEHPAE@Z0@Z 004746d0 f   item_func.obj
 0001:00073740       ?traverse_cond@Item_func@@UAEXP6AXPBVItem@@PAX@Z1W4traverse_order@2@@Z 00474740 f   item_func.obj
 0001:00073810       ?transform@Item_func@@UAEPAVItem@@P82@AEPAV2@PAE@Z0@Z 00474810 f   item_func.obj
 0001:000738d0       ?compile@Item_func@@UAEPAVItem@@P82@AEHPAPAE@Z0P82@AEPAV2@PAE@Z2@Z 004748d0 f   item_func.obj
 0001:000739c0       ?split_sum_func@Item_func@@UAEXPAVTHD@@PAPAVItem@@AAV?$List@VItem@@@@@Z 004749c0 f   item_func.obj
 0001:00073a10       ?update_used_tables@Item_func@@UAEXXZ 00474a10 f   item_func.obj
 0001:00073a90       ?used_tables@Item_func@@UBE_KXZ 00474a90 f   item_func.obj
 0001:00073aa0       ?not_null_tables@Item_func@@UBE_KXZ 00474aa0 f   item_func.obj
 0001:00073ab0       ?print_args@Item_func@@QAEXPAVString@@I@Z 00474ab0 f   item_func.obj
 0001:00073b30       ?print_op@Item_func@@QAEXPAVString@@@Z 00474b30 f   item_func.obj
 0001:00073c80       ?eq@Item_func@@UBEHPBVItem@@H@Z 00474c80 f   item_func.obj
 0001:00073db0       ?is_expensive_processor@Item_func@@UAEHPAE@Z 00474db0 f   item_func.obj
 0001:00073dc0       ?val_decimal@Item_func@@UAEPAVmy_decimal@@PAV2@@Z 00474dc0 f   item_func.obj
 0001:00073e10       ?val_str@Item_real_func@@UAEPAVString@@PAV2@@Z 00474e10 f   item_func.obj
 0001:00073e60       ?val_decimal@Item_real_func@@UAEPAVmy_decimal@@PAV2@@Z 00474e60 f   item_func.obj
 0001:00073ea0       ?fix_num_length_and_dec@Item_func@@UAEXXZ 00474ea0 f   item_func.obj
 0001:00073f20       ?fix_num_length_and_dec@Item_func_numhybrid@@UAEXXZ 00474f20 f   item_func.obj
 0001:00073f30       ?count_decimal_length@Item_func@@QAEXXZ 00474f30 f   item_func.obj
 0001:00074030       ?count_only_length@Item_func@@QAEXXZ 00475030 f   item_func.obj
 0001:00074080       ?count_real_length@Item_func@@QAEXXZ 00475080 f   item_func.obj
 0001:00074130       ?signal_divide_by_null@Item_func@@QAEXXZ 00475130 f   item_func.obj
 0001:00074190       ?get_tmp_table_item@Item_func@@UAEPAVItem@@PAVTHD@@@Z 00475190 f   item_func.obj
 0001:00074210       ?val_real@Item_int_func@@UAENXZ 00475210 f   item_func.obj
 0001:00074280       ?val_str@Item_int_func@@UAEPAVString@@PAV2@@Z 00475280 f   item_func.obj
 0001:000742d0       ?fix_length_and_dec@Item_func_connection_id@@UAEXXZ 004752d0 f   item_func.obj
 0001:000742e0       ?fix_fields@Item_func_connection_id@@UAEHPAVTHD@@PAPAVItem@@@Z 004752e0 f   item_func.obj
 0001:00074340       ?find_num_type@Item_num_op@@UAEXXZ 00475340 f   item_func.obj
 0001:00074410       ?find_num_type@Item_func_num1@@UAEXXZ 00475410 f   item_func.obj
 0001:00074480       ?fix_num_length_and_dec@Item_func_num1@@UAEXXZ 00475480 f   item_func.obj
 0001:000744a0       ?fix_length_and_dec@Item_func_numhybrid@@UAEXXZ 004754a0 f   item_func.obj
 0001:000744c0       ?val_str@Item_func_numhybrid@@UAEPAVString@@PAV2@@Z 004754c0 f   item_func.obj
 0001:00074640       ?val_real@Item_func_numhybrid@@UAENXZ 00475640 f   item_func.obj
 0001:000747a0       ?val_int@Item_func_numhybrid@@UAE_JXZ 004757a0 f   item_func.obj
 0001:000748d0       ?val_decimal@Item_func_numhybrid@@UAEPAVmy_decimal@@PAV2@@Z 004758d0 f   item_func.obj
 0001:000749c0       ?print@Item_func_signed@@UAEXPAVString@@@Z 004759c0 f   item_func.obj
 0001:00074a10       ?print@Item_func_unsigned@@UAEXPAVString@@@Z 00475a10 f   item_func.obj
 0001:00074a60       ?val_str@Item_decimal_typecast@@UAEPAVString@@PAV2@@Z 00475a60 f   item_func.obj
 0001:00074ad0       ?val_real@Item_decimal_typecast@@UAENXZ 00475ad0 f   item_func.obj
 0001:00074b30       ?val_int@Item_decimal_typecast@@UAE_JXZ 00475b30 f   item_func.obj
 0001:00074ba0       ?val_decimal@Item_decimal_typecast@@UAEPAVmy_decimal@@PAV2@@Z 00475ba0 f   item_func.obj
 0001:00074d00       ?print@Item_decimal_typecast@@UAEXPAVString@@@Z 00475d00 f   item_func.obj
 0001:00074e80       ?real_op@Item_func_plus@@UAENXZ 00475e80 f   item_func.obj
 0001:00074ef0       ?int_op@Item_func_plus@@UAE_JXZ 00475ef0 f   item_func.obj
 0001:00074f60       ?decimal_op@Item_func_plus@@UAEPAVmy_decimal@@PAV2@@Z 00475f60 f   item_func.obj
 0001:00075030       ?result_precision@Item_func_additive_op@@UAEXXZ 00476030 f   item_func.obj
 0001:00075140       ?fix_length_and_dec@Item_func_minus@@UAEXXZ 00476140 f   item_func.obj
 0001:00075190       ?real_op@Item_func_minus@@UAENXZ 00476190 f   item_func.obj
 0001:00075200       ?int_op@Item_func_minus@@UAE_JXZ 00476200 f   item_func.obj
 0001:00075270       ?decimal_op@Item_func_minus@@UAEPAVmy_decimal@@PAV2@@Z 00476270 f   item_func.obj
 0001:00075340       ?real_op@Item_func_mul@@UAENXZ 00476340 f   item_func.obj
 0001:000753b0       ?int_op@Item_func_mul@@UAE_JXZ 004763b0 f   item_func.obj
 0001:00075420       ?decimal_op@Item_func_mul@@UAEPAVmy_decimal@@PAV2@@Z 00476420 f   item_func.obj
 0001:000754f0       ?result_precision@Item_func_mul@@UAEXXZ 004764f0 f   item_func.obj
 0001:000755e0       ?real_op@Item_func_div@@UAENXZ 004765e0 f   item_func.obj
 0001:00075680       ?decimal_op@Item_func_div@@UAEPAVmy_decimal@@PAV2@@Z 00476680 f   item_func.obj
 0001:00075750       ?result_precision@Item_func_div@@UAEXXZ 00476750 f   item_func.obj
 0001:00075820       ?fix_length_and_dec@Item_func_div@@UAEXXZ 00476820 f   item_func.obj
 0001:00075920       ?val_int@Item_func_int_div@@UAE_JXZ 00476920 f   item_func.obj
 0001:000759c0       ?fix_length_and_dec@Item_func_int_div@@UAEXXZ 004769c0 f   item_func.obj
 0001:00075a00       ?int_op@Item_func_mod@@UAE_JXZ 00476a00 f   item_func.obj
 0001:00075ab0       ?real_op@Item_func_mod@@UAENXZ 00476ab0 f   item_func.obj
 0001:00075b60       ?decimal_op@Item_func_mod@@UAEPAVmy_decimal@@PAV2@@Z 00476b60 f   item_func.obj
 0001:00075c30       ?result_precision@Item_func_mod@@UAEXXZ 00476c30 f   item_func.obj
 0001:00075c70       ?fix_length_and_dec@Item_func_mod@@UAEXXZ 00476c70 f   item_func.obj
 0001:00075ca0       ?real_op@Item_func_neg@@UAENXZ 00476ca0 f   item_func.obj
 0001:00075cd0       ?int_op@Item_func_neg@@UAE_JXZ 00476cd0 f   item_func.obj
 0001:00075d00       ?decimal_op@Item_func_neg@@UAEPAVmy_decimal@@PAV2@@Z 00476d00 f   item_func.obj
 0001:00075da0       ?fix_num_length_and_dec@Item_func_neg@@UAEXXZ 00476da0 f   item_func.obj
 0001:00075dc0       ?fix_length_and_dec@Item_func_neg@@UAEXXZ 00476dc0 f   item_func.obj
 0001:00075e50       ?real_op@Item_func_abs@@UAENXZ 00476e50 f   item_func.obj
 0001:00075e80       ?int_op@Item_func_abs@@UAE_JXZ 00476e80 f   item_func.obj
 0001:00075ed0       ?decimal_op@Item_func_abs@@UAEPAVmy_decimal@@PAV2@@Z 00476ed0 f   item_func.obj
 0001:00075f80       ?fix_length_and_dec@Item_func_abs@@UAEXXZ 00476f80 f   item_func.obj
 0001:00075fb0       ?val_real@Item_func_ln@@UAENXZ 00476fb0 f   item_func.obj
 0001:00076010       ?val_real@Item_func_log@@UAENXZ 00477010 f   item_func.obj
 0001:00076100       ?val_real@Item_func_log2@@UAENXZ 00477100 f   item_func.obj
 0001:00076170       ?val_real@Item_func_log10@@UAENXZ 00477170 f   item_func.obj
 0001:000761d0       ?val_real@Item_func_exp@@UAENXZ 004771d0 f   item_func.obj
 0001:00076220       ?val_real@Item_func_sqrt@@UAENXZ 00477220 f   item_func.obj
 0001:00076270       ?val_real@Item_func_pow@@UAENXZ 00477270 f   item_func.obj
 0001:000762f0       ?val_real@Item_func_acos@@UAENXZ 004772f0 f   item_func.obj
 0001:000763b0       ?val_real@Item_func_asin@@UAENXZ 004773b0 f   item_func.obj
 0001:00076470       ?val_real@Item_func_atan@@UAENXZ 00477470 f   item_func.obj
 0001:00076520       ?val_real@Item_func_cos@@UAENXZ 00477520 f   item_func.obj
 0001:000765b0       ?val_real@Item_func_sin@@UAENXZ 004775b0 f   item_func.obj
 0001:00076640       ?val_real@Item_func_tan@@UAENXZ 00477640 f   item_func.obj
 0001:000766d0       ?val_int@Item_func_shift_left@@UAE_JXZ 004776d0 f   item_func.obj
 0001:00076740       ?val_int@Item_func_shift_right@@UAE_JXZ 00477740 f   item_func.obj
 0001:000767b0       ?val_int@Item_func_bit_neg@@UAE_JXZ 004777b0 f   item_func.obj
 0001:000767e0       ?fix_length_and_dec@Item_func_integer@@UAEXXZ 004777e0 f   item_func.obj
 0001:00076830       ?fix_num_length_and_dec@Item_func_int_val@@UAEXXZ 00477830 f   item_func.obj
 0001:00076880       ?find_num_type@Item_func_int_val@@UAEXXZ 00477880 f   item_func.obj
 0001:00076930       ?real_op@Item_func_ceiling@@UAENXZ 00477930 f   item_func.obj
 0001:00076980       ?decimal_op@Item_func_ceiling@@UAEPAVmy_decimal@@PAV2@@Z 00477980 f   item_func.obj
 0001:00076a20       ?real_op@Item_func_floor@@UAENXZ 00477a20 f   item_func.obj
 0001:00076a70       ?decimal_op@Item_func_floor@@UAEPAVmy_decimal@@PAV2@@Z 00477a70 f   item_func.obj
 0001:00076b10       ?fix_length_and_dec@Item_func_round@@UAEXXZ 00477b10 f   item_func.obj
 0001:00076d70       ?my_double_round@@YANN_JHH@Z 00477d70 f   item_func.obj
 0001:00077040       ?real_op@Item_func_round@@UAENXZ 00478040 f   item_func.obj
 0001:00077130       ?int_op@Item_func_round@@UAE_JXZ 00478130 f   item_func.obj
 0001:000772c0       ?decimal_op@Item_func_round@@UAEPAVmy_decimal@@PAV2@@Z 004782c0 f   item_func.obj
 0001:00077400       ?fix_fields@Item_func_rand@@UAEHPAVTHD@@PAPAVItem@@@Z 00478400 f   item_func.obj
 0001:00077550       ?update_used_tables@Item_func_rand@@UAEXXZ 00478550 f   item_func.obj
 0001:00077570       ?val_real@Item_func_rand@@UAENXZ 00478570 f   item_func.obj
 0001:00077590       ?val_int@Item_func_sign@@UAE_JXZ 00478590 f   item_func.obj
 0001:000775f0       ?val_real@Item_func_units@@UAENXZ 004785f0 f   item_func.obj
 0001:00077640       ?fix_length_and_dec@Item_func_min_max@@UAEXXZ 00478640 f   item_func.obj
 0001:00077860       ?cmp_datetimes@Item_func_min_max@@QAEIPA_K@Z 00478860 f   item_func.obj
 0001:00077980       ?val_str@Item_func_min_max@@UAEPAVString@@PAV2@@Z 00478980 f   item_func.obj
 0001:00077bc0       ?val_real@Item_func_min_max@@UAENXZ 00478bc0 f   item_func.obj
 0001:00077cf0       ?val_int@Item_func_min_max@@UAE_JXZ 00478cf0 f   item_func.obj
 0001:00077dd0       ?val_decimal@Item_func_min_max@@UAEPAVmy_decimal@@PAV2@@Z 00478dd0 f   item_func.obj
 0001:00077f30       ?val_int@Item_func_length@@UAE_JXZ 00478f30 f   item_func.obj
 0001:00077f70       ?val_int@Item_func_char_length@@UAE_JXZ 00478f70 f   item_func.obj
 0001:00077fb0       ?val_int@Item_func_coercibility@@UAE_JXZ 00478fb0 f   item_func.obj
 0001:00077fd0       ?fix_length_and_dec@Item_func_locate@@UAEXXZ 00478fd0 f   item_func.obj
 0001:00078010       ?val_int@Item_func_locate@@UAE_JXZ 00479010 f   item_func.obj
 0001:00078190       ?print@Item_func_locate@@UAEXPAVString@@@Z 00479190 f   item_func.obj
 0001:000782a0       ?val_int@Item_func_field@@UAE_JXZ 004792a0 f   item_func.obj
 0001:00078510       ?fix_length_and_dec@Item_func_field@@UAEXXZ 00479510 f   item_func.obj
 0001:000785c0       ?val_int@Item_func_ascii@@UAE_JXZ 004795c0 f   item_func.obj
 0001:00078610       ?val_int@Item_func_ord@@UAE_JXZ 00479610 f   item_func.obj
 0001:000786b0       ?fix_length_and_dec@Item_func_find_in_set@@UAEXXZ 004796b0 f   item_func.obj
 0001:000787c0       ?val_int@Item_func_find_in_set@@UAE_JXZ 004797c0 f   item_func.obj
 0001:000789e0       ?val_int@Item_func_bit_count@@UAE_JXZ 004799e0 f   item_func.obj
 0001:00078a20       ?fix_fields@udf_handler@@QAEHPAVTHD@@PAVItem_result_field@@IPAPAVItem@@@Z 00479a20 f   item_func.obj
 0001:00079030       ?get_arguments@udf_handler@@QAEHXZ 0047a030 f   item_func.obj
 0001:00079150       ?val_decimal@udf_handler@@QAEPAVmy_decimal@@PADPAV2@@Z 0047a150 f   item_func.obj
 0001:00079240       ?print@Item_udf_func@@UAEXPAVString@@@Z 0047a240 f   item_func.obj
 0001:00079340       ?val_str@Item_func_udf_float@@UAEPAVString@@PAV2@@Z 0047a340 f   item_func.obj
 0001:00079390       ?val_str@Item_func_udf_int@@UAEPAVString@@PAV2@@Z 0047a390 f   item_func.obj
 0001:000793e0       ?val_int@Item_func_udf_decimal@@UAE_JXZ 0047a3e0 f   item_func.obj
 0001:00079460       ?val_real@Item_func_udf_decimal@@UAENXZ 0047a460 f   item_func.obj
 0001:000794c0       ?val_decimal@Item_func_udf_decimal@@UAEPAVmy_decimal@@PAV2@@Z 0047a4c0 f   item_func.obj
 0001:000794e0       ?val_str@Item_func_udf_decimal@@UAEPAVString@@PAV2@@Z 0047a4e0 f   item_func.obj
 0001:000795a0       ?fix_length_and_dec@Item_func_udf_decimal@@UAEXXZ 0047a5a0 f   item_func.obj
 0001:000795b0       ?fix_length_and_dec@Item_func_udf_str@@UAEXXZ 0047a5b0 f   item_func.obj
 0001:000795f0       ??1udf_handler@@QAE@XZ     0047a5f0 f   item_func.obj
 0001:00079600       ??0User_level_lock@@QAE@PBDIK@Z 0047a600 f i item_func.obj
 0001:00079690       ??1User_level_lock@@QAE@XZ 0047a690 f i item_func.obj
 0001:000796d0       ?initialized@User_level_lock@@QAEHXZ 0047a6d0 f i item_func.obj
 0001:000796e0       ?ull_get_key@@YAPADPBVUser_level_lock@@PAID@Z 0047a6e0 f   item_func.obj
 0001:00079700       ?item_user_lock_init@@YAXXZ 0047a700 f   item_func.obj
 0001:00079750       ?item_user_lock_free@@YAXXZ 0047a750 f   item_func.obj
 0001:00079790       ??_GUser_level_lock@@QAEPAXI@Z 0047a790 f i item_func.obj
 0001:000797f0       ?val_int@Item_master_pos_wait@@UAE_JXZ 0047a7f0 f   item_func.obj
 0001:000798c0       ?fix_fields@Item_func_last_insert_id@@UAEHPAVTHD@@PAPAVItem@@@Z 0047a8c0 f   item_func.obj
 0001:00079950       ?val_int@Item_func_last_insert_id@@UAE_JXZ 0047a950 f   item_func.obj
 0001:000799d0       ?val_int@Item_func_sleep@@UAE_JXZ 0047a9d0 f   item_func.obj
 0001:00079c90       ?fix_fields@Item_func_set_user_var@@UAEHPAVTHD@@PAPAVItem@@@Z 0047ac90 f   item_func.obj
 0001:00079db0       ?fix_length_and_dec@Item_func_set_user_var@@UAEXXZ 0047adb0 f   item_func.obj
 0001:00079f50       ?update_hash@Item_func_set_user_var@@QAEHPAXIW4Item_result@@PAUcharset_info_st@@W4Derivation@@H@Z 0047af50 f   item_func.obj
 0001:0007a010       ?val_real@user_var_entry@@QAENPAD@Z 0047b010 f   item_func.obj
 0001:0007a0c0       ?val_int@user_var_entry@@QAE_JPAD@Z 0047b0c0 f   item_func.obj
 0001:0007a190       ?val_str@user_var_entry@@QAEPAVString@@PADPAV2@I@Z 0047b190 f   item_func.obj
 0001:0007a2b0       ?val_decimal@user_var_entry@@QAEPAVmy_decimal@@PADPAV2@@Z 0047b2b0 f   item_func.obj
 0001:0007a3a0       ?check@Item_func_set_user_var@@QAEHH@Z 0047b3a0 f   item_func.obj
 0001:0007a520       ?update@Item_func_set_user_var@@QAEHXZ 0047b520 f   item_func.obj
 0001:0007a620       ?val_real@Item_func_set_user_var@@UAENXZ 0047b620 f   item_func.obj
 0001:0007a650       ?val_int@Item_func_set_user_var@@UAE_JXZ 0047b650 f   item_func.obj
 0001:0007a680       ?val_str@Item_func_set_user_var@@UAEPAVString@@PAV2@@Z 0047b680 f   item_func.obj
 0001:0007a6c0       ?val_decimal@Item_func_set_user_var@@UAEPAVmy_decimal@@PAV2@@Z 0047b6c0 f   item_func.obj
 0001:0007a700       ?val_result@Item_func_set_user_var@@UAENXZ 0047b700 f   item_func.obj
 0001:0007a730       ?val_int_result@Item_func_set_user_var@@UAE_JXZ 0047b730 f   item_func.obj
 0001:0007a760       ?str_result@Item_func_set_user_var@@UAEPAVString@@PAV2@@Z 0047b760 f   item_func.obj
 0001:0007a7a0       ?val_decimal_result@Item_func_set_user_var@@UAEPAVmy_decimal@@PAV2@@Z 0047b7a0 f   item_func.obj
 0001:0007a7e0       ?print@Item_func_set_user_var@@UAEXPAVString@@@Z 0047b7e0 f   item_func.obj
 0001:0007a880       ?print_as_stmt@Item_func_set_user_var@@QAEXPAVString@@@Z 0047b880 f   item_func.obj
 0001:0007a920       ?send@Item_func_set_user_var@@UAEHPAVProtocol@@PAVString@@@Z 0047b920 f   item_func.obj
 0001:0007a970       ?make_field@Item_func_set_user_var@@UAEXPAVSend_field@@@Z 0047b970 f   item_func.obj
 0001:0007a9c0       ?save_in_field@Item_func_set_user_var@@QAEHPAVField@@HH@Z 0047b9c0 f   item_func.obj
 0001:0007ac70       ?val_str@Item_func_get_user_var@@UAEPAVString@@PAV2@@Z 0047bc70 f   item_func.obj
 0001:0007aca0       ?val_real@Item_func_get_user_var@@UAENXZ 0047bca0 f   item_func.obj
 0001:0007acd0       ?val_decimal@Item_func_get_user_var@@UAEPAVmy_decimal@@PAV2@@Z 0047bcd0 f   item_func.obj
 0001:0007ad00       ?val_int@Item_func_get_user_var@@UAE_JXZ 0047bd00 f   item_func.obj
 0001:0007ad30       ?const_item@Item_func_get_user_var@@UBEHXZ 0047bd30 f   item_func.obj
 0001:0007ad80       ?result_type@Item_func_get_user_var@@UBE?AW4Item_result@@XZ 0047bd80 f   item_func.obj
 0001:0007add0       ?print@Item_func_get_user_var@@UAEXPAVString@@@Z 0047bdd0 f   item_func.obj
 0001:0007ae50       ?eq@Item_func_get_user_var@@UBEHPBVItem@@H@Z 0047be50 f   item_func.obj
 0001:0007aee0       ?fix_fields@Item_user_var_as_out_param@@UAEHPAVTHD@@PAPAVItem@@@Z 0047bee0 f   item_func.obj
 0001:0007af80       ?set_null_value@Item_user_var_as_out_param@@QAEXPAUcharset_info_st@@@Z 0047bf80 f   item_func.obj
 0001:0007afd0       ?set_value@Item_user_var_as_out_param@@QAEXPBDIPAUcharset_info_st@@@Z 0047bfd0 f   item_func.obj
 0001:0007b0e0       ?val_real@Item_user_var_as_out_param@@UAENXZ 0047c0e0 f   item_func.obj
 0001:0007b0f0       ?val_int@Item_user_var_as_out_param@@UAE_JXZ 0047c0f0 f   item_func.obj
 0001:0007b100       ?val_str@Item_user_var_as_out_param@@UAEPAVString@@PAV2@@Z 0047c100 f   item_func.obj
 0001:0007b110       ?val_decimal@Item_user_var_as_out_param@@UAEPAVmy_decimal@@PAV2@@Z 0047c110 f   item_func.obj
 0001:0007b120       ?print@Item_user_var_as_out_param@@UAEXPAVString@@@Z 0047c120 f   item_func.obj
 0001:0007b180       ?fix_fields@Item_func_get_system_var@@UAEHPAVTHD@@PAPAVItem@@@Z 0047c180 f   item_func.obj
 0001:0007b210       ?fix_fields@Item_func_match@@UAEHPAVTHD@@PAPAVItem@@@Z 0047c210 f   item_func.obj
 0001:0007b3d0       ?fix_index@Item_func_match@@QAEHXZ 0047c3d0 f   item_func.obj
 0001:0007b6a0       ?eq@Item_func_match@@UBEHPBVItem@@H@Z 0047c6a0 f   item_func.obj
 0001:0007b750       ?val_real@Item_func_match@@UAENXZ 0047c750 f   item_func.obj
 0001:0007b850       ?print@Item_func_match@@UAEXPAVString@@@Z 0047c850 f   item_func.obj
 0001:0007b8f0       ?val_int@Item_func_bit_xor@@UAE_JXZ 0047c8f0 f   item_func.obj
 0001:0007b960       ?val_int@Item_func_is_free_lock@@UAE_JXZ 0047c960 f   item_func.obj
 0001:0007b9f0       ?val_int@Item_func_is_used_lock@@UAE_JXZ 0047c9f0 f   item_func.obj
 0001:0007ba80       ?val_int@Item_func_row_count@@UAE_JXZ 0047ca80 f   item_func.obj
 0001:0007bab0       ?cleanup@Item_func_sp@@UAEXXZ 0047cab0 f   item_func.obj
 0001:0007bb00       ?init_result_field@Item_func_sp@@AAEHPAVTHD@@@Z 0047cb00 f   item_func.obj
 0001:0007bc80       ?fix_length_and_dec@Item_func_sp@@UAEXXZ 0047cc80 f   item_func.obj
 0001:0007bcf0       ?make_field@Item_func_sp@@UAEXPAVSend_field@@@Z 0047ccf0 f   item_func.obj
 0001:0007bd10       ?field_type@Item_func_sp@@UBE?AW4enum_field_types@@XZ 0047cd10 f   item_func.obj
 0001:0007bd20       ?result_type@Item_func_sp@@UBE?AW4Item_result@@XZ 0047cd20 f   item_func.obj
 0001:0007bd30       ?val_int@Item_func_found_rows@@UAE_JXZ 0047cd30 f   item_func.obj
 0001:0007bd60       ?tmp_table_field@Item_func_sp@@UAEPAVField@@PAUst_table@@@Z 0047cd60 f   item_func.obj
 0001:0007bd70       ?sp_check_access@Item_func_sp@@QAEHPAVTHD@@@Z 0047cd70 f   item_func.obj
 0001:0007bdb0       ?fix_fields@Item_func_sp@@UAEHPAVTHD@@PAPAVItem@@@Z 0047cdb0 f   item_func.obj
 0001:0007be80       ?update_used_tables@Item_func_sp@@UAEXXZ 0047ce80 f   item_func.obj
 0001:0007bed0       ??0?$List@Vset_var_base@@@@QAE@XZ 0047ced0 f i item_func.obj
 0001:0007bef0       ?push_back@?$List@Vset_var_base@@@@QAEHPAVset_var_base@@@Z 0047cef0 f i item_func.obj
 0001:0007bf50       ??0Field_double@@QAE@KHPBDPAUst_table@@E@Z 0047cf50 f i item_func.obj
 0001:0007bfc0       ?val@udf_handler@@QAENPAD@Z 0047cfc0 f i item_func.obj
 0001:0007c060       ?val_int@udf_handler@@QAE_JPAD@Z 0047d060 f i item_func.obj
 0001:0007c0e0       ??0Item_result_field@@QAE@PAVTHD@@PAV0@@Z 0047d0e0 f i item_func.obj
 0001:0007c110       ??0Item_func_set_user_var@@QAE@Ust_lex_string@@PAVItem@@@Z 0047d110 f i item_func.obj
 0001:0007c1d0       ?functype@Item_func_set_user_var@@UBE?AW4Functype@Item_func@@XZ 0047d1d0 f i item_func.obj
 0001:0007c1e0       ?result_type@Item_func_set_user_var@@UBE?AW4Item_result@@XZ 0047d1e0 f i item_func.obj
 0001:0007c1f0       ?func_name@Item_func_set_user_var@@UBEPBDXZ 0047d1f0 f i item_func.obj
 0001:0007c200       ?save_in_field@Item_func_set_user_var@@UAEHPAVField@@H@Z 0047d200 f i item_func.obj
 0001:0007c220       ?save_org_in_field@Item_func_set_user_var@@UAEXPAVField@@@Z 0047d220 f i item_func.obj
 0001:0007c240       ??_Gset_var_user@@UAEPAXI@Z 0047d240 f i item_func.obj
 0001:0007c240       ??_Eset_var_user@@UAEPAXI@Z 0047d240 f i item_func.obj
 0001:0007c250       ??1st_select_lex@@UAE@XZ   0047d250 f i item_func.obj
 0001:0007c260       ??1st_lex@@UAE@XZ          0047d260 f i item_func.obj
 0001:0007c290       ??_Est_lex@@UAEPAXI@Z      0047d290 f i item_func.obj
 0001:0007c290       ??_Gst_lex@@UAEPAXI@Z      0047d290 f i item_func.obj
 0001:0007c2e0       ??0Item_func@@QAE@PAVTHD@@PAV0@@Z 0047d2e0 f   item_func.obj
 0001:0007c3b0       ?print@Item_func@@UAEXPAVString@@@Z 0047d3b0 f   item_func.obj
 0001:0007c460       ?tmp_table_field@Item_func@@UAEPAVField@@PAUst_table@@@Z 0047d460 f   item_func.obj
 0001:0007c5f0       ?val_int_from_str@Item_func_signed@@QAE_JPAH@Z 0047d5f0 f   item_func.obj
 0001:0007c820       ?val_int@Item_func_signed@@UAE_JXZ 0047d820 f   item_func.obj
 0001:0007c8e0       ?val_int@Item_func_unsigned@@UAE_JXZ 0047d8e0 f   item_func.obj
 0001:0007ca70       ?int_op@Item_func_ceiling@@UAE_JXZ 0047da70 f   item_func.obj
 0001:0007cb70       ?int_op@Item_func_floor@@UAE_JXZ 0047db70 f   item_func.obj
 0001:0007cc70       ??_EString@@QAEPAXI@Z      0047dc70 f i item_func.obj
 0001:0007cd20       ?val_str@udf_handler@@QAEPAVString@@PAV2@0@Z 0047dd20 f   item_func.obj
 0001:0007ce20       ?val_real@Item_func_udf_float@@UAENXZ 0047de20 f   item_func.obj
 0001:0007ce40       ?val_int@Item_func_udf_int@@UAE_JXZ 0047de40 f   item_func.obj
 0001:0007ce60       ?val_str@Item_func_udf_str@@UAEPAVString@@PAV2@@Z 0047de60 f   item_func.obj
 0001:0007ce90       ?item_user_lock_release@@YAXPAVUser_level_lock@@@Z 0047de90 f   item_func.obj
 0001:0007cf00       ?val_int@Item_func_get_lock@@UAE_JXZ 0047df00 f   item_func.obj
 0001:0007d2a0       ?val_int@Item_func_release_lock@@UAE_JXZ 0047e2a0 f   item_func.obj
 0001:0007d390       ?val_int@Item_func_benchmark@@UAE_JXZ 0047e390 f   item_func.obj
 0001:0007d510       ?print@Item_func_benchmark@@UAEXPAVString@@@Z 0047e510 f   item_func.obj
 0001:0007d650       ?get_var_with_binlog@@YAHPAVTHD@@W4enum_sql_command@@AAUst_lex_string@@PAPAVuser_var_entry@@@Z 0047e650 f   item_func.obj
 0001:0007d9d0       ?fix_length_and_dec@Item_func_get_user_var@@UAEXXZ 0047e9d0 f   item_func.obj
 0001:0007db10       ?set_value@Item_func_get_user_var@@EAEHPAVTHD@@PAVsp_rcontext@@PAPAVItem@@@Z 0047eb10 f   item_func.obj
 0001:0007dba0       ??0Item_func_get_system_var@@QAE@PAVsys_var@@W4enum_var_type@@PAUst_lex_string@@PBDI@Z 0047eba0 f   item_func.obj
 0001:0007dc20       ?val_real@Item_func_get_system_var@@UAENXZ 0047ec20 f i item_func.obj
 0001:0007dc30       ?val_int@Item_func_get_system_var@@UAE_JXZ 0047ec30 f i item_func.obj
 0001:0007dc40       ?val_str@Item_func_get_system_var@@UAEPAVString@@PAV2@@Z 0047ec40 f i item_func.obj
 0001:0007dc50       ?fix_length_and_dec@Item_func_get_system_var@@UAEXXZ 0047ec50 f i item_func.obj
 0001:0007dc60       ?func_name@Item_func_get_system_var@@UBEPBDXZ 0047ec60 f i item_func.obj
 0001:0007dc70       ?val_int@Item_func_inet_aton@@UAE_JXZ 0047ec70 f   item_func.obj
 0001:0007de10       ?get_system_var@@YAPAVItem@@PAVTHD@@W4enum_var_type@@Ust_lex_string@@2@Z 0047ee10 f   item_func.obj
 0001:0007dee0       ??0Item_func_sp@@QAE@PAUName_resolution_context@@PAVsp_name@@@Z 0047eee0 f   item_func.obj
 0001:0007df80       ?change_context_processor@Item_func_sp@@UAEHPAE@Z 0047ef80 f i item_func.obj
 0001:0007dfa0       ?functype@Item_func_sp@@UBE?AW4Functype@Item_func@@XZ 0047efa0 f i item_func.obj
 0001:0007dfb0       ?is_expensive@Item_func_sp@@UAEHXZ 0047efb0 f i item_func.obj
 0001:0007dfc0       ??_EItem_func_sp@@UAEPAXI@Z 0047efc0 f i item_func.obj
 0001:0007dfc0       ??_GItem_func_sp@@UAEPAXI@Z 0047efc0 f i item_func.obj
 0001:0007dfe0       ?func_name@Item_func_sp@@UBEPBDXZ 0047efe0 f   item_func.obj
 0001:0007e140       ?execute_impl@Item_func_sp@@AAEHPAVTHD@@@Z 0047f140 f   item_func.obj
 0001:0007e220       ??_EItem_func_set_user_var@@UAEPAXI@Z 0047f220 f i item_func.obj
 0001:0007e220       ??_GItem_func_set_user_var@@UAEPAXI@Z 0047f220 f i item_func.obj
 0001:0007e250       ?set_arguments@Item_func@@QAEXAAV?$List@VItem@@@@@Z 0047f250 f   item_func.obj
 0001:0007e2e0       ??0Item_func@@QAE@AAV?$List@VItem@@@@@Z 0047f2e0 f   item_func.obj
 0001:0007e320       ?cleanup@udf_handler@@QAEXXZ 0047f320 f   item_func.obj
 0001:0007e380       ?cleanup@Item_udf_func@@UAEXXZ 0047f380 f   item_func.obj
 0001:0007e410       ??_EItem_func_get_system_var@@UAEPAXI@Z 0047f410 f i item_func.obj
 0001:0007e410       ??_GItem_func_get_system_var@@UAEPAXI@Z 0047f410 f i item_func.obj
 0001:0007e430       ??0Item_func_sp@@QAE@PAUName_resolution_context@@PAVsp_name@@AAV?$List@VItem@@@@@Z 0047f430 f   item_func.obj
 0001:0007e4f0       ?execute@Item_func_sp@@AAEHXZ 0047f4f0 f   item_func.obj
 0001:0007e5d0       ?val_int@Item_func_sp@@UAE_JXZ 0047f5d0 f i item_func.obj
 0001:0007e600       ?val_real@Item_func_sp@@UAENXZ 0047f600 f i item_func.obj
 0001:0007e630       ?val_decimal@Item_func_sp@@UAEPAVmy_decimal@@PAV2@@Z 0047f630 f i item_func.obj
 0001:0007e660       ?val_str@Item_func_sp@@UAEPAVString@@PAV2@@Z 0047f660 f i item_func.obj
 0001:0007e750       ??0Item_str_func@@QAE@AAV?$List@VItem@@@@@Z 0047f750 f i item_func.obj
 0001:0007e7a0       ??0Item_func_concat_ws@@QAE@AAV?$List@VItem@@@@@Z 0047f7a0 f i item_func.obj
 0001:0007e810       ?func_name@Item_func_concat_ws@@UBEPBDXZ 0047f810 f i item_func.obj
 0001:0007e820       ?not_null_tables@Item_func_concat_ws@@UBE_KXZ 0047f820 f i item_func.obj
 0001:0007e830       ??_EItem_func_concat_ws@@UAEPAXI@Z 0047f830 f i item_func.obj
 0001:0007e830       ??_GItem_func_concat_ws@@UAEPAXI@Z 0047f830 f i item_func.obj
 0001:0007e860       ?init_search@Item_func_match@@QAEXH@Z 0047f860 f   item_func.obj
 0001:0007eb30       ?q_append@String@@QAEXD@Z  0047fb30 f i item_geofunc.obj
 0001:0007eb50       ?q_append@String@@QAEXK@Z  0047fb50 f i item_geofunc.obj
 0001:0007eb70       ?q_append@String@@QAEXN@Z  0047fb70 f i item_geofunc.obj
 0001:0007eba0       ?qs_append@String@@QAEXD@Z 0047fba0 f i item_geofunc.obj
 0001:0007ebc0       ?append@String@@QAEHPBDKK@Z 0047fbc0 f i item_geofunc.obj
 0001:0007ec40       ??0Gis_read_stream@@QAE@PAUcharset_info_st@@PBDH@Z 0047fc40 f i item_geofunc.obj
 0001:0007ec70       ??1Gis_read_stream@@QAE@XZ 0047fc70 f i item_geofunc.obj
 0001:0007ec80       ??0MBR@@QAE@NNNN@Z         0047fc80 f i item_geofunc.obj
 0001:0007ecb0       ?equals@MBR@@QAEHPBU1@@Z   0047fcb0 f i item_geofunc.obj
 0001:0007ed10       ?disjoint@MBR@@QAEHPBU1@@Z 0047fd10 f i item_geofunc.obj
 0001:0007ed70       ?intersects@MBR@@QAEHPBU1@@Z 0047fd70 f i item_geofunc.obj
 0001:0007ede0       ?touches@MBR@@QAEHPBU1@@Z  0047fde0 f i item_geofunc.obj
 0001:0007eec0       ?within@MBR@@QAEHPBU1@@Z   0047fec0 f i item_geofunc.obj
 0001:0007ef20       ?contains@MBR@@QAEHPBU1@@Z 0047ff20 f i item_geofunc.obj
 0001:0007ef80       ?dimension@MBR@@QBEHXZ     0047ff80 f i item_geofunc.obj
 0001:0007efe0       ?overlaps@MBR@@QAEHPBU1@@Z 0047ffe0 f i item_geofunc.obj
 0001:0007f190       ?as_wkt@Geometry@@QAEHPAVString@@PAPBD@Z 00480190 f i item_geofunc.obj
 0001:0007f230       ?fix_length_and_dec@Item_geometry_func@@UAEXXZ 00480230 f   item_geofunc.obj
 0001:0007f270       ?get_geometry_type@Item_geometry_func@@UBEHXZ 00480270 f   item_geofunc.obj
 0001:0007f280       ?fix_length_and_dec@Item_func_as_wkt@@UAEXXZ 00480280 f   item_geofunc.obj
 0001:0007f290       ?val_str@Item_func_geometry_type@@UAEPAVString@@PAV2@@Z 00480290 f   item_geofunc.obj
 0001:0007f340       ?get_geometry_type@Item_func_envelope@@UBEHXZ 00480340 f   item_geofunc.obj
 0001:0007f350       ?get_geometry_type@Item_func_centroid@@UBEHXZ 00480350 f   item_geofunc.obj
 0001:0007f360       ?get_geometry_type@Item_func_point@@UBEHXZ 00480360 f   item_geofunc.obj
 0001:0007f370       ?val_str@Item_func_point@@UAEPAVString@@PAV2@@Z 00480370 f   item_geofunc.obj
 0001:0007f4a0       ?val_int@Item_func_spatial_rel@@UAE_JXZ 004804a0 f   item_geofunc.obj
 0001:0007f710       ?val_int@Item_func_dimension@@UAE_JXZ 00480710 f   item_geofunc.obj
 0001:0007f7b0       ?val_int@Item_func_numinteriorring@@UAE_JXZ 004807b0 f   item_geofunc.obj
 0001:0007f840       ?val_int@Item_func_numgeometries@@UAE_JXZ 00480840 f   item_geofunc.obj
 0001:0007f8d0       ?val_int@Item_func_numpoints@@UAE_JXZ 004808d0 f   item_geofunc.obj
 0001:0007f970       ?val_real@Item_func_x@@UAENXZ 00480970 f   item_geofunc.obj
 0001:0007fa00       ?val_real@Item_func_y@@UAENXZ 00480a00 f   item_geofunc.obj
 0001:0007fa90       ?val_real@Item_func_area@@UAENXZ 00480a90 f   item_geofunc.obj
 0001:0007fb20       ?val_real@Item_func_glength@@UAENXZ 00480b20 f   item_geofunc.obj
 0001:0007fbb0       ?val_int@Item_func_srid@@UAE_JXZ 00480bb0 f   item_geofunc.obj
 0001:0007fc20       ?tmp_table_field@Item_geometry_func@@UAEPAVField@@PAUst_table@@@Z 00480c20 f   item_geofunc.obj
 0001:0007fc90       ?val_str@Item_func_geometry_from_text@@UAEPAVString@@PAV2@@Z 00480c90 f   item_geofunc.obj
 0001:0007fe50       ?val_str@Item_func_geometry_from_wkb@@UAEPAVString@@PAV2@@Z 00480e50 f   item_geofunc.obj
 0001:0007ffc0       ?val_str@Item_func_as_wkt@@UAEPAVString@@PAV2@@Z 00480fc0 f   item_geofunc.obj
 0001:000800f0       ?val_str@Item_func_as_wkb@@UAEPAVString@@PAV2@@Z 004810f0 f   item_geofunc.obj
 0001:000801f0       ?val_str@Item_func_envelope@@UAEPAVString@@PAV2@@Z 004811f0 f   item_geofunc.obj
 0001:00080340       ?val_str@Item_func_centroid@@UAEPAVString@@PAV2@@Z 00481340 f   item_geofunc.obj
 0001:000804c0       ?val_str@Item_func_spatial_decomp@@UAEPAVString@@PAV2@@Z 004814c0 f   item_geofunc.obj
 0001:00080620       ?val_str@Item_func_spatial_decomp_n@@UAEPAVString@@PAV2@@Z 00481620 f   item_geofunc.obj
 0001:000807e0       ?val_str@Item_func_spatial_collection@@UAEPAVString@@PAV2@@Z 004817e0 f   item_geofunc.obj
 0001:00080b00       ?val_int@Item_func_isempty@@UAE_JXZ 00481b00 f   item_geofunc.obj
 0001:00080bc0       ?val_int@Item_func_issimple@@UAE_JXZ 00481bc0 f   item_geofunc.obj
 0001:00080c60       ?val_int@Item_func_isclosed@@UAE_JXZ 00481c60 f   item_geofunc.obj
 0001:00080d30       ?illegal_method_call@Item_row@@QAEXPBD@Z 00481d30 f   item_row.obj
 0001:00080d50       ?fix_fields@Item_row@@UAEHPAVTHD@@PAPAVItem@@@Z 00481d50 f   item_row.obj
 0001:00080e70       ?cleanup@Item_row@@UAEXXZ  00481e70 f   item_row.obj
 0001:00080ea0       ?split_sum_func@Item_row@@UAEXPAVTHD@@PAPAVItem@@AAV?$List@VItem@@@@@Z 00481ea0 f   item_row.obj
 0001:00080ef0       ?update_used_tables@Item_row@@UAEXXZ 00481ef0 f   item_row.obj
 0001:00080f70       ?check_cols@Item_row@@UAEHI@Z 00481f70 f   item_row.obj
 0001:00080fa0       ?print@Item_row@@UAEXPAVString@@@Z 00481fa0 f   item_row.obj
 0001:00081090       ?walk@Item_row@@UAEHP8Item@@AEHPAE@Z0@Z 00482090 f   item_row.obj
 0001:000810f0       ?transform@Item_row@@UAEPAVItem@@P82@AEPAV2@PAE@Z0@Z 004820f0 f   item_row.obj
 0001:000811b0       ?bring_value@Item_row@@UAEXXZ 004821b0 f   item_row.obj
 0001:000811f0       ??0Item_row@@QAE@AAV?$List@VItem@@@@@Z 004821f0 f   item_row.obj
 0001:00081280       ?type@Item_row@@UBE?AW4Type@Item@@XZ 00482280 f i item_row.obj
 0001:00081290       ?is_null@Item_row@@UAEHXZ  00482290 f i item_row.obj
 0001:000812a0       ?used_tables@Item_row@@UBE_KXZ 004822a0 f i item_row.obj
 0001:000812b0       ?const_item@Item_row@@UBEHXZ 004822b0 f i item_row.obj
 0001:000812c0       ?result_type@Item_row@@UBE?AW4Item_result@@XZ 004822c0 f i item_row.obj
 0001:000812d0       ?cols@Item_row@@UAEIXZ     004822d0 f i item_row.obj
 0001:000812e0       ?element_index@Item_row@@UAEPAVItem@@I@Z 004822e0 f i item_row.obj
 0001:000812f0       ?addr@Item_row@@UAEPAPAVItem@@I@Z 004822f0 f i item_row.obj
 0001:00081300       ?null_inside@Item_row@@UAEHXZ 00482300 f i item_row.obj
 0001:00081310       ?make_field@Item_row@@UAEXPAVSend_field@@@Z 00482310 f i item_row.obj
 0001:00081330       ?val_real@Item_row@@UAENXZ 00482330 f i item_row.obj
 0001:00081350       ?val_int@Item_row@@UAE_JXZ 00482350 f i item_row.obj
 0001:00081370       ?val_str@Item_row@@UAEPAVString@@PAV2@@Z 00482370 f i item_row.obj
 0001:00081390       ?val_decimal@Item_row@@UAEPAVmy_decimal@@PAV2@@Z 00482390 f i item_row.obj
 0001:000813b0       ??_GItem_row@@UAEPAXI@Z    004823b0 f i item_row.obj
 0001:000813b0       ??_EItem_row@@UAEPAXI@Z    004823b0 f i item_row.obj
 0001:000813d0       ??0String@@QAE@PBDPAUcharset_info_st@@@Z 004823d0 f i item_strfunc.obj
 0001:00081420       ?init@SQL_CRYPT@@QAEXXZ    00482420 f i item_strfunc.obj
 0001:00081460       ?sql_rnd_with_mutex@@YAKXZ 00482460 f i item_strfunc.obj
 0001:000814b0       ?hexchar_to_int@@YAHD@Z    004824b0 f i item_strfunc.obj
 0001:000814f0       ?check_well_formed_result@Item_str_func@@QAEPAVString@@PAV2@@Z 004824f0 f   item_strfunc.obj
 0001:000815f0       ?fix_fields@Item_str_func@@UAEHPAVTHD@@PAPAVItem@@@Z 004825f0 f   item_strfunc.obj
 0001:00081640       ?val_str@Item_func_md5@@UAEPAVString@@PAV2@@Z 00482640 f   item_strfunc.obj
 0001:000817b0       ?fix_length_and_dec@Item_func_md5@@UAEXXZ 004827b0 f   item_strfunc.obj
 0001:00081810       ?val_str@Item_func_sha@@UAEPAVString@@PAV2@@Z 00482810 f   item_strfunc.obj
 0001:000819c0       ?fix_length_and_dec@Item_func_sha@@UAEXXZ 004829c0 f   item_strfunc.obj
 0001:00081a20       ?fix_length_and_dec@Item_func_aes_encrypt@@UAEXXZ 00482a20 f   item_strfunc.obj
 0001:00081a40       ?fix_length_and_dec@Item_func_aes_decrypt@@UAEXXZ 00482a40 f   item_strfunc.obj
 0001:00081a60       ?val_str@Item_func_concat@@UAEPAVString@@PAV2@@Z 00482a60 f   item_strfunc.obj
 0001:00081d80       ?fix_length_and_dec@Item_func_concat@@UAEXXZ 00482d80 f   item_strfunc.obj
 0001:00081e60       ?val_str@Item_func_des_encrypt@@UAEPAVString@@PAV2@@Z 00482e60 f   item_strfunc.obj
 0001:000821e0       ?val_str@Item_func_des_decrypt@@UAEPAVString@@PAV2@@Z 004831e0 f   item_strfunc.obj
 0001:000824d0       ?fix_length_and_dec@Item_func_concat_ws@@UAEXXZ 004834d0 f   item_strfunc.obj
 0001:00082580       ?val_str@Item_func_reverse@@UAEPAVString@@PAV2@@Z 00483580 f   item_strfunc.obj
 0001:000826e0       ?fix_length_and_dec@Item_func_reverse@@UAEXXZ 004836e0 f   item_strfunc.obj
 0001:00082710       ?val_str@Item_func_replace@@UAEPAVString@@PAV2@@Z 00483710 f   item_strfunc.obj
 0001:00082ad0       ?fix_length_and_dec@Item_func_replace@@UAEXXZ 00483ad0 f   item_strfunc.obj
 0001:00082b90       ?val_str@Item_func_insert@@UAEPAVString@@PAV2@@Z 00483b90 f   item_strfunc.obj
 0001:00082e10       ?fix_length_and_dec@Item_func_insert@@UAEXXZ 00483e10 f   item_strfunc.obj
 0001:00082e90       ?val_str@Item_str_conv@@UAEPAVString@@PAV2@@Z 00483e90 f   item_strfunc.obj
 0001:00082f70       ?left_right_max_length@Item_str_func@@QAEXXZ 00483f70 f   item_strfunc.obj
 0001:00082fd0       ?fix_length_and_dec@Item_func_left@@UAEXXZ 00483fd0 f   item_strfunc.obj
 0001:00083050       ?fix_length_and_dec@Item_func_right@@UAEXXZ 00484050 f   item_strfunc.obj
 0001:000830d0       ?fix_length_and_dec@Item_func_substr@@UAEXXZ 004840d0 f   item_strfunc.obj
 0001:000831c0       ?fix_length_and_dec@Item_func_substr_index@@UAEXXZ 004841c0 f   item_strfunc.obj
 0001:00083200       ?fix_length_and_dec@Item_func_trim@@UAEXXZ 00484200 f   item_strfunc.obj
 0001:00083290       ?print@Item_func_trim@@UAEXPAVString@@@Z 00484290 f   item_strfunc.obj
 0001:000833c0       ?alloc@Item_func_password@@SAPADPAVTHD@@PBD@Z 004843c0 f   item_strfunc.obj
 0001:00083400       ?alloc@Item_func_old_password@@SAPADPAVTHD@@PBD@Z 00484400 f   item_strfunc.obj
 0001:00083440       ?val_str@Item_func_encrypt@@UAEPAVString@@PAV2@@Z 00484440 f   item_strfunc.obj
 0001:00083470       ?fix_length_and_dec@Item_func_encode@@UAEXXZ 00484470 f   item_strfunc.obj
 0001:000834b0       ?val_str@Item_func_encode@@UAEPAVString@@PAV2@@Z 004844b0 f   item_strfunc.obj
 0001:00083560       ?print@Item_func_encode@@UAEXPAVString@@@Z 00484560 f   item_strfunc.obj
 0001:000836c0       ?val_str@Item_func_decode@@UAEPAVString@@PAV2@@Z 004846c0 f   item_strfunc.obj
 0001:00083760       ?val_str@Item_func_database@@UAEPAVString@@PAV2@@Z 00484760 f   item_strfunc.obj
 0001:000837c0       ?init@Item_func_user@@IAEHPBD0@Z 004847c0 f   item_strfunc.obj
 0001:00083880       ?fix_fields@Item_func_user@@UAEHPAVTHD@@PAPAVItem@@@Z 00484880 f   item_strfunc.obj
 0001:00083900       ?fix_fields@Item_func_current_user@@UAEHPAVTHD@@PAPAVItem@@@Z 00484900 f   item_strfunc.obj
 0001:00083980       ?fix_length_and_dec@Item_func_soundex@@UAEXXZ 00484980 f   item_strfunc.obj
 0001:00083a50       ?val_str@Item_func_soundex@@UAEPAVString@@PAV2@@Z 00484a50 f   item_strfunc.obj
 0001:00083d70       ?val_str@Item_func_format@@UAEPAVString@@PAV2@@Z 00484d70 f   item_strfunc.obj
 0001:00083ff0       ?fix_length_and_dec@Item_func_elt@@UAEXXZ 00484ff0 f   item_strfunc.obj
 0001:00084080       ?val_real@Item_func_elt@@UAENXZ 00485080 f   item_strfunc.obj
 0001:000840d0       ?val_int@Item_func_elt@@UAE_JXZ 004850d0 f   item_strfunc.obj
 0001:00084120       ?val_str@Item_func_elt@@UAEPAVString@@PAV2@@Z 00485120 f   item_strfunc.obj
 0001:00084190       ?split_sum_func@Item_func_make_set@@UAEXPAVTHD@@PAPAVItem@@AAV?$List@VItem@@@@@Z 00485190 f   item_strfunc.obj
 0001:000841e0       ?fix_length_and_dec@Item_func_make_set@@UAEXXZ 004851e0 f   item_strfunc.obj
 0001:000842e0       ?update_used_tables@Item_func_make_set@@UAEXXZ 004852e0 f   item_strfunc.obj
 0001:00084340       ?val_str@Item_func_make_set@@UAEPAVString@@PAV2@@Z 00485340 f   item_strfunc.obj
 0001:00084520       ?transform@Item_func_make_set@@UAEPAVItem@@P82@AEPAV2@PAE@Z0@Z 00485520 f   item_strfunc.obj
 0001:000845c0       ?print@Item_func_make_set@@UAEXPAVString@@@Z 004855c0 f   item_strfunc.obj
 0001:00084680       ?val_str@Item_func_char@@UAEPAVString@@PAV2@@Z 00485680 f   item_strfunc.obj
 0001:00084810       ?alloc_buffer@@YAPAVString@@PAV1@00K@Z 00485810 f i item_strfunc.obj
 0001:00084880       ?fix_length_and_dec@Item_func_repeat@@UAEXXZ 00485880 f   item_strfunc.obj
 0001:00084940       ?val_str@Item_func_repeat@@UAEPAVString@@PAV2@@Z 00485940 f   item_strfunc.obj
 0001:00084b30       ?fix_length_and_dec@Item_func_rpad@@UAEXXZ 00485b30 f   item_strfunc.obj
 0001:00084c10       ?val_str@Item_func_rpad@@UAEPAVString@@PAV2@@Z 00485c10 f   item_strfunc.obj
 0001:00084ef0       ?fix_length_and_dec@Item_func_lpad@@UAEXXZ 00485ef0 f   item_strfunc.obj
 0001:00084fd0       ?val_str@Item_func_lpad@@UAEPAVString@@PAV2@@Z 00485fd0 f   item_strfunc.obj
 0001:00085260       ?val_str@Item_func_conv@@UAEPAVString@@PAV2@@Z 00486260 f   item_strfunc.obj
 0001:00085430       ?val_str@Item_func_conv_charset@@UAEPAVString@@PAV2@@Z 00486430 f   item_strfunc.obj
 0001:000854d0       ?fix_length_and_dec@Item_func_conv_charset@@UAEXXZ 004864d0 f   item_strfunc.obj
 0001:00085520       ?print@Item_func_conv_charset@@UAEXPAVString@@@Z 00486520 f   item_strfunc.obj
 0001:000855c0       ?val_str@Item_func_set_collation@@UAEPAVString@@PAV2@@Z 004865c0 f   item_strfunc.obj
 0001:00085600       ?eq@Item_func_set_collation@@UBEHPBVItem@@H@Z 00486600 f   item_strfunc.obj
 0001:000856d0       ?print@Item_func_set_collation@@UAEXPAVString@@@Z 004866d0 f   item_strfunc.obj
 0001:00085790       ?val_str@Item_func_charset@@UAEPAVString@@PAV2@@Z 00486790 f   item_strfunc.obj
 0001:000857f0       ?val_str@Item_func_collation@@UAEPAVString@@PAV2@@Z 004867f0 f   item_strfunc.obj
 0001:00085850       ?val_str@Item_func_hex@@UAEPAVString@@PAV2@@Z 00486850 f   item_strfunc.obj
 0001:00085a60       ?val_str@Item_func_unhex@@UAEPAVString@@PAV2@@Z 00486a60 f   item_strfunc.obj
 0001:00085be0       ?print@Item_func_binary@@UAEXPAVString@@@Z 00486be0 f   item_strfunc.obj
 0001:00085c30       ?val_str@Item_load_file@@UAEPAVString@@PAV2@@Z 00486c30 f   item_strfunc.obj
 0001:00085e70       ?fix_length_and_dec@Item_func_export_set@@UAEXXZ 00486e70 f   item_strfunc.obj
 0001:00085ef0       ?val_str@Item_func_inet_ntoa@@UAEPAVString@@PAV2@@Z 00486ef0 f   item_strfunc.obj
 0001:00086040       ?val_str@Item_func_quote@@UAEPAVString@@PAV2@@Z 00487040 f   item_strfunc.obj
 0001:00086230       ?val_int@Item_func_uncompressed_length@@UAE_JXZ 00487230 f   item_strfunc.obj
 0001:00086280       ?val_int@Item_func_crc32@@UAE_JXZ 00487280 f   item_strfunc.obj
 0001:000862d0       ?val_str@Item_func_compress@@UAEPAVString@@PAV2@@Z 004872d0 f   item_strfunc.obj
 0001:00086430       ?val_str@Item_func_uncompress@@UAEPAVString@@PAV2@@Z 00487430 f   item_strfunc.obj
 0001:000866a0       ?val_str@Item_func_uuid@@UAEPAVString@@PAV2@@Z 004876a0 f   item_strfunc.obj
 0001:00086a60       ?set@String@@QAEXAAV1@KK@Z 00487a60 f i item_strfunc.obj
 0001:00086ae0       ?val_decimal@Item_str_func@@UAEPAVmy_decimal@@PAV2@@Z 00487ae0 f   item_strfunc.obj
 0001:00086bd0       ?val_real@Item_str_func@@UAENXZ 00487bd0 f   item_strfunc.obj
 0001:00086ca0       ?val_int@Item_str_func@@UAE_JXZ 00487ca0 f   item_strfunc.obj
 0001:00086d70       ?val_str@Item_func_aes_encrypt@@UAEPAVString@@PAV2@@Z 00487d70 f   item_strfunc.obj
 0001:00086ec0       ?val_str@Item_func_aes_decrypt@@UAEPAVString@@PAV2@@Z 00487ec0 f   item_strfunc.obj
 0001:00087000       ?val_str@Item_func_concat_ws@@UAEPAVString@@PAV2@@Z 00488000 f   item_strfunc.obj
 0001:00087470       ?val_str@Item_func_left@@UAEPAVString@@PAV2@@Z 00488470 f   item_strfunc.obj
 0001:00087550       ?val_str@Item_func_right@@UAEPAVString@@PAV2@@Z 00488550 f   item_strfunc.obj
 0001:00087640       ?val_str@Item_func_substr@@UAEPAVString@@PAV2@@Z 00488640 f   item_strfunc.obj
 0001:000878c0       ?val_str@Item_func_substr_index@@UAEPAVString@@PAV2@@Z 004888c0 f   item_strfunc.obj
 0001:00087c00       ?val_str@Item_func_ltrim@@UAEPAVString@@PAV2@@Z 00488c00 f   item_strfunc.obj
 0001:00087e10       ?val_str@Item_func_rtrim@@UAEPAVString@@PAV2@@Z 00488e10 f   item_strfunc.obj
 0001:00088110       ?val_str@Item_func_trim@@UAEPAVString@@PAV2@@Z 00489110 f   item_strfunc.obj
 0001:00088400       ?val_str@Item_func_password@@UAEPAVString@@PAV2@@Z 00489400 f   item_strfunc.obj
 0001:000884a0       ?val_str@Item_func_old_password@@UAEPAVString@@PAV2@@Z 004894a0 f   item_strfunc.obj
 0001:00088540       ?safe_charset_converter@Item_func_sysconst@@UAEPAVItem@@PAUcharset_info_st@@@Z 00489540 f   item_strfunc.obj
 0001:00088710       ??0Item_func_format@@QAE@PAVItem@@H@Z 00489710 f   item_strfunc.obj
 0001:000887b0       ?fix_length_and_dec@Item_func_format@@UAEXXZ 004897b0 f i item_strfunc.obj
 0001:00088820       ?func_name@Item_func_format@@UBEPBDXZ 00489820 f i item_strfunc.obj
 0001:00088830       ?print@Item_func_format@@UAEXPAVString@@@Z 00489830 f   item_strfunc.obj
 0001:00088970       ?fix_length_and_dec@Item_func_set_collation@@UAEXXZ 00489970 f   item_strfunc.obj
 0001:00088ad0       ?val_str@Item_func_export_set@@UAEPAVString@@PAV2@@Z 00489ad0 f   item_strfunc.obj
 0001:00088e10       ??_GItem_func_format@@UAEPAXI@Z 00489e10 f i item_strfunc.obj
 0001:00088e10       ??_EItem_func_format@@UAEPAXI@Z 00489e10 f i item_strfunc.obj
 0001:00088e40       ?get_cache@Item_in_optimizer@@QAEPAPAVItem_cache@@XZ 00489e40 f i item_subselect.obj
 0001:00088e50       ?top_level@Item_func_not_all@@QAEHXZ 00489e50 f i item_subselect.obj
 0001:00088e60       ?set_sum_test@Item_func_not_all@@QAEXPAVItem_sum_hybrid@@@Z 00489e60 f i item_subselect.obj
 0001:00088e70       ?set_sub_test@Item_func_not_all@@QAEXPAVItem_maxmin_subselect@@@Z 00489e70 f i item_subselect.obj
 0001:00088e80       ?reset@Item_subselect@@UAEXXZ 00489e80 f i item_subselect.obj
 0001:00088e90       ?assigned@Item_subselect@@QAEHXZ 00489e90 f i item_subselect.obj
 0001:00088ea0       ?assigned@Item_subselect@@QAEXH@Z 00489ea0 f i item_subselect.obj
 0001:00088eb0       ?get_used_tables_cache@Item_subselect@@QAE_KXZ 00489eb0 f i item_subselect.obj
 0001:00088ec0       ?get_const_item_cache@Item_subselect@@QAEHXZ 00489ec0 f i item_subselect.obj
 0001:00088ed0       ?get_cond_guard@Item_in_subselect@@QAEPAHH@Z 00489ed0 f i item_subselect.obj
 0001:00088ef0       ?reset@Item_in_subselect@@UAEXXZ 00489ef0 f i item_subselect.obj
 0001:00088f10       ??0subselect_engine@@QAE@PAVItem_subselect@@PAVselect_subselect@@@Z 00489f10 f i item_subselect.obj
 0001:00088f50       ??1subselect_engine@@UAE@XZ 00489f50 f i item_subselect.obj
 0001:00088f60       ?type@subselect_engine@@QAE?AW4Item_result@@XZ 00489f60 f i item_subselect.obj
 0001:00088f70       ?field_type@subselect_engine@@QAE?AW4enum_field_types@@XZ 00489f70 f i item_subselect.obj
 0001:00088f80       ?may_be_null@subselect_engine@@UAEHXZ 00489f80 f i item_subselect.obj
 0001:00088f90       ?is_executed@subselect_engine@@UBEHXZ 00489f90 f i item_subselect.obj
 0001:00088fa0       ??_Esubselect_engine@@UAEPAXI@Z 00489fa0 f i item_subselect.obj
 0001:00088fa0       ??_Gsubselect_engine@@UAEPAXI@Z 00489fa0 f i item_subselect.obj
 0001:00088fb0       ?next_select@st_select_lex@@QAEPAV1@XZ 00489fb0 f i item_subselect.obj
 0001:00088fc0       ??1select_result@@UAE@XZ   00489fc0 f i item_subselect.obj
 0001:00088fd0       ?prepare@select_result@@UAEHAAV?$List@VItem@@@@PAVst_select_lex_unit@@@Z 00489fd0 f i item_subselect.obj
 0001:00088fe0       ?prepare2@select_result@@UAEHXZ 00489fe0 f i item_subselect.obj
 0001:00088ff0       ?field_count@select_result@@UBEIAAV?$List@VItem@@@@@Z 00489ff0 f i item_subselect.obj
 0001:00089000       ?initialize_tables@select_result@@UAEHPAVJOIN@@@Z 0048a000 f i item_subselect.obj
 0001:00089010       ?abort@select_result@@UAEXXZ 0048a010 f i item_subselect.obj
 0001:00089020       ?set_thd@select_result@@QAEXPAVTHD@@@Z 0048a020 f i item_subselect.obj
 0001:00089030       ??_Gselect_result@@UAEPAXI@Z 0048a030 f i item_subselect.obj
 0001:00089030       ??_Eselect_result@@UAEPAXI@Z 0048a030 f i item_subselect.obj
 0001:00089040       ??1select_result_interceptor@@UAE@XZ 0048a040 f i item_subselect.obj
 0001:00089050       ??1select_subselect@@UAE@XZ 0048a050 f i item_subselect.obj
 0001:00089060       ??0select_max_min_finder_subselect@@QAE@PAVItem_subselect@@H@Z 0048a060 f i item_subselect.obj
 0001:00089090       ?field_count@select_result_interceptor@@UBEIAAV?$List@VItem@@@@@Z 0048a090 f i item_subselect.obj
 0001:000890a0       ?send_fields@select_result_interceptor@@UAEHAAV?$List@VItem@@@@I@Z 0048a0a0 f i item_subselect.obj
 0001:000890b0       ?send_eof@select_subselect@@UAEHXZ 0048a0b0 f i item_subselect.obj
 0001:000890c0       ??0select_exists_subselect@@QAE@PAVItem_subselect@@@Z 0048a0c0 f i item_subselect.obj
 0001:000890e0       ?init@JOIN@@QAEXPAVTHD@@AAV?$List@VItem@@@@_KPAVselect_result@@@Z 0048a0e0 f i item_subselect.obj
 0001:00089300       ??1?$List@VCached_item@@@@QAE@XZ 0048a300 f i item_subselect.obj
 0001:00089310       ?copy@store_key@@QAE?AW4store_key_result@1@XZ 0048a310 f i item_subselect.obj
 0001:00089360       ?get_select_lex@Item_subselect@@QAEPAVst_select_lex@@XZ 0048a360 f   item_subselect.obj
 0001:00089370       ?cleanup@Item_subselect@@UAEXXZ 0048a370 f   item_subselect.obj
 0001:000893d0       ?cleanup@Item_singlerow_subselect@@UAEXXZ 0048a3d0 f   item_subselect.obj
 0001:00089430       ?select_transformer@Item_subselect@@UAE?AW4trans_res@1@PAVJOIN@@@Z 0048a430 f   item_subselect.obj
 0001:00089440       ?exec@Item_subselect@@UAEHXZ 0048a440 f   item_subselect.obj
 0001:00089490       ?type@Item_subselect@@UBE?AW4Type@Item@@XZ 0048a490 f   item_subselect.obj
 0001:000894a0       ?fix_length_and_dec@Item_subselect@@UAEXXZ 0048a4a0 f   item_subselect.obj
 0001:000894b0       ?used_tables@Item_subselect@@UBE_KXZ 0048a4b0 f   item_subselect.obj
 0001:000894e0       ?const_item@Item_subselect@@UBEHXZ 0048a4e0 f   item_subselect.obj
 0001:000894f0       ?get_tmp_table_item@Item_subselect@@UAEPAVItem@@PAVTHD@@@Z 0048a4f0 f   item_subselect.obj
 0001:00089560       ?update_used_tables@Item_subselect@@UAEXXZ 0048a560 f   item_subselect.obj
 0001:000895a0       ?print@Item_subselect@@UAEXPAVString@@@Z 0048a5a0 f   item_subselect.obj
 0001:00089630       ?invalidate_and_restore_select_lex@Item_singlerow_subselect@@QAEPAVst_select_lex@@XZ 0048a630 f   item_subselect.obj
 0001:00089650       ?cleanup@Item_maxmin_subselect@@UAEXXZ 0048a650 f   item_subselect.obj
 0001:00089670       ?print@Item_maxmin_subselect@@UAEXPAVString@@@Z 0048a670 f   item_subselect.obj
 0001:000896b0       ?reset@Item_singlerow_subselect@@UAEXXZ 0048a6b0 f   item_subselect.obj
 0001:000896d0       ?store@Item_singlerow_subselect@@QAEXIPAVItem@@@Z 0048a6d0 f   item_subselect.obj
 0001:00089700       ?result_type@Item_singlerow_subselect@@UBE?AW4Item_result@@XZ 0048a700 f   item_subselect.obj
 0001:00089710       ?field_type@Item_singlerow_subselect@@UBE?AW4enum_field_types@@XZ 0048a710 f   item_subselect.obj
 0001:00089720       ?fix_length_and_dec@Item_singlerow_subselect@@UAEXXZ 0048a720 f   item_subselect.obj
 0001:000897c0       ?cols@Item_singlerow_subselect@@UAEIXZ 0048a7c0 f   item_subselect.obj
 0001:000897d0       ?check_cols@Item_singlerow_subselect@@UAEHI@Z 0048a7d0 f   item_subselect.obj
 0001:00089810       ?null_inside@Item_singlerow_subselect@@UAEHXZ 0048a810 f   item_subselect.obj
 0001:00089850       ?bring_value@Item_singlerow_subselect@@UAEXXZ 0048a850 f   item_subselect.obj
 0001:00089860       ?val_real@Item_singlerow_subselect@@UAENXZ 0048a860 f   item_subselect.obj
 0001:000898b0       ?val_int@Item_singlerow_subselect@@UAE_JXZ 0048a8b0 f   item_subselect.obj
 0001:00089900       ?val_str@Item_singlerow_subselect@@UAEPAVString@@PAV2@@Z 0048a900 f   item_subselect.obj
 0001:00089950       ?val_decimal@Item_singlerow_subselect@@UAEPAVmy_decimal@@PAV2@@Z 0048a950 f   item_subselect.obj
 0001:000899a0       ?val_bool@Item_singlerow_subselect@@UAEHXZ 0048a9a0 f   item_subselect.obj
 0001:000899f0       ?print@Item_exists_subselect@@UAEXPAVString@@@Z 0048a9f0 f   item_subselect.obj
 0001:00089a20       ?test_limit@Item_in_subselect@@QAEHPAVst_select_lex_unit@@@Z 0048aa20 f   item_subselect.obj
 0001:00089a80       ?val_real@Item_exists_subselect@@UAENXZ 0048aa80 f   item_subselect.obj
 0001:00089ac0       ?val_int@Item_exists_subselect@@UAE_JXZ 0048aac0 f   item_subselect.obj
 0001:00089b00       ?val_str@Item_exists_subselect@@UAEPAVString@@PAV2@@Z 0048ab00 f   item_subselect.obj
 0001:00089b50       ?val_decimal@Item_exists_subselect@@UAEPAVmy_decimal@@PAV2@@Z 0048ab50 f   item_subselect.obj
 0001:00089bb0       ?val_bool@Item_exists_subselect@@UAEHXZ 0048abb0 f   item_subselect.obj
 0001:00089bf0       ?val_real@Item_in_subselect@@UAENXZ 0048abf0 f   item_subselect.obj
 0001:00089c50       ?val_int@Item_in_subselect@@UAE_JXZ 0048ac50 f   item_subselect.obj
 0001:00089cb0       ?val_str@Item_in_subselect@@UAEPAVString@@PAV2@@Z 0048acb0 f   item_subselect.obj
 0001:00089d20       ?val_bool@Item_in_subselect@@UAEHXZ 0048ad20 f   item_subselect.obj
 0001:00089d80       ?val_decimal@Item_in_subselect@@UAEPAVmy_decimal@@PAV2@@Z 0048ad80 f   item_subselect.obj
 0001:00089e10       ?print@Item_in_subselect@@UAEXPAVString@@@Z 0048ae10 f   item_subselect.obj
 0001:00089e80       ?print@Item_allany_subselect@@UAEXPAVString@@@Z 0048ae80 f   item_subselect.obj
 0001:00089f60       ?set_thd@subselect_engine@@QAEXPAVTHD@@@Z 0048af60 f   item_subselect.obj
 0001:00089f80       ??0subselect_single_select_engine@@QAE@PAVst_select_lex@@PAVselect_subselect@@PAVItem_subselect@@@Z 0048af80 f   item_subselect.obj
 0001:00089ff0       ?is_executed@subselect_single_select_engine@@UBEHXZ 0048aff0 f i item_subselect.obj
 0001:0008a000       ?cleanup@subselect_single_select_engine@@UAEXXZ 0048b000 f   item_subselect.obj
 0001:0008a020       ?cleanup@subselect_union_engine@@UAEXXZ 0048b020 f   item_subselect.obj
 0001:0008a040       ?is_executed@subselect_union_engine@@UBEHXZ 0048b040 f   item_subselect.obj
 0001:0008a050       ?no_rows@subselect_union_engine@@UAEHXZ 0048b050 f   item_subselect.obj
 0001:0008a070       ?cleanup@subselect_uniquesubquery_engine@@UAEXXZ 0048b070 f   item_subselect.obj
 0001:0008a080       ??0subselect_union_engine@@QAE@PAVst_select_lex_unit@@PAVselect_subselect@@PAVItem_subselect@@@Z 0048b080 f   item_subselect.obj
 0001:0008a110       ?prepare@subselect_union_engine@@UAEHXZ 0048b110 f   item_subselect.obj
 0001:0008a130       ?prepare@subselect_uniquesubquery_engine@@UAEHXZ 0048b130 f   item_subselect.obj
 0001:0008a140       ?no_rows@subselect_single_select_engine@@UAEHXZ 0048b140 f   item_subselect.obj
 0001:0008a160       ?fix_length_and_dec@subselect_uniquesubquery_engine@@UAEXPAPAVItem_cache@@@Z 0048b160 f   item_subselect.obj
 0001:0008a170       ?exec@subselect_single_select_engine@@UAEHXZ 0048b170 f   item_subselect.obj
 0001:0008a520       ?exec@subselect_union_engine@@UAEHXZ 0048b520 f   item_subselect.obj
 0001:0008a550       ?scan_table@subselect_uniquesubquery_engine@@QAEHXZ 0048b550 f   item_subselect.obj
 0001:0008a650       ?copy_ref_key@subselect_uniquesubquery_engine@@QAEHXZ 0048b650 f   item_subselect.obj
 0001:0008a730       ?exec@subselect_uniquesubquery_engine@@UAEHXZ 0048b730 f   item_subselect.obj
 0001:0008a880       ??1subselect_uniquesubquery_engine@@UAE@XZ 0048b880 f   item_subselect.obj
 0001:0008a8c0       ?cols@subselect_uniquesubquery_engine@@UAEIXZ 0048b8c0 f i item_subselect.obj
 0001:0008a8d0       ?uncacheable@subselect_uniquesubquery_engine@@UAEEXZ 0048b8d0 f i item_subselect.obj
 0001:0008a8e0       ?upper_select_const_tables@subselect_uniquesubquery_engine@@UAE_KXZ 0048b8e0 f i item_subselect.obj
 0001:0008a8f0       ?no_rows@subselect_uniquesubquery_engine@@UAEHXZ 0048b8f0 f i item_subselect.obj
 0001:0008a900       ?exec@subselect_indexsubquery_engine@@UAEHXZ 0048b900 f   item_subselect.obj
 0001:0008ab20       ?cols@subselect_single_select_engine@@UAEIXZ 0048bb20 f   item_subselect.obj
 0001:0008ab40       ?cols@subselect_union_engine@@UAEIXZ 0048bb40 f   item_subselect.obj
 0001:0008ab50       ?uncacheable@subselect_single_select_engine@@UAEEXZ 0048bb50 f   item_subselect.obj
 0001:0008ab60       ?uncacheable@subselect_union_engine@@UAEEXZ 0048bb60 f   item_subselect.obj
 0001:0008ab70       ?exclude@subselect_single_select_engine@@UAEXXZ 0048bb70 f   item_subselect.obj
 0001:0008ab90       ?exclude@subselect_union_engine@@UAEXXZ 0048bb90 f   item_subselect.obj
 0001:0008aba0       ?exclude@subselect_uniquesubquery_engine@@UAEXXZ 0048bba0 f   item_subselect.obj
 0001:0008abb0       ?calc_const_tables@subselect_engine@@SA_KPAUTABLE_LIST@@@Z 0048bbb0 f   item_subselect.obj
 0001:0008ac00       ?upper_select_const_tables@subselect_single_select_engine@@UAE_KXZ 0048bc00 f   item_subselect.obj
 0001:0008ac20       ?upper_select_const_tables@subselect_union_engine@@UAE_KXZ 0048bc20 f   item_subselect.obj
 0001:0008ac40       ?print@subselect_single_select_engine@@UAEXPAVString@@@Z 0048bc40 f   item_subselect.obj
 0001:0008ac60       ?print@subselect_union_engine@@UAEXPAVString@@@Z 0048bc60 f   item_subselect.obj
 0001:0008ac70       ?print@subselect_uniquesubquery_engine@@UAEXPAVString@@@Z 0048bc70 f   item_subselect.obj
 0001:0008ad80       ?print@subselect_indexsubquery_engine@@UAEXPAVString@@@Z 0048bd80 f   item_subselect.obj
 0001:0008aed0       ?change_result@subselect_single_select_engine@@UAEHPAVItem_subselect@@PAVselect_subselect@@@Z 0048bed0 f   item_subselect.obj
 0001:0008af00       ?change_result@subselect_union_engine@@UAEHPAVItem_subselect@@PAVselect_subselect@@@Z 0048bf00 f   item_subselect.obj
 0001:0008af30       ?change_result@subselect_uniquesubquery_engine@@UAEHPAVItem_subselect@@PAVselect_subselect@@@Z 0048bf30 f   item_subselect.obj
 0001:0008af40       ?no_tables@subselect_single_select_engine@@UAEHXZ 0048bf40 f   item_subselect.obj
 0001:0008af60       ?may_be_null@subselect_single_select_engine@@UAEHXZ 0048bf60 f   item_subselect.obj
 0001:0008afa0       ?no_tables@subselect_union_engine@@UAEHXZ 0048bfa0 f   item_subselect.obj
 0001:0008afe0       ?no_tables@subselect_uniquesubquery_engine@@UAEHXZ 0048bfe0 f   item_subselect.obj
 0001:0008aff0       ?head@?$List@VItem@@@@QAEPAVItem@@XZ 0048bff0 f i item_subselect.obj
 0001:0008b000       ??0?$List@VCached_item@@@@QAE@XZ 0048c000 f i item_subselect.obj
 0001:0008b020       ??_9@$BOE@AE               0048c020 f i item_subselect.obj
 0001:0008b030       ??1Copy_field@@QAE@XZ      0048c030 f i item_subselect.obj
 0001:0008b070       ??0Item_ref_null_helper@@QAE@PAUName_resolution_context@@PAVItem_in_subselect@@PAPAVItem@@PBD3@Z 0048c070 f i item_subselect.obj
 0001:0008b0c0       ?used_tables@Item_ref_null_helper@@UBE_KXZ 0048c0c0 f i item_subselect.obj
 0001:0008b0f0       ??0Item_sum@@QAE@PAVItem@@@Z 0048c0f0 f i item_subselect.obj
 0001:0008b140       ?type@Item_sum@@UBE?AW4Type@Item@@XZ 0048c140 f i item_subselect.obj
 0001:0008b150       ?keep_field_type@Item_sum@@UBEHXZ 0048c150 f i item_subselect.obj
 0001:0008b160       ?fix_length_and_dec@Item_sum@@UAEXXZ 0048c160 f i item_subselect.obj
 0001:0008b170       ?result_item@Item_sum@@UAEPAVItem@@PAVField@@@Z 0048c170 f i item_subselect.obj
 0001:0008b1a0       ?used_tables@Item_sum@@UBE_KXZ 0048c1a0 f i item_subselect.obj
 0001:0008b1b0       ?cleanup@Item_sum@@UAEXXZ  0048c1b0 f i item_subselect.obj
 0001:0008b1d0       ?is_null@Item_sum@@UAEHXZ  0048c1d0 f i item_subselect.obj
 0001:0008b1e0       ?const_item@Item_sum@@UBEHXZ 0048c1e0 f i item_subselect.obj
 0001:0008b1f0       ?no_rows_in_result@Item_sum@@UAEXXZ 0048c1f0 f i item_subselect.obj
 0001:0008b200       ?setup@Item_sum@@UAEHPAVTHD@@@Z 0048c200 f i item_subselect.obj
 0001:0008b210       ?make_unique@Item_sum@@UAEXXZ 0048c210 f i item_subselect.obj
 0001:0008b220       ??1Item_sum@@UAE@XZ        0048c220 f i item_subselect.obj
 0001:0008b260       ??0Item_sum_hybrid@@QAE@PAVItem@@H@Z 0048c260 f i item_subselect.obj
 0001:0008b3a0       ?keep_field_type@Item_sum_hybrid@@UBEHXZ 0048c3a0 f i item_subselect.obj
 0001:0008b3b0       ?result_type@Item_sum_hybrid@@UBE?AW4Item_result@@XZ 0048c3b0 f i item_subselect.obj
 0001:0008b3c0       ?field_type@Item_sum_hybrid@@UBE?AW4enum_field_types@@XZ 0048c3c0 f i item_subselect.obj
 0001:0008b3d0       ??1Item_sum_hybrid@@UAE@XZ 0048c3d0 f i item_subselect.obj
 0001:0008b480       ??0Item_sum_min@@QAE@PAVItem@@@Z 0048c480 f i item_subselect.obj
 0001:0008b4b0       ?sum_func@Item_sum_min@@UBE?AW4Sumfunctype@Item_sum@@XZ 0048c4b0 f i item_subselect.obj
 0001:0008b4c0       ?func_name@Item_sum_min@@UBEPBDXZ 0048c4c0 f i item_subselect.obj
 0001:0008b4d0       ??0Item_sum_max@@QAE@PAVItem@@@Z 0048c4d0 f i item_subselect.obj
 0001:0008b500       ?sum_func@Item_sum_max@@UBE?AW4Sumfunctype@Item_sum@@XZ 0048c500 f i item_subselect.obj
 0001:0008b510       ?func_name@Item_sum_max@@UBEPBDXZ 0048c510 f i item_subselect.obj
 0001:0008b520       ??0Item_bool_func@@QAE@PAVItem@@0@Z 0048c520 f i item_subselect.obj
 0001:0008b550       ??0Item_in_optimizer@@QAE@PAVItem@@PAVItem_in_subselect@@@Z 0048c550 f i item_subselect.obj
 0001:0008b5a0       ?func_name@Item_in_optimizer@@UBEPBDXZ 0048c5a0 f i item_subselect.obj
 0001:0008b5b0       ??0Item_func_trig_cond@@QAE@PAVItem@@PAH@Z 0048c5b0 f i item_subselect.obj
 0001:0008b620       ?val_int@Item_func_trig_cond@@UAE_JXZ 0048c620 f i item_subselect.obj
 0001:0008b650       ?functype@Item_func_trig_cond@@UBE?AW4Functype@Item_func@@XZ 0048c650 f i item_subselect.obj
 0001:0008b660       ?func_name@Item_func_trig_cond@@UBEPBDXZ 0048c660 f i item_subselect.obj
 0001:0008b670       ?const_item@Item_func_trig_cond@@UBEHXZ 0048c670 f i item_subselect.obj
 0001:0008b680       ??1Item_func_isnull@@UAE@XZ 0048c680 f i item_subselect.obj
 0001:0008b6c0       ??0Item_is_not_null_test@@QAE@PAVItem_in_subselect@@PAVItem@@@Z 0048c6c0 f i item_subselect.obj
 0001:0008b730       ?functype@Item_is_not_null_test@@UBE?AW4Functype@Item_func@@XZ 0048c730 f i item_subselect.obj
 0001:0008b740       ?func_name@Item_is_not_null_test@@UBEPBDXZ 0048c740 f i item_subselect.obj
 0001:0008b750       ?used_tables@Item_is_not_null_test@@UBE_KXZ 0048c750 f i item_subselect.obj
 0001:0008b760       ??0Item_cond_or@@QAE@PAVItem@@0@Z 0048c760 f i item_subselect.obj
 0001:0008b790       ??_Gsubselect_uniquesubquery_engine@@UAEPAXI@Z 0048c790 f i item_subselect.obj
 0001:0008b790       ??_Esubselect_uniquesubquery_engine@@UAEPAXI@Z 0048c790 f i item_subselect.obj
 0001:0008b7d0       ??0TMP_TABLE_PARAM@@QAE@XZ 0048c7d0 f i item_subselect.obj
 0001:0008b820       ??_ECopy_field@@QAEPAXI@Z  0048c820 f i item_subselect.obj
 0001:0008b8c0       ??0select_singlerow_subselect@@QAE@PAVItem_subselect@@@Z 0048c8c0 f i item_subselect.obj
 0001:0008b8e0       ??_Gselect_singlerow_subselect@@UAEPAXI@Z 0048c8e0 f i item_subselect.obj
 0001:0008b8e0       ??_Eselect_singlerow_subselect@@UAEPAXI@Z 0048c8e0 f i item_subselect.obj
 0001:0008b8f0       ??_Eselect_max_min_finder_subselect@@UAEPAXI@Z 0048c8f0 f i item_subselect.obj
 0001:0008b8f0       ??_Gselect_max_min_finder_subselect@@UAEPAXI@Z 0048c8f0 f i item_subselect.obj
 0001:0008b900       ??_Eselect_exists_subselect@@UAEPAXI@Z 0048c900 f i item_subselect.obj
 0001:0008b900       ??_Gselect_exists_subselect@@UAEPAXI@Z 0048c900 f i item_subselect.obj
 0001:0008b910       ?and_items@@YAPAVItem@@PAV1@0@Z 0048c910 f i item_subselect.obj
 0001:0008b990       ??0Item_subselect@@QAE@XZ  0048c990 f   item_subselect.obj
 0001:0008ba00       ?substype@Item_subselect@@UAE?AW4subs_type@1@XZ 0048ca00 f i item_subselect.obj
 0001:0008ba10       ?is_null@Item_subselect@@UAEHXZ 0048ca10 f i item_subselect.obj
 0001:0008ba30       ?not_null_tables@Item_subselect@@UBE_KXZ 0048ca30 f i item_subselect.obj
 0001:0008ba40       ?have_guarded_conds@Item_subselect@@UAEHXZ 0048ca40 f i item_subselect.obj
 0001:0008ba50       ?reset_value_registration@Item_subselect@@UAEXXZ 0048ca50 f i item_subselect.obj
 0001:0008ba60       ?init@Item_subselect@@UAEXPAVst_select_lex@@PAVselect_subselect@@@Z 0048ca60 f   item_subselect.obj
 0001:0008bb80       ??1Item_subselect@@UAE@XZ  0048cb80 f   item_subselect.obj
 0001:0008bbd0       ?fix_fields@Item_subselect@@UAEHPAVTHD@@PAPAVItem@@@Z 0048cbd0 f   item_subselect.obj
 0001:0008bdb0       ??0Item_singlerow_subselect@@QAE@PAVst_select_lex@@@Z 0048cdb0 f   item_subselect.obj
 0001:0008be20       ?substype@Item_singlerow_subselect@@UAE?AW4subs_type@Item_subselect@@XZ 0048ce20 f i item_subselect.obj
 0001:0008be30       ?element_index@Item_singlerow_subselect@@UAEPAVItem@@I@Z 0048ce30 f i item_subselect.obj
 0001:0008be50       ?addr@Item_singlerow_subselect@@UAEPAPAVItem@@I@Z 0048ce50 f i item_subselect.obj
 0001:0008be70       ?select_transformer@Item_singlerow_subselect@@UAE?AW4trans_res@Item_subselect@@PAVJOIN@@@Z 0048ce70 f   item_subselect.obj
 0001:0008c040       ??0Item_exists_subselect@@QAE@PAVst_select_lex@@@Z 0048d040 f   item_subselect.obj
 0001:0008c0c0       ?substype@Item_exists_subselect@@UAE?AW4subs_type@Item_subselect@@XZ 0048d0c0 f i item_subselect.obj
 0001:0008c0d0       ?reset@Item_exists_subselect@@UAEXXZ 0048d0d0 f i item_subselect.obj
 0001:0008c0e0       ?result_type@Item_exists_subselect@@UBE?AW4Item_result@@XZ 0048d0e0 f i item_subselect.obj
 0001:0008c0f0       ?fix_length_and_dec@Item_exists_subselect@@UAEXXZ 0048d0f0 f   item_subselect.obj
 0001:0008c190       ?row_value_transformer@Item_in_subselect@@QAE?AW4trans_res@Item_subselect@@PAVJOIN@@@Z 0048d190 f   item_subselect.obj
 0001:0008ccc0       ?fix_fields@Item_in_subselect@@UAEHPAVTHD@@PAPAVItem@@@Z 0048dcc0 f   item_subselect.obj
 0001:0008cd30       ??_Gsubselect_single_select_engine@@UAEPAXI@Z 0048dd30 f i item_subselect.obj
 0001:0008cd30       ??_Esubselect_single_select_engine@@UAEPAXI@Z 0048dd30 f i item_subselect.obj
 0001:0008cd40       ??_Gsubselect_union_engine@@UAEPAXI@Z 0048dd40 f i item_subselect.obj
 0001:0008cd40       ??_Esubselect_union_engine@@UAEPAXI@Z 0048dd40 f i item_subselect.obj
 0001:0008cd50       ??_EItem_ref_null_helper@@UAEPAXI@Z 0048dd50 f i item_subselect.obj
 0001:0008cd50       ??_GItem_ref_null_helper@@UAEPAXI@Z 0048dd50 f i item_subselect.obj
 0001:0008cd70       ??_GItem_sum@@UAEPAXI@Z    0048dd70 f i item_subselect.obj
 0001:0008cd70       ??_EItem_sum@@UAEPAXI@Z    0048dd70 f i item_subselect.obj
 0001:0008cdb0       ??_GItem_sum_hybrid@@UAEPAXI@Z 0048ddb0 f i item_subselect.obj
 0001:0008cdb0       ??_EItem_sum_hybrid@@UAEPAXI@Z 0048ddb0 f i item_subselect.obj
 0001:0008cdd0       ??_EItem_sum_min@@UAEPAXI@Z 0048ddd0 f i item_subselect.obj
 0001:0008cdd0       ??_GItem_sum_min@@UAEPAXI@Z 0048ddd0 f i item_subselect.obj
 0001:0008cdf0       ??_GItem_sum_max@@UAEPAXI@Z 0048ddf0 f i item_subselect.obj
 0001:0008cdf0       ??_EItem_sum_max@@UAEPAXI@Z 0048ddf0 f i item_subselect.obj
 0001:0008ce10       ??_EItem_in_optimizer@@UAEPAXI@Z 0048de10 f i item_subselect.obj
 0001:0008ce10       ??_GItem_in_optimizer@@UAEPAXI@Z 0048de10 f i item_subselect.obj
 0001:0008ce30       ??_GItem_func_trig_cond@@UAEPAXI@Z 0048de30 f i item_subselect.obj
 0001:0008ce30       ??_EItem_func_trig_cond@@UAEPAXI@Z 0048de30 f i item_subselect.obj
 0001:0008ce50       ??_EItem_is_not_null_test@@UAEPAXI@Z 0048de50 f i item_subselect.obj
 0001:0008ce50       ??_GItem_is_not_null_test@@UAEPAXI@Z 0048de50 f i item_subselect.obj
 0001:0008ce70       ??0Item_singlerow_subselect@@QAE@XZ 0048de70 f i item_subselect.obj
 0001:0008cea0       ??1Item_singlerow_subselect@@UAE@XZ 0048dea0 f i item_subselect.obj
 0001:0008cef0       ??0Item_exists_subselect@@QAE@XZ 0048def0 f i item_subselect.obj
 0001:0008cf10       ??1Item_exists_subselect@@UAE@XZ 0048df10 f i item_subselect.obj
 0001:0008cf60       ??0Item_in_subselect@@QAE@XZ 0048df60 f i item_subselect.obj
 0001:0008cfa0       ?have_guarded_conds@Item_in_subselect@@UAEHXZ 0048dfa0 f i item_subselect.obj
 0001:0008cfc0       ?substype@Item_in_subselect@@UAE?AW4subs_type@Item_subselect@@XZ 0048dfc0 f i item_subselect.obj
 0001:0008cfd0       ?top_level_item@Item_in_subselect@@UAEXXZ 0048dfd0 f i item_subselect.obj
 0001:0008cfe0       ??1Item_in_subselect@@UAE@XZ 0048dfe0 f i item_subselect.obj
 0001:0008d030       ?cleanup@TMP_TABLE_PARAM@@QAEXXZ 0048e030 f i item_subselect.obj
 0001:0008d060       ??_GItem_subselect@@UAEPAXI@Z 0048e060 f i item_subselect.obj
 0001:0008d060       ??_EItem_subselect@@UAEPAXI@Z 0048e060 f i item_subselect.obj
 0001:0008d0c0       ??0Item_maxmin_subselect@@QAE@PAVTHD@@PAVItem_subselect@@PAVst_select_lex@@H@Z 0048e0c0 f   item_subselect.obj
 0001:0008d190       ?reset_value_registration@Item_maxmin_subselect@@UAEXXZ 0048e190 f i item_subselect.obj
 0001:0008d1a0       ??0Item_in_subselect@@QAE@PAVItem@@PAVst_select_lex@@@Z 0048e1a0 f   item_subselect.obj
 0001:0008d260       ??0Item_allany_subselect@@QAE@PAVItem@@P6APAVComp_creator@@H@ZPAVst_select_lex@@H@Z 0048e260 f   item_subselect.obj
 0001:0008d350       ?substype@Item_allany_subselect@@UAE?AW4subs_type@Item_subselect@@XZ 0048e350 f i item_subselect.obj
 0001:0008d370       ?single_value_transformer@Item_in_subselect@@QAE?AW4trans_res@Item_subselect@@PAVJOIN@@PAVComp_creator@@@Z 0048e370 f   item_subselect.obj
 0001:0008dde0       ?select_in_like_transformer@Item_in_subselect@@QAE?AW4trans_res@Item_subselect@@PAVJOIN@@PAVComp_creator@@@Z 0048ede0 f   item_subselect.obj
 0001:0008e070       ?select_transformer@Item_allany_subselect@@UAE?AW4trans_res@Item_subselect@@PAVJOIN@@@Z 0048f070 f   item_subselect.obj
 0001:0008e0b0       ?set_row@subselect_engine@@IAEXAAV?$List@VItem@@@@PAPAVItem_cache@@@Z 0048f0b0 f   item_subselect.obj
 0001:0008e180       ?fix_length_and_dec@subselect_single_select_engine@@UAEXPAPAVItem_cache@@@Z 0048f180 f   item_subselect.obj
 0001:0008e1e0       ?fix_length_and_dec@subselect_union_engine@@UAEXPAPAVItem_cache@@@Z 0048f1e0 f   item_subselect.obj
 0001:0008e260       ??_GItem_singlerow_subselect@@UAEPAXI@Z 0048f260 f i item_subselect.obj
 0001:0008e260       ??_EItem_singlerow_subselect@@UAEPAXI@Z 0048f260 f i item_subselect.obj
 0001:0008e2c0       ??_EItem_exists_subselect@@UAEPAXI@Z 0048f2c0 f i item_subselect.obj
 0001:0008e2c0       ??_GItem_exists_subselect@@UAEPAXI@Z 0048f2c0 f i item_subselect.obj
 0001:0008e320       ??_GItem_in_subselect@@UAEPAXI@Z 0048f320 f i item_subselect.obj
 0001:0008e320       ??_EItem_in_subselect@@UAEPAXI@Z 0048f320 f i item_subselect.obj
 0001:0008e380       ??1TMP_TABLE_PARAM@@QAE@XZ 0048f380 f i item_subselect.obj
 0001:0008e3b0       ??0JOIN@@QAE@PAVTHD@@AAV?$List@VItem@@@@_KPAVselect_result@@@Z 0048f3b0 f i item_subselect.obj
 0001:0008e570       ??_GItem_maxmin_subselect@@UAEPAXI@Z 0048f570 f i item_subselect.obj
 0001:0008e570       ??_EItem_maxmin_subselect@@UAEPAXI@Z 0048f570 f i item_subselect.obj
 0001:0008e590       ??_EItem_allany_subselect@@UAEPAXI@Z 0048f590 f i item_subselect.obj
 0001:0008e590       ??_GItem_allany_subselect@@UAEPAXI@Z 0048f590 f i item_subselect.obj
 0001:0008e5b0       ?select_transformer@Item_in_subselect@@UAE?AW4trans_res@Item_subselect@@PAVJOIN@@@Z 0048f5b0 f   item_subselect.obj
 0001:0008e5d0       ?prepare@subselect_single_select_engine@@UAEHXZ 0048f5d0 f   item_subselect.obj
 0001:0008e720       ??2String@@SAPAXIPAUst_mem_root@@@Z 0048f720 f i item_sum.obj
 0001:0008e740       ?is_null_in_record@Field@@QAEHPBE@Z 0048f740 f i item_sum.obj
 0001:0008e770       ?clear@udf_handler@@QAEXXZ 0048f770 f i item_sum.obj
 0001:0008e790       ?add@udf_handler@@QAEXPAD@Z 0048f790 f i item_sum.obj
 0001:0008e800       ??2Item@@SAPAXIPAUst_mem_root@@@Z 0048f800 f i item_sum.obj
 0001:0008e820       ?reset@Item_sum@@QAEHXZ    0048f820 f i item_sum.obj
 0001:0008e840       ?val_decimal@Item_variance_field@@UAEPAVmy_decimal@@PAV2@@Z 0048f840 f i item_sum.obj
 0001:0008e850       ?elements_in_tree@Unique@@QAEKXZ 0048f850 f i item_sum.obj
 0001:0008e860       ?unique_add@Unique@@QAEHPAX@Z 0048f860 f i item_sum.obj
 0001:0008e8c0       ?init_sum_func_check@Item_sum@@QAEHPAVTHD@@@Z 0048f8c0 f   item_sum.obj
 0001:0008e960       ?register_sum_func@Item_sum@@QAEHPAVTHD@@PAPAVItem@@@Z 0048f960 f   item_sum.obj
 0001:0008eaf0       ?mark_as_sum_func@Item_sum@@QAEXXZ 0048faf0 f   item_sum.obj
 0001:0008eb30       ?make_field@Item_sum@@UAEXPAVSend_field@@@Z 0048fb30 f   item_sum.obj
 0001:0008ebc0       ?print@Item_sum@@UAEXPAVString@@@Z 0048fbc0 f   item_sum.obj
 0001:0008ec90       ?fix_num_length_and_dec@Item_sum@@QAEXXZ 0048fc90 f   item_sum.obj
 0001:0008ecf0       ?get_tmp_table_item@Item_sum@@UAEPAVItem@@PAVTHD@@@Z 0048fcf0 f   item_sum.obj
 0001:0008edc0       ?walk@Item_sum@@UAEHP8Item@@AEHPAE@Z0@Z 0048fdc0 f   item_sum.obj
 0001:0008ee30       ?update_used_tables@Item_sum@@UAEXXZ 0048fe30 f   item_sum.obj
 0001:0008eee0       ?val_str@Item_sum_num@@UAEPAVString@@PAV2@@Z 0048fee0 f   item_sum.obj
 0001:0008eef0       ?val_decimal@Item_sum_num@@UAEPAVmy_decimal@@PAV2@@Z 0048fef0 f   item_sum.obj
 0001:0008ef00       ?val_str@Item_sum_int@@UAEPAVString@@PAV2@@Z 0048ff00 f   item_sum.obj
 0001:0008ef10       ?val_decimal@Item_sum_int@@UAEPAVmy_decimal@@PAV2@@Z 0048ff10 f   item_sum.obj
 0001:0008ef20       ?clear@Item_sum_sum@@UAEXXZ 0048ff20 f   item_sum.obj
 0001:0008ef80       ?fix_length_and_dec@Item_sum_sum@@MAEXXZ 0048ff80 f   item_sum.obj
 0001:0008f070       ?add@Item_sum_sum@@UAEHXZ  00490070 f   item_sum.obj
 0001:0008f150       ?val_int@Item_sum_sum@@UAE_JXZ 00490150 f   item_sum.obj
 0001:0008f1d0       ?val_real@Item_sum_sum@@UAENXZ 004901d0 f   item_sum.obj
 0001:0008f220       ?val_str@Item_sum_sum@@UAEPAVString@@PAV2@@Z 00490220 f   item_sum.obj
 0001:0008f240       ?val_decimal@Item_sum_sum@@UAEPAVmy_decimal@@PAV2@@Z 00490240 f   item_sum.obj
 0001:0008f2c0       ??0Hybrid_type_traits_fast_decimal@@QAE@XZ 004902c0 f i item_sum.obj
 0001:0008f2d0       ?type@Hybrid_type_traits_fast_decimal@@UBE?AW4Item_result@@XZ 004902d0 f i item_sum.obj
 0001:0008f2e0       ?fix_length_and_dec@Hybrid_type_traits_fast_decimal@@UBEXPAVItem@@0@Z 004902e0 f i item_sum.obj
 0001:0008f2f0       ?div@Hybrid_type_traits_fast_decimal@@UBEXPAUHybrid_type@@_K@Z 004902f0 f i item_sum.obj
 0001:0008f360       ??1Hybrid_type_traits_fast_decimal@@UAE@XZ 00490360 f i item_sum.obj
 0001:0008f370       ?instance@Hybrid_type_traits_fast_decimal@@SAPBU1@XZ 00490370 f   item_sum.obj
 0001:0008f380       ?fix_length_and_dec@Item_sum_distinct@@UAEXXZ 00490380 f   item_sum.obj
 0001:0008f4a0       ?add@Item_sum_distinct@@UAEHXZ 004904a0 f   item_sum.obj
 0001:0008f530       ?unique_walk_function@Item_sum_distinct@@UAEHPAX@Z 00490530 f   item_sum.obj
 0001:0008f5c0       ?clear@Item_sum_distinct@@UAEXXZ 004905c0 f   item_sum.obj
 0001:0008f5f0       ??_GUnique@@QAEPAXI@Z      004905f0 f i item_sum.obj
 0001:0008f610       ?calculate_val_and_count@Item_sum_distinct@@UAEXXZ 00490610 f   item_sum.obj
 0001:0008f6b0       ?val_real@Item_sum_distinct@@UAENXZ 004906b0 f   item_sum.obj
 0001:0008f6e0       ?val_decimal@Item_sum_distinct@@UAEPAVmy_decimal@@PAV2@@Z 004906e0 f   item_sum.obj
 0001:0008f720       ?val_int@Item_sum_distinct@@UAE_JXZ 00490720 f   item_sum.obj
 0001:0008f750       ?val_str@Item_sum_distinct@@UAEPAVString@@PAV2@@Z 00490750 f   item_sum.obj
 0001:0008f7a0       ?fix_length_and_dec@Item_sum_avg_distinct@@UAEXXZ 004907a0 f   item_sum.obj
 0001:0008f7f0       ?calculate_val_and_count@Item_sum_avg_distinct@@UAEXXZ 004907f0 f   item_sum.obj
 0001:0008f850       ?clear@Item_sum_count@@UAEXXZ 00490850 f   item_sum.obj
 0001:0008f870       ?add@Item_sum_count@@UAEHXZ 00490870 f   item_sum.obj
 0001:0008f8c0       ?val_int@Item_sum_count@@UAE_JXZ 004908c0 f   item_sum.obj
 0001:0008f8d0       ?cleanup@Item_sum_count@@UAEXXZ 004908d0 f   item_sum.obj
 0001:0008f910       ?fix_length_and_dec@Item_sum_avg@@UAEXXZ 00490910 f   item_sum.obj
 0001:0008fa40       ?clear@Item_sum_avg@@UAEXXZ 00490a40 f   item_sum.obj
 0001:0008fac0       ?add@Item_sum_avg@@UAEHXZ  00490ac0 f   item_sum.obj
 0001:0008fb20       ?val_real@Item_sum_avg@@UAENXZ 00490b20 f   item_sum.obj
 0001:0008fbd0       ?val_decimal@Item_sum_avg@@UAEPAVmy_decimal@@PAV2@@Z 00490bd0 f   item_sum.obj
 0001:0008fcc0       ?val_str@Item_sum_avg@@UAEPAVString@@PAV2@@Z 00490cc0 f   item_sum.obj
 0001:0008fe20       ?fix_length_and_dec@Item_sum_variance@@EAEXXZ 00490e20 f   item_sum.obj
 0001:0008ff30       ?clear@Item_sum_variance@@UAEXXZ 00490f30 f   item_sum.obj
 0001:0008ff50       ?add@Item_sum_variance@@UAEHXZ 00490f50 f   item_sum.obj
 0001:0008ffb0       ?val_real@Item_sum_variance@@UAENXZ 00490fb0 f   item_sum.obj
 0001:00090010       ?val_decimal@Item_sum_variance@@UAEPAVmy_decimal@@PAV2@@Z 00491010 f   item_sum.obj
 0001:00090020       ?reset_field@Item_sum_variance@@UAEXXZ 00491020 f   item_sum.obj
 0001:000900c0       ?update_field@Item_sum_variance@@UAEXXZ 004910c0 f   item_sum.obj
 0001:00090190       ?clear@Item_sum_hybrid@@UAEXXZ 00491190 f   item_sum.obj
 0001:00090220       ?val_real@Item_sum_hybrid@@UAENXZ 00491220 f   item_sum.obj
 0001:00090330       ?val_int@Item_sum_hybrid@@UAE_JXZ 00491330 f   item_sum.obj
 0001:000903c0       ?val_decimal@Item_sum_hybrid@@UAEPAVmy_decimal@@PAV2@@Z 004913c0 f   item_sum.obj
 0001:000904a0       ?val_str@Item_sum_hybrid@@UAEPAVString@@PAV2@@Z 004914a0 f   item_sum.obj
 0001:00090590       ?cleanup@Item_sum_hybrid@@UAEXXZ 00491590 f   item_sum.obj
 0001:000905c0       ?no_rows_in_result@Item_sum_hybrid@@UAEXXZ 004915c0 f   item_sum.obj
 0001:000905e0       ?add@Item_sum_min@@UAEHXZ  004915e0 f   item_sum.obj
 0001:00090810       ?add@Item_sum_max@@UAEHXZ  00491810 f   item_sum.obj
 0001:00090a40       ?val_int@Item_sum_bit@@UAE_JXZ 00491a40 f   item_sum.obj
 0001:00090a50       ?clear@Item_sum_bit@@UAEXXZ 00491a50 f   item_sum.obj
 0001:00090a70       ?add@Item_sum_or@@UAEHXZ   00491a70 f   item_sum.obj
 0001:00090ac0       ?add@Item_sum_xor@@UAEHXZ  00491ac0 f   item_sum.obj
 0001:00090b10       ?add@Item_sum_and@@UAEHXZ  00491b10 f   item_sum.obj
 0001:00090b60       ?reset_field@Item_sum_num@@UAEXXZ 00491b60 f   item_sum.obj
 0001:00090c00       ?reset_field@Item_sum_sum@@UAEXXZ 00491c00 f   item_sum.obj
 0001:00090cd0       ?reset_field@Item_sum_count@@UAEXXZ 00491cd0 f   item_sum.obj
 0001:00090d20       ?reset_field@Item_sum_avg@@UAEXXZ 00491d20 f   item_sum.obj
 0001:00090e30       ?reset_field@Item_sum_bit@@UAEXXZ 00491e30 f   item_sum.obj
 0001:00090e70       ?update_field@Item_sum_bit@@UAEXXZ 00491e70 f   item_sum.obj
 0001:00090ec0       ?update_field@Item_sum_sum@@UAEXXZ 00491ec0 f   item_sum.obj
 0001:00091050       ?update_field@Item_sum_count@@UAEXXZ 00492050 f   item_sum.obj
 0001:000910a0       ?update_field@Item_sum_avg@@UAEXXZ 004920a0 f   item_sum.obj
 0001:00091220       ?min_max_update_str_field@Item_sum_hybrid@@QAEXXZ 00492220 f   item_sum.obj
 0001:000912f0       ?min_max_update_real_field@Item_sum_hybrid@@QAEXXZ 004922f0 f   item_sum.obj
 0001:00091400       ?min_max_update_int_field@Item_sum_hybrid@@QAEXXZ 00492400 f   item_sum.obj
 0001:00091560       ?min_max_update_decimal_field@Item_sum_hybrid@@QAEXXZ 00492560 f   item_sum.obj
 0001:000916b0       ?val_real@Item_avg_field@@UAENXZ 004926b0 f   item_sum.obj
 0001:00091720       ?val_int@Item_avg_field@@UAE_JXZ 00492720 f   item_sum.obj
 0001:00091780       ?val_decimal@Item_avg_field@@UAEPAVmy_decimal@@PAV2@@Z 00492780 f   item_sum.obj
 0001:000918a0       ?val_str@Item_avg_field@@UAEPAVString@@PAV2@@Z 004928a0 f   item_sum.obj
 0001:000918c0       ?val_decimal@Item_std_field@@UAEPAVmy_decimal@@PAV2@@Z 004928c0 f   item_sum.obj
 0001:00091990       ?val_real@Item_variance_field@@UAENXZ 00492990 f   item_sum.obj
 0001:00091a20       ?simple_str_key_cmp@@YAHPAXPAE1@Z 00492a20 f   item_sum.obj
 0001:00091a40       ?composite_key_cmp@@YAHPAXPAE1@Z 00492a40 f   item_sum.obj
 0001:00091ae0       ?make_unique@Item_sum_count_distinct@@UAEXXZ 00492ae0 f   item_sum.obj
 0001:00091b20       ?clear@Item_sum_count_distinct@@UAEXXZ 00492b20 f   item_sum.obj
 0001:00091b90       ?add@Item_sum_count_distinct@@UAEHXZ 00492b90 f   item_sum.obj
 0001:00091cb0       ?val_int@Item_sum_count_distinct@@UAE_JXZ 00492cb0 f   item_sum.obj
 0001:00091d90       ?clear@Item_udf_sum@@UAEXXZ 00492d90 f   item_sum.obj
 0001:00091dc0       ?add@Item_udf_sum@@UAEHXZ  00492dc0 f   item_sum.obj
 0001:00091de0       ?cleanup@Item_udf_sum@@UAEXXZ 00492de0 f   item_sum.obj
 0001:00091e10       ?print@Item_udf_sum@@UAEXPAVString@@@Z 00492e10 f   item_sum.obj
 0001:00091f20       ?val_real@Item_sum_udf_float@@UAENXZ 00492f20 f   item_sum.obj
 0001:00091f40       ?val_str@Item_sum_udf_float@@UAEPAVString@@PAV2@@Z 00492f40 f   item_sum.obj
 0001:00091f50       ?val_decimal@Item_sum_udf_float@@UAEPAVmy_decimal@@PAV2@@Z 00492f50 f   item_sum.obj
 0001:00091f60       ?val_str@Item_sum_udf_decimal@@UAEPAVString@@PAV2@@Z 00492f60 f   item_sum.obj
 0001:00091f70       ?val_real@Item_sum_udf_decimal@@UAENXZ 00492f70 f   item_sum.obj
 0001:00091f80       ?val_int@Item_sum_udf_decimal@@UAE_JXZ 00492f80 f   item_sum.obj
 0001:00091f90       ?val_decimal@Item_sum_udf_decimal@@UAEPAVmy_decimal@@PAV2@@Z 00492f90 f   item_sum.obj
 0001:00091fb0       ?val_int@Item_sum_udf_int@@UAE_JXZ 00492fb0 f   item_sum.obj
 0001:00091fd0       ?val_str@Item_sum_udf_int@@UAEPAVString@@PAV2@@Z 00492fd0 f   item_sum.obj
 0001:00091fe0       ?val_decimal@Item_sum_udf_int@@UAEPAVmy_decimal@@PAV2@@Z 00492fe0 f   item_sum.obj
 0001:00091ff0       ?fix_length_and_dec@Item_sum_udf_str@@UAEXXZ 00492ff0 f   item_sum.obj
 0001:00092030       ?val_decimal@Item_sum_udf_str@@UAEPAVmy_decimal@@PAV2@@Z 00493030 f   item_sum.obj
 0001:00092040       ?val_str@Item_sum_udf_str@@UAEPAVString@@PAV2@@Z 00493040 f   item_sum.obj
 0001:00092070       ?group_concat_key_cmp_with_distinct@@YAHPAXPAE1@Z 00493070 f   item_sum.obj
 0001:00092110       ?group_concat_key_cmp_with_order@@YAHPAXPAE1@Z 00493110 f   item_sum.obj
 0001:000921d0       ?group_concat_key_cmp_with_distinct_and_order@@YAHPAXPAE1@Z 004931d0 f   item_sum.obj
 0001:00092210       ?clear@Item_func_group_concat@@UAEXXZ 00493210 f   item_sum.obj
 0001:00092270       ?make_unique@Item_func_group_concat@@UAEXXZ 00493270 f   item_sum.obj
 0001:000922a0       ?print@Item_func_group_concat@@UAEXPAVString@@@Z 004932a0 f   item_sum.obj
 0001:00092450       ??0?$List@Vcreate_field@@@@QAE@XZ 00493450 f i item_sum.obj
 0001:00092470       ?push_back@?$List@Vcreate_field@@@@QAEHPAVcreate_field@@@Z 00493470 f i item_sum.obj
 0001:000924d0       ??0Field_double@@QAE@KHPBDPAUst_table@@ED@Z 004934d0 f i item_sum.obj
 0001:00092530       ??0Hybrid_type@@QAE@XZ     00493530 f i item_sum.obj
 0001:00092570       ??0Hybrid_type@@QAE@ABU0@@Z 00493570 f i item_sum.obj
 0001:000925c0       ??0Item_sum@@QAE@XZ        004935c0 f i item_sum.obj
 0001:00092630       ??0Item_sum_num@@QAE@PAVItem@@@Z 00493630 f i item_sum.obj
 0001:00092660       ?val_int@Item_sum_num@@UAE_JXZ 00493660 f i item_sum.obj
 0001:000926c0       ??1Item_sum_num@@UAE@XZ    004936c0 f i item_sum.obj
 0001:00092700       ??1Item_sum_int@@UAE@XZ    00493700 f i item_sum.obj
 0001:00092740       ??1Item_sum_sum@@UAE@XZ    00493740 f i item_sum.obj
 0001:00092780       ??1Item_sum_variance@@UAE@XZ 00493780 f i item_sum.obj
 0001:000927c0       ??1Item_sum_bit@@UAE@XZ    004937c0 f i item_sum.obj
 0001:00092800       ??1Item_udf_sum@@UAE@XZ    00493800 f i item_sum.obj
 0001:00092850       ?check_sum_func@Item_sum@@QAEHPAVTHD@@PAPAVItem@@@Z 00493850 f   item_sum.obj
 0001:000929c0       ??0Item_sum@@QAE@PAVTHD@@PAV0@@Z 004939c0 f   item_sum.obj
 0001:00092a90       ?create_tmp_field@Item_sum@@UAEPAVField@@HPAUst_table@@I@Z 00493a90 f   item_sum.obj
 0001:00092c20       ?fix_fields@Item_sum_num@@UAEHPAVTHD@@PAPAVItem@@@Z 00493c20 f   item_sum.obj
 0001:00092d30       ??0Item_sum_hybrid@@QAE@PAVTHD@@PAV0@@Z 00493d30 f   item_sum.obj
 0001:00092ea0       ?fix_fields@Item_sum_hybrid@@UAEHPAVTHD@@PAPAVItem@@@Z 00493ea0 f   item_sum.obj
 0001:00093060       ?create_tmp_field@Item_sum_hybrid@@UAEPAVField@@HPAUst_table@@I@Z 00494060 f   item_sum.obj
 0001:000931e0       ??0Item_sum_distinct@@QAE@PAVItem@@@Z 004941e0 f   item_sum.obj
 0001:00093250       ?sum_func@Item_sum_distinct@@UBE?AW4Sumfunctype@Item_sum@@XZ 00494250 f i item_sum.obj
 0001:00093260       ?reset_field@Item_sum_distinct@@UAEXXZ 00494260 f i item_sum.obj
 0001:00093270       ?update_field@Item_sum_distinct@@UAEXXZ 00494270 f i item_sum.obj
 0001:00093280       ?no_rows_in_result@Item_sum_distinct@@UAEXXZ 00494280 f i item_sum.obj
 0001:00093290       ?result_type@Item_sum_distinct@@UBE?AW4Item_result@@XZ 00494290 f i item_sum.obj
 0001:000932a0       ??_GHybrid_type_traits_fast_decimal@@UAEPAXI@Z 004942a0 f i item_sum.obj
 0001:000932a0       ??_EHybrid_type_traits_fast_decimal@@UAEPAXI@Z 004942a0 f i item_sum.obj
 0001:000932d0       ??1create_field@@QAE@XZ    004942d0 f i item_sum.obj
 0001:000932e0       ?cleanup@Item_sum_distinct@@UAEXXZ 004942e0 f   item_sum.obj
 0001:00093330       ??1Item_sum_distinct@@UAE@XZ 00494330 f   item_sum.obj
 0001:00093390       ?create_tmp_field@Item_sum_avg@@UAEPAVField@@HPAUst_table@@I@Z 00494390 f   item_sum.obj
 0001:000934b0       ?val_real@Item_sum_std@@UAENXZ 004944b0 f   item_sum.obj
 0001:00093520       ?create_tmp_field@Item_sum_variance@@UAEPAVField@@HPAUst_table@@I@Z 00494520 f   item_sum.obj
 0001:000935e0       ?reset_field@Item_sum_hybrid@@UAEXXZ 004945e0 f   item_sum.obj
 0001:00093920       ?update_field@Item_sum_hybrid@@UAEXXZ 00494920 f   item_sum.obj
 0001:00093960       ??0Item_avg_field@@QAE@W4Item_result@@PAVItem_sum_avg@@@Z 00494960 f   item_sum.obj
 0001:000939f0       ?type@Item_avg_field@@UBE?AW4Type@Item@@XZ 004949f0 f i item_sum.obj
 0001:00093a00       ?is_null@Item_avg_field@@UAEHXZ 00494a00 f i item_sum.obj
 0001:00093a20       ?field_type@Item_avg_field@@UBE?AW4enum_field_types@@XZ 00494a20 f i item_sum.obj
 0001:00093a40       ?fix_length_and_dec@Item_avg_field@@UAEXXZ 00494a40 f i item_sum.obj
 0001:00093a50       ?result_type@Item_avg_field@@UBE?AW4Item_result@@XZ 00494a50 f i item_sum.obj
 0001:00093a60       ??1Item_variance_field@@UAE@XZ 00494a60 f i item_sum.obj
 0001:00093aa0       ?val_real@Item_std_field@@UAENXZ 00494aa0 f   item_sum.obj
 0001:00093ab0       ??0Item_variance_field@@QAE@PAVItem_sum_variance@@@Z 00494ab0 f   item_sum.obj
 0001:00093b70       ?type@Item_variance_field@@UBE?AW4Type@Item@@XZ 00494b70 f i item_sum.obj
 0001:00093b80       ?val_int@Item_variance_field@@UAE_JXZ 00494b80 f i item_sum.obj
 0001:00093be0       ?val_str@Item_variance_field@@UAEPAVString@@PAV2@@Z 00494be0 f i item_sum.obj
 0001:00093bf0       ?is_null@Item_variance_field@@UAEHXZ 00494bf0 f i item_sum.obj
 0001:00093c10       ?field_type@Item_variance_field@@UBE?AW4enum_field_types@@XZ 00494c10 f i item_sum.obj
 0001:00093c30       ?fix_length_and_dec@Item_variance_field@@UAEXXZ 00494c30 f i item_sum.obj
 0001:00093c40       ?result_type@Item_variance_field@@UBE?AW4Item_result@@XZ 00494c40 f i item_sum.obj
 0001:00093c50       ??_EItem_variance_field@@UAEPAXI@Z 00494c50 f i item_sum.obj
 0001:00093c50       ??_GItem_variance_field@@UAEPAXI@Z 00494c50 f i item_sum.obj
 0001:00093c90       ?dump_leaf_key@@YAHPAEKPAVItem_func_group_concat@@@Z 00494c90 f   item_sum.obj
 0001:00093e90       ??0Item_func_group_concat@@QAE@PAVTHD@@PAV0@@Z 00494e90 f   item_sum.obj
 0001:00093fe0       ?sum_func@Item_func_group_concat@@UBE?AW4Sumfunctype@Item_sum@@XZ 00494fe0 f i item_sum.obj
 0001:00093ff0       ?func_name@Item_func_group_concat@@UBEPBDXZ 00494ff0 f i item_sum.obj
 0001:00094000       ?result_type@Item_func_group_concat@@UBE?AW4Item_result@@XZ 00495000 f i item_sum.obj
 0001:00094010       ?field_type@Item_func_group_concat@@UBE?AW4enum_field_types@@XZ 00495010 f i item_sum.obj
 0001:00094040       ?reset_field@Item_func_group_concat@@UAEXXZ 00495040 f i item_sum.obj
 0001:00094050       ?update_field@Item_func_group_concat@@UAEXXZ 00495050 f i item_sum.obj
 0001:00094060       ?val_real@Item_func_group_concat@@UAENXZ 00495060 f i item_sum.obj
 0001:000940b0       ?val_int@Item_func_group_concat@@UAE_JXZ 004950b0 f i item_sum.obj
 0001:00094100       ?val_decimal@Item_func_group_concat@@UAEPAVmy_decimal@@PAV2@@Z 00495100 f i item_sum.obj
 0001:00094110       ?no_rows_in_result@Item_func_group_concat@@UAEXXZ 00495110 f i item_sum.obj
 0001:00094120       ?change_context_processor@Item_func_group_concat@@UAEHPAE@Z 00495120 f i item_sum.obj
 0001:00094140       ??_GItem_func_group_concat@@UAEPAXI@Z 00495140 f i item_sum.obj
 0001:00094140       ??_EItem_func_group_concat@@UAEPAXI@Z 00495140 f i item_sum.obj
 0001:00094170       ?copy_or_same@Item_func_group_concat@@UAEPAVItem@@PAVTHD@@@Z 00495170 f   item_sum.obj
 0001:000941b0       ?add@Item_func_group_concat@@UAEHXZ 004951b0 f   item_sum.obj
 0001:00094320       ?fix_fields@Item_func_group_concat@@UAEHPAVTHD@@PAPAVItem@@@Z 00495320 f   item_sum.obj
 0001:00094560       ?setup@Item_func_group_concat@@UAEHPAVTHD@@@Z 00495560 f   item_sum.obj
 0001:00094910       ?val_str@Item_func_group_concat@@UAEPAVString@@PAV2@@Z 00495910 f   item_sum.obj
 0001:000949b0       ??0create_field@@QAE@XZ    004959b0 f i item_sum.obj
 0001:000949d0       ??0Item_sum_num@@QAE@PAVTHD@@PAV0@@Z 004959d0 f i item_sum.obj
 0001:00094a10       ??_EItem_sum_num@@UAEPAXI@Z 00495a10 f i item_sum.obj
 0001:00094a10       ??_GItem_sum_num@@UAEPAXI@Z 00495a10 f i item_sum.obj
 0001:00094a50       ??0Item_sum_int@@QAE@PAVTHD@@PAV0@@Z 00495a50 f i item_sum.obj
 0001:00094a90       ?val_real@Item_sum_int@@UAENXZ 00495a90 f i item_sum.obj
 0001:00094ab0       ?result_type@Item_sum_int@@UBE?AW4Item_result@@XZ 00495ab0 f i item_sum.obj
 0001:00094ac0       ?fix_length_and_dec@Item_sum_int@@UAEXXZ 00495ac0 f i item_sum.obj
 0001:00094ae0       ??_EItem_sum_int@@UAEPAXI@Z 00495ae0 f i item_sum.obj
 0001:00094ae0       ??_GItem_sum_int@@UAEPAXI@Z 00495ae0 f i item_sum.obj
 0001:00094b20       ??0Item_sum_count@@QAE@PAVTHD@@PAV0@@Z 00495b20 f i item_sum.obj
 0001:00094b80       ?sum_func@Item_sum_count@@UBE?AW4Sumfunctype@Item_sum@@XZ 00495b80 f i item_sum.obj
 0001:00094b90       ?no_rows_in_result@Item_sum_count@@UAEXXZ 00495b90 f i item_sum.obj
 0001:00094bb0       ?func_name@Item_sum_count@@UBEPBDXZ 00495bb0 f i item_sum.obj
 0001:00094bc0       ??_EItem_sum_count@@UAEPAXI@Z 00495bc0 f i item_sum.obj
 0001:00094bc0       ??_GItem_sum_count@@UAEPAXI@Z 00495bc0 f i item_sum.obj
 0001:00094be0       ??0Item_sum_count_distinct@@QAE@PAVTHD@@PAV0@@Z 00495be0 f i item_sum.obj
 0001:00094cb0       ?sum_func@Item_sum_count_distinct@@UBE?AW4Sumfunctype@Item_sum@@XZ 00495cb0 f i item_sum.obj
 0001:00094cc0       ?reset_field@Item_sum_count_distinct@@UAEXXZ 00495cc0 f i item_sum.obj
 0001:00094cd0       ?update_field@Item_sum_count_distinct@@UAEXXZ 00495cd0 f i item_sum.obj
 0001:00094ce0       ?func_name@Item_sum_count_distinct@@UBEPBDXZ 00495ce0 f i item_sum.obj
 0001:00094cf0       ?no_rows_in_result@Item_sum_count_distinct@@UAEXXZ 00495cf0 f i item_sum.obj
 0001:00094d00       ??0Item_sum_min@@QAE@PAVTHD@@PAV0@@Z 00495d00 f i item_sum.obj
 0001:00094d30       ??0Item_sum_max@@QAE@PAVTHD@@PAV0@@Z 00495d30 f i item_sum.obj
 0001:00094d60       ??0Item_sum_bit@@QAE@PAVTHD@@PAV0@@Z 00495d60 f i item_sum.obj
 0001:00094de0       ?sum_func@Item_sum_bit@@UBE?AW4Sumfunctype@Item_sum@@XZ 00495de0 f i item_sum.obj
 0001:00094df0       ?fix_length_and_dec@Item_sum_bit@@UAEXXZ 00495df0 f i item_sum.obj
 0001:00094e10       ?cleanup@Item_sum_bit@@UAEXXZ 00495e10 f i item_sum.obj
 0001:00094e50       ??_EItem_sum_bit@@UAEPAXI@Z 00495e50 f i item_sum.obj
 0001:00094e50       ??_GItem_sum_bit@@UAEPAXI@Z 00495e50 f i item_sum.obj
 0001:00094e90       ??0Item_sum_or@@QAE@PAVTHD@@PAV0@@Z 00495e90 f i item_sum.obj
 0001:00094ec0       ?func_name@Item_sum_or@@UBEPBDXZ 00495ec0 f i item_sum.obj
 0001:00094ed0       ??_EItem_sum_or@@UAEPAXI@Z 00495ed0 f i item_sum.obj
 0001:00094ed0       ??_GItem_sum_or@@UAEPAXI@Z 00495ed0 f i item_sum.obj
 0001:00094ef0       ??0Item_sum_and@@QAE@PAVTHD@@PAV0@@Z 00495ef0 f i item_sum.obj
 0001:00094f20       ?func_name@Item_sum_and@@UBEPBDXZ 00495f20 f i item_sum.obj
 0001:00094f30       ??_GItem_sum_and@@UAEPAXI@Z 00495f30 f i item_sum.obj
 0001:00094f30       ??_EItem_sum_and@@UAEPAXI@Z 00495f30 f i item_sum.obj
 0001:00094f50       ??0Item_sum_xor@@QAE@PAVTHD@@PAV0@@Z 00495f50 f i item_sum.obj
 0001:00094f80       ?func_name@Item_sum_xor@@UBEPBDXZ 00495f80 f i item_sum.obj
 0001:00094f90       ??_GItem_sum_xor@@UAEPAXI@Z 00495f90 f i item_sum.obj
 0001:00094f90       ??_EItem_sum_xor@@UAEPAXI@Z 00495f90 f i item_sum.obj
 0001:00094fb0       ??0Item_udf_sum@@QAE@PAVTHD@@PAV0@@Z 00495fb0 f i item_sum.obj
 0001:00095000       ?func_name@Item_udf_sum@@UBEPBDXZ 00496000 f i item_sum.obj
 0001:00095020       ?sum_func@Item_udf_sum@@UBE?AW4Sumfunctype@Item_sum@@XZ 00496020 f i item_sum.obj
 0001:00095030       ?have_field_update@Item_udf_sum@@UBEHXZ 00496030 f i item_sum.obj
 0001:00095040       ?reset_field@Item_udf_sum@@UAEXXZ 00496040 f i item_sum.obj
 0001:00095050       ?update_field@Item_udf_sum@@UAEXXZ 00496050 f i item_sum.obj
 0001:00095060       ?fix_fields@Item_udf_sum@@UAEHPAVTHD@@PAPAVItem@@@Z 00496060 f i item_sum.obj
 0001:000950c0       ??_GItem_udf_sum@@UAEPAXI@Z 004960c0 f i item_sum.obj
 0001:000950c0       ??_EItem_udf_sum@@UAEPAXI@Z 004960c0 f i item_sum.obj
 0001:00095110       ??0Item_sum_udf_float@@QAE@PAVTHD@@PAV0@@Z 00496110 f i item_sum.obj
 0001:00095170       ?val_int@Item_sum_udf_float@@UAE_JXZ 00496170 f i item_sum.obj
 0001:000951e0       ?fix_length_and_dec@Item_sum_udf_float@@UAEXXZ 004961e0 f i item_sum.obj
 0001:000951f0       ??_EItem_sum_udf_float@@UAEPAXI@Z 004961f0 f i item_sum.obj
 0001:000951f0       ??_GItem_sum_udf_float@@UAEPAXI@Z 004961f0 f i item_sum.obj
 0001:00095210       ??0Item_sum_udf_int@@QAE@PAVTHD@@PAV0@@Z 00496210 f i item_sum.obj
 0001:00095270       ?result_type@Item_sum_udf_int@@UBE?AW4Item_result@@XZ 00496270 f i item_sum.obj
 0001:00095280       ?fix_length_and_dec@Item_sum_udf_int@@UAEXXZ 00496280 f i item_sum.obj
 0001:00095290       ?val_real@Item_sum_udf_int@@UAENXZ 00496290 f i item_sum.obj
 0001:000952c0       ??_GItem_sum_udf_int@@UAEPAXI@Z 004962c0 f i item_sum.obj
 0001:000952c0       ??_EItem_sum_udf_int@@UAEPAXI@Z 004962c0 f i item_sum.obj
 0001:000952e0       ??0Item_sum_udf_str@@QAE@PAVTHD@@PAV0@@Z 004962e0 f i item_sum.obj
 0001:00095340       ?val_real@Item_sum_udf_str@@UAENXZ 00496340 f i item_sum.obj
 0001:00095390       ?val_int@Item_sum_udf_str@@UAE_JXZ 00496390 f i item_sum.obj
 0001:000953e0       ?result_type@Item_sum_udf_str@@UBE?AW4Item_result@@XZ 004963e0 f i item_sum.obj
 0001:000953f0       ??_GItem_sum_udf_str@@UAEPAXI@Z 004963f0 f i item_sum.obj
 0001:000953f0       ??_EItem_sum_udf_str@@UAEPAXI@Z 004963f0 f i item_sum.obj
 0001:00095410       ??0Item_sum_udf_decimal@@QAE@PAVTHD@@PAV0@@Z 00496410 f i item_sum.obj
 0001:00095470       ?result_type@Item_sum_udf_decimal@@UBE?AW4Item_result@@XZ 00496470 f i item_sum.obj
 0001:00095480       ?fix_length_and_dec@Item_sum_udf_decimal@@UAEXXZ 00496480 f i item_sum.obj
 0001:00095490       ??_EItem_sum_udf_decimal@@UAEPAXI@Z 00496490 f i item_sum.obj
 0001:00095490       ??_GItem_sum_udf_decimal@@UAEPAXI@Z 00496490 f i item_sum.obj
 0001:000954b0       ??0Item_sum@@QAE@AAV?$List@VItem@@@@@Z 004964b0 f   item_sum.obj
 0001:00095590       ??0Item_sum_sum@@QAE@PAVTHD@@PAV0@@Z 00496590 f   item_sum.obj
 0001:00095680       ?sum_func@Item_sum_sum@@UBE?AW4Sumfunctype@Item_sum@@XZ 00496680 f i item_sum.obj
 0001:00095690       ?result_type@Item_sum_sum@@UBE?AW4Item_result@@XZ 00496690 f i item_sum.obj
 0001:000956a0       ?no_rows_in_result@Item_sum_sum@@UAEXXZ 004966a0 f i item_sum.obj
 0001:000956b0       ?func_name@Item_sum_sum@@UBEPBDXZ 004966b0 f i item_sum.obj
 0001:000956c0       ??_GItem_sum_sum@@UAEPAXI@Z 004966c0 f i item_sum.obj
 0001:000956c0       ??_EItem_sum_sum@@UAEPAXI@Z 004966c0 f i item_sum.obj
 0001:00095700       ?copy_or_same@Item_sum_sum@@UAEPAVItem@@PAVTHD@@@Z 00496700 f   item_sum.obj
 0001:00095740       ??_GItem_sum_distinct@@UAEPAXI@Z 00496740 f i item_sum.obj
 0001:00095740       ??_EItem_sum_distinct@@UAEPAXI@Z 00496740 f i item_sum.obj
 0001:000957a0       ??0Item_sum_distinct@@IAE@PAVTHD@@PAV0@@Z 004967a0 f   item_sum.obj
 0001:00095850       ?setup@Item_sum_distinct@@UAEHPAVTHD@@@Z 00496850 f   item_sum.obj
 0001:000959f0       ?copy_or_same@Item_sum_count@@UAEPAVItem@@PAVTHD@@@Z 004969f0 f   item_sum.obj
 0001:00095a30       ??0Item_sum_variance@@QAE@PAVTHD@@PAV0@@Z 00496a30 f   item_sum.obj
 0001:00095ae0       ?sum_func@Item_sum_variance@@UBE?AW4Sumfunctype@Item_sum@@XZ 00496ae0 f i item_sum.obj
 0001:00095af0       ?no_rows_in_result@Item_sum_variance@@UAEXXZ 00496af0 f i item_sum.obj
 0001:00095b00       ?func_name@Item_sum_variance@@UBEPBDXZ 00496b00 f i item_sum.obj
 0001:00095b20       ?result_type@Item_sum_variance@@UBE?AW4Item_result@@XZ 00496b20 f i item_sum.obj
 0001:00095b30       ?cleanup@Item_sum_variance@@UAEXXZ 00496b30 f i item_sum.obj
 0001:00095b70       ?result_item@Item_sum_variance@@UAEPAVItem@@PAVField@@@Z 00496b70 f i item_sum.obj
 0001:00095ba0       ??_EItem_sum_variance@@UAEPAXI@Z 00496ba0 f i item_sum.obj
 0001:00095ba0       ??_GItem_sum_variance@@UAEPAXI@Z 00496ba0 f i item_sum.obj
 0001:00095be0       ?copy_or_same@Item_sum_variance@@UAEPAVItem@@PAVTHD@@@Z 00496be0 f   item_sum.obj
 0001:00095c20       ?copy_or_same@Item_sum_min@@UAEPAVItem@@PAVTHD@@@Z 00496c20 f   item_sum.obj
 0001:00095c70       ?copy_or_same@Item_sum_max@@UAEPAVItem@@PAVTHD@@@Z 00496c70 f   item_sum.obj
 0001:00095cc0       ?copy_or_same@Item_sum_or@@UAEPAVItem@@PAVTHD@@@Z 00496cc0 f   item_sum.obj
 0001:00095d10       ?copy_or_same@Item_sum_xor@@UAEPAVItem@@PAVTHD@@@Z 00496d10 f   item_sum.obj
 0001:00095d60       ?copy_or_same@Item_sum_and@@UAEPAVItem@@PAVTHD@@@Z 00496d60 f   item_sum.obj
 0001:00095db0       ??_GItem_avg_field@@UAEPAXI@Z 00496db0 f i item_sum.obj
 0001:00095db0       ??_EItem_avg_field@@UAEPAXI@Z 00496db0 f i item_sum.obj
 0001:00095dd0       ??0Item_std_field@@QAE@PAVItem_sum_std@@@Z 00496dd0 f   item_sum.obj
 0001:00095df0       ?type@Item_std_field@@UBE?AW4Type@Item@@XZ 00496df0 f i item_sum.obj
 0001:00095e00       ?result_type@Item_std_field@@UBE?AW4Item_result@@XZ 00496e00 f i item_sum.obj
 0001:00095e10       ?field_type@Item_std_field@@UBE?AW4enum_field_types@@XZ 00496e10 f i item_sum.obj
 0001:00095e20       ??_GItem_std_field@@UAEPAXI@Z 00496e20 f i item_sum.obj
 0001:00095e20       ??_EItem_std_field@@UAEPAXI@Z 00496e20 f i item_sum.obj
 0001:00095e40       ?setup@Item_sum_count_distinct@@UAEHPAVTHD@@@Z 00496e40 f   item_sum.obj
 0001:00096260       ?copy_or_same@Item_sum_count_distinct@@UAEPAVItem@@PAVTHD@@@Z 00497260 f   item_sum.obj
 0001:000962a0       ?copy_or_same@Item_sum_udf_float@@UAEPAVItem@@PAVTHD@@@Z 004972a0 f   item_sum.obj
 0001:00096320       ?copy_or_same@Item_sum_udf_decimal@@UAEPAVItem@@PAVTHD@@@Z 00497320 f   item_sum.obj
 0001:000963a0       ?copy_or_same@Item_sum_udf_int@@UAEPAVItem@@PAVTHD@@@Z 004973a0 f   item_sum.obj
 0001:00096420       ?copy_or_same@Item_sum_udf_str@@UAEPAVItem@@PAVTHD@@@Z 00497420 f   item_sum.obj
 0001:000964a0       ??0Item_func_group_concat@@QAE@PAUName_resolution_context@@HPAV?$List@VItem@@@@PAUst_sql_list@@PAVString@@@Z 004974a0 f   item_sum.obj
 0001:00096610       ??0Item_sum_avg@@QAE@PAVTHD@@PAV0@@Z 00497610 f i item_sum.obj
 0001:00096670       ?sum_func@Item_sum_avg@@UBE?AW4Sumfunctype@Item_sum@@XZ 00497670 f i item_sum.obj
 0001:00096680       ?val_int@Item_sum_avg@@UAE_JXZ 00497680 f i item_sum.obj
 0001:000966e0       ?no_rows_in_result@Item_sum_avg@@UAEXXZ 004976e0 f i item_sum.obj
 0001:000966f0       ?func_name@Item_sum_avg@@UBEPBDXZ 004976f0 f i item_sum.obj
 0001:00096700       ?cleanup@Item_sum_avg@@UAEXXZ 00497700 f i item_sum.obj
 0001:00096740       ?result_item@Item_sum_avg@@UAEPAVItem@@PAVField@@@Z 00497740 f i item_sum.obj
 0001:00096780       ??_GItem_sum_avg@@UAEPAXI@Z 00497780 f i item_sum.obj
 0001:00096780       ??_EItem_sum_avg@@UAEPAXI@Z 00497780 f i item_sum.obj
 0001:000967a0       ??0Item_sum_std@@QAE@PAVTHD@@PAV0@@Z 004977a0 f i item_sum.obj
 0001:000967d0       ?sum_func@Item_sum_std@@UBE?AW4Sumfunctype@Item_sum@@XZ 004977d0 f i item_sum.obj
 0001:000967e0       ?func_name@Item_sum_std@@UBEPBDXZ 004977e0 f i item_sum.obj
 0001:000967f0       ?result_type@Item_sum_std@@UBE?AW4Item_result@@XZ 004977f0 f i item_sum.obj
 0001:00096800       ?field_type@Item_sum_std@@UBE?AW4enum_field_types@@XZ 00497800 f i item_sum.obj
 0001:00096810       ??_GItem_sum_std@@UAEPAXI@Z 00497810 f i item_sum.obj
 0001:00096810       ??_EItem_sum_std@@UAEPAXI@Z 00497810 f i item_sum.obj
 0001:00096830       ?result_item@Item_sum_std@@UAEPAVItem@@PAVField@@@Z 00497830 f i item_sum.obj
 0001:00096870       ?copy_or_same@Item_sum_avg@@UAEPAVItem@@PAVTHD@@@Z 00497870 f   item_sum.obj
 0001:000968f0       ?copy_or_same@Item_sum_std@@UAEPAVItem@@PAVTHD@@@Z 004978f0 f   item_sum.obj
 0001:00096940       ??_GTMP_TABLE_PARAM@@QAEPAXI@Z 00497940 f i item_sum.obj
 0001:00096970       ?cleanup@Item_func_group_concat@@UAEXXZ 00497970 f   item_sum.obj
 0001:00096b00       ?cleanup@Item_sum_count_distinct@@UAEXXZ 00497b00 f   item_sum.obj
 0001:00096bb0       ??1Item_sum_count_distinct@@UAE@XZ 00497bb0 f   item_sum.obj
 0001:00096c00       ??_EItem_sum_count_distinct@@UAEPAXI@Z 00497c00 f i item_sum.obj
 0001:00096c00       ??_GItem_sum_count_distinct@@UAEPAXI@Z 00497c00 f i item_sum.obj
 0001:00096c50       ?get_timestamp@Field_timestamp@@QAEJPAD@Z 00497c50 f i item_timefunc.obj
 0001:00096ca0       ?get_arg0_date@Item_func@@QAEHPAUst_mysql_time@@I@Z 00497ca0 f i item_timefunc.obj
 0001:00096cd0       ?get_arg0_time@Item_func@@QAEHPAUst_mysql_time@@@Z 00497cd0 f i item_timefunc.obj
 0001:00097e70       ?make_date_time@@YAHPAUst_date_time_format@@PAUst_mysql_time@@W4enum_mysql_timestamp_type@@PAVString@@@Z 00498e70 f   item_timefunc.obj
 0001:00098970       ?calc_time_diff@@YAHPAUst_mysql_time@@0HPA_JPAJ@Z 00499970 f   item_timefunc.obj
 0001:00098b00       ?val_int@Item_func_period_add@@UAE_JXZ 00499b00 f   item_timefunc.obj
 0001:00098b80       ?val_int@Item_func_period_diff@@UAE_JXZ 00499b80 f   item_timefunc.obj
 0001:00098c00       ?val_int@Item_func_to_days@@UAE_JXZ 00499c00 f   item_timefunc.obj
 0001:00098c60       ?val_int@Item_func_dayofyear@@UAE_JXZ 00499c60 f   item_timefunc.obj
 0001:00098cf0       ?val_int@Item_func_dayofmonth@@UAE_JXZ 00499cf0 f   item_timefunc.obj
 0001:00098d30       ?val_int@Item_func_month@@UAE_JXZ 00499d30 f   item_timefunc.obj
 0001:00098d70       ?val_int@Item_func_quarter@@UAE_JXZ 00499d70 f   item_timefunc.obj
 0001:00098dd0       ?val_int@Item_func_hour@@UAE_JXZ 00499dd0 f   item_timefunc.obj
 0001:00098e00       ?val_int@Item_func_minute@@UAE_JXZ 00499e00 f   item_timefunc.obj
 0001:00098e30       ?val_int@Item_func_second@@UAE_JXZ 00499e30 f   item_timefunc.obj
 0001:00098e60       ?week_mode@@YAII@Z         00499e60 f   item_timefunc.obj
 0001:00098e80       ?val_int@Item_func_week@@UAE_JXZ 00499e80 f   item_timefunc.obj
 0001:00098f00       ?val_int@Item_func_yearweek@@UAE_JXZ 00499f00 f   item_timefunc.obj
 0001:00098f90       ?val_int@Item_func_weekday@@UAE_JXZ 00499f90 f   item_timefunc.obj
 0001:00099030       ?val_int@Item_func_year@@UAE_JXZ 0049a030 f   item_timefunc.obj
 0001:00099070       ?val_int@Item_func_unix_timestamp@@UAE_JXZ 0049a070 f   item_timefunc.obj
 0001:00099170       ?val_int@Item_func_time_to_sec@@UAE_JXZ 0049a170 f   item_timefunc.obj
 0001:00099750       ?val_str@Item_date@@UAEPAVString@@PAV2@@Z 0049a750 f   item_timefunc.obj
 0001:000997d0       ?val_int@Item_date@@UAE_JXZ 0049a7d0 f   item_timefunc.obj
 0001:00099820       ?get_date@Item_func_from_days@@UAEHPAUst_mysql_time@@I@Z 0049a820 f   item_timefunc.obj
 0001:000998b0       ?fix_length_and_dec@Item_func_curdate@@UAEXXZ 0049a8b0 f   item_timefunc.obj
 0001:00099940       ?val_str@Item_func_curdate@@UAEPAVString@@PAV2@@Z 0049a940 f   item_timefunc.obj
 0001:00099990       ?store_now_in_TIME@Item_func_curdate_local@@UAEXPAUst_mysql_time@@@Z 0049a990 f   item_timefunc.obj
 0001:000999f0       ?store_now_in_TIME@Item_func_curdate_utc@@UAEXPAUst_mysql_time@@@Z 0049a9f0 f   item_timefunc.obj
 0001:00099a40       ?get_date@Item_func_curdate@@UAEHPAUst_mysql_time@@I@Z 0049aa40 f   item_timefunc.obj
 0001:00099a60       ?fix_length_and_dec@Item_func_curtime@@UAEXXZ 0049aa60 f   item_timefunc.obj
 0001:00099af0       ?store_now_in_TIME@Item_func_curtime_local@@UAEXPAUst_mysql_time@@@Z 0049aaf0 f   item_timefunc.obj
 0001:00099b50       ?store_now_in_TIME@Item_func_curtime_utc@@UAEXPAUst_mysql_time@@@Z 0049ab50 f   item_timefunc.obj
 0001:00099ba0       ?fix_length_and_dec@Item_func_now@@UAEXXZ 0049aba0 f   item_timefunc.obj
 0001:00099c20       ?store_now_in_TIME@Item_func_now_local@@UAEXPAUst_mysql_time@@@Z 0049ac20 f   item_timefunc.obj
 0001:00099c80       ?store_now_in_TIME@Item_func_now_utc@@UAEXPAUst_mysql_time@@@Z 0049ac80 f   item_timefunc.obj
 0001:00099cd0       ?get_date@Item_func_now@@UAEHPAUst_mysql_time@@I@Z 0049acd0 f   item_timefunc.obj
 0001:00099cf0       ?save_in_field@Item_func_now@@UAEHPAVField@@H@Z 0049acf0 f   item_timefunc.obj
 0001:00099d30       ?store_now_in_TIME@Item_func_sysdate_local@@UAEXPAUst_mysql_time@@@Z 0049ad30 f   item_timefunc.obj
 0001:00099d90       ?val_int@Item_func_sysdate_local@@UAE_JXZ 0049ad90 f   item_timefunc.obj
 0001:00099dc0       ?val_real@Item_func_sysdate_local@@UAENXZ 0049adc0 f   item_timefunc.obj
 0001:00099e30       ?fix_length_and_dec@Item_func_sysdate_local@@UAEXXZ 0049ae30 f   item_timefunc.obj
 0001:00099e60       ?get_date@Item_func_sysdate_local@@UAEHPAUst_mysql_time@@I@Z 0049ae60 f   item_timefunc.obj
 0001:00099e90       ?save_in_field@Item_func_sysdate_local@@UAEHPAVField@@H@Z 0049ae90 f   item_timefunc.obj
 0001:00099ee0       ?val_str@Item_func_sec_to_time@@UAEPAVString@@PAV2@@Z 0049aee0 f   item_timefunc.obj
 0001:00099f80       ?val_int@Item_func_sec_to_time@@UAE_JXZ 0049af80 f   item_timefunc.obj
 0001:0009a010       ?eq@Item_func_date_format@@UBEHPBVItem@@H@Z 0049b010 f   item_timefunc.obj
 0001:0009a0b0       ?format_length@Item_func_date_format@@QAEIPBVString@@@Z 0049b0b0 f   item_timefunc.obj
 0001:0009a1c0       ?val_str@Item_func_date_format@@UAEPAVString@@PAV2@@Z 0049b1c0 f   item_timefunc.obj
 0001:0009a370       ?fix_length_and_dec@Item_func_from_unixtime@@UAEXXZ 0049b370 f   item_timefunc.obj
 0001:0009a3e0       ?val_str@Item_func_from_unixtime@@UAEPAVString@@PAV2@@Z 0049b3e0 f   item_timefunc.obj
 0001:0009a460       ?val_int@Item_func_from_unixtime@@UAE_JXZ 0049b460 f   item_timefunc.obj
 0001:0009a4a0       ?get_date@Item_func_from_unixtime@@UAEHPAUst_mysql_time@@I@Z 0049b4a0 f   item_timefunc.obj
 0001:0009a520       ?fix_length_and_dec@Item_func_convert_tz@@UAEXXZ 0049b520 f   item_timefunc.obj
 0001:0009a560       ?val_str@Item_func_convert_tz@@UAEPAVString@@PAV2@@Z 0049b560 f   item_timefunc.obj
 0001:0009a5e0       ?val_int@Item_func_convert_tz@@UAE_JXZ 0049b5e0 f   item_timefunc.obj
 0001:0009a620       ?cleanup@Item_func_convert_tz@@UAEXXZ 0049b620 f   item_timefunc.obj
 0001:0009a640       ?fix_length_and_dec@Item_date_add_interval@@UAEXXZ 0049b640 f   item_timefunc.obj
 0001:0009a6f0       ?get_date@Item_date_add_interval@@UAEHPAUst_mysql_time@@I@Z 0049b6f0 f   item_timefunc.obj
 0001:0009abb0       ?val_str@Item_date_add_interval@@UAEPAVString@@PAV2@@Z 0049bbb0 f   item_timefunc.obj
 0001:0009ac40       ?val_int@Item_date_add_interval@@UAE_JXZ 0049bc40 f   item_timefunc.obj
 0001:0009ace0       ?eq@Item_date_add_interval@@UBEHPBVItem@@H@Z 0049bce0 f   item_timefunc.obj
 0001:0009ad40       ?print@Item_date_add_interval@@UAEXPAVString@@@Z 0049bd40 f   item_timefunc.obj
 0001:0009ae60       ?print@Item_extract@@UAEXPAVString@@@Z 0049be60 f   item_timefunc.obj
 0001:0009af00       ?fix_length_and_dec@Item_extract@@UAEXXZ 0049bf00 f   item_timefunc.obj
 0001:0009b090       ?val_int@Item_extract@@UAE_JXZ 0049c090 f   item_timefunc.obj
 0001:0009b460       ?eq@Item_extract@@UBEHPBVItem@@H@Z 0049c460 f   item_timefunc.obj
 0001:0009b4f0       ?eq@Item_char_typecast@@UBEHPBVItem@@H@Z 0049c4f0 f   item_timefunc.obj
 0001:0009b5a0       ?print@Item_typecast@@UAEXPAVString@@@Z 0049c5a0 f   item_timefunc.obj
 0001:0009b640       ?val_str@Item_char_typecast@@UAEPAVString@@PAV2@@Z 0049c640 f   item_timefunc.obj
 0001:0009b870       ?fix_length_and_dec@Item_char_typecast@@UAEXXZ 0049c870 f   item_timefunc.obj
 0001:0009b990       ?val_str@Item_datetime_typecast@@UAEPAVString@@PAV2@@Z 0049c990 f   item_timefunc.obj
 0001:0009ba10       ?val_int@Item_datetime_typecast@@UAE_JXZ 0049ca10 f   item_timefunc.obj
 0001:0009ba60       ?get_time@Item_time_typecast@@UAEHPAUst_mysql_time@@@Z 0049ca60 f   item_timefunc.obj
 0001:0009bab0       ?val_int@Item_time_typecast@@UAE_JXZ 0049cab0 f   item_timefunc.obj
 0001:0009bb10       ?val_str@Item_time_typecast@@UAEPAVString@@PAV2@@Z 0049cb10 f   item_timefunc.obj
 0001:0009bb90       ?get_date@Item_date_typecast@@UAEHPAUst_mysql_time@@I@Z 0049cb90 f   item_timefunc.obj
 0001:0009bbe0       ?val_str@Item_date_typecast@@UAEPAVString@@PAV2@@Z 0049cbe0 f   item_timefunc.obj
 0001:0009bc60       ?val_int@Item_date_typecast@@UAE_JXZ 0049cc60 f   item_timefunc.obj
 0001:0009bcc0       ?val_str@Item_func_makedate@@UAEPAVString@@PAV2@@Z 0049ccc0 f   item_timefunc.obj
 0001:0009bdc0       ?val_int@Item_func_makedate@@UAE_JXZ 0049cdc0 f   item_timefunc.obj
 0001:0009bea0       ?fix_length_and_dec@Item_func_add_time@@UAEXXZ 0049cea0 f   item_timefunc.obj
 0001:0009bf10       ?val_str@Item_func_add_time@@UAEPAVString@@PAV2@@Z 0049cf10 f   item_timefunc.obj
 0001:0009c1e0       ?print@Item_func_add_time@@UAEXPAVString@@@Z 0049d1e0 f   item_timefunc.obj
 0001:0009c2d0       ?val_str@Item_func_timediff@@UAEPAVString@@PAV2@@Z 0049d2d0 f   item_timefunc.obj
 0001:0009c440       ?val_str@Item_func_maketime@@UAEPAVString@@PAV2@@Z 0049d440 f   item_timefunc.obj
 0001:0009c700       ?val_int@Item_func_microsecond@@UAE_JXZ 0049d700 f   item_timefunc.obj
 0001:0009c740       ?val_int@Item_func_timestamp_diff@@UAE_JXZ 0049d740 f   item_timefunc.obj
 0001:0009cad0       ?print@Item_func_timestamp_diff@@UAEXPAVString@@@Z 0049dad0 f   item_timefunc.obj
 0001:0009cc80       ?print@Item_func_get_format@@UAEXPAVString@@@Z 0049dc80 f   item_timefunc.obj
 0001:0009ce90       ?get_date@Item_func_last_day@@UAEHPAUst_mysql_time@@I@Z 0049de90 f   item_timefunc.obj
 0001:0009cf30       ?val_str@Item_func_monthname@@UAEPAVString@@PAV2@@Z 0049df30 f   item_timefunc.obj
 0001:0009cfc0       ?val_str@Item_func_dayname@@UAEPAVString@@PAV2@@Z 0049dfc0 f   item_timefunc.obj
 0001:0009d080       ?val_str@Item_func_curtime@@UAEPAVString@@PAV2@@Z 0049e080 f   item_timefunc.obj
 0001:0009d0f0       ?val_str@Item_func_now@@UAEPAVString@@PAV2@@Z 0049e0f0 f   item_timefunc.obj
 0001:0009d160       ?val_str@Item_func_sysdate_local@@UAEPAVString@@PAV2@@Z 0049e160 f   item_timefunc.obj
 0001:0009d1f0       ?fix_length_and_dec@Item_func_date_format@@UAEXXZ 0049e1f0 f   item_timefunc.obj
 0001:0009d2f0       ?fix_fields@Item_func_convert_tz@@UAEHPAVTHD@@PAPAVItem@@@Z 0049e2f0 f   item_timefunc.obj
 0001:0009d340       ?get_date@Item_func_convert_tz@@UAEHPAUst_mysql_time@@I@Z 0049e340 f   item_timefunc.obj
 0001:0009d4d0       ?print@Item_char_typecast@@UAEXPAVString@@@Z 0049e4d0 f   item_timefunc.obj
 0001:0009d6a0       ?val_str@Item_func_get_format@@UAEPAVString@@PAV2@@Z 0049e6a0 f   item_timefunc.obj
 0001:0009d7e0       ?tmp_table_field@Item_func_str_to_date@@UAEPAVField@@PAUst_table@@@Z 0049e7e0 f   item_timefunc.obj
 0001:0009d920       ?fix_length_and_dec@Item_func_str_to_date@@UAEXXZ 0049e920 f   item_timefunc.obj
 0001:0009da80       ?get_date@Item_func_str_to_date@@UAEHPAUst_mysql_time@@I@Z 0049ea80 f   item_timefunc.obj
 0001:0009dc90       ?val_str@Item_func_str_to_date@@UAEPAVString@@PAV2@@Z 0049ec90 f   item_timefunc.obj
 0001:0009dd10       ?create_tmp_field@Item_sum_unique_users@@UAEPAVField@@HPAUst_table@@I@Z 0049ed10 f   item_uniq.obj
 0001:0009dd80       ?find_ref_key@@YAHPAUst_table@@PAVField@@PAI@Z 0049ed80 f   key.obj
 0001:0009de50       ?key_copy@@YAXPAE0PAUst_key@@I@Z 0049ee50 f   key.obj
 0001:0009dfb0       ?key_restore@@YAXPAE0PAUst_key@@I@Z 0049efb0 f   key.obj
 0001:0009e1d0       ?key_cmp_if_same@@YAHPAUst_table@@PBEII@Z 0049f1d0 f   key.obj
 0001:0009e360       ?key_cmp@@YAHPAUst_key_part_info@@PBEI@Z 0049f360 f   key.obj
 0001:0009e410       ?rewind@?$List_iterator_fast@VItem@@@@QAEXXZ 0049f410 f i key.obj
 0001:0009e420       ?key_unpack@@YAXPAVString@@PAUst_table@@I@Z 0049f420 f   key.obj
 0001:0009e590       ?is_key_used@@YAHPAUst_table@@IAAV?$List@VItem@@@@@Z 0049f590 f   key.obj
 0001:0009e690       ??0TC_LOG@@QAE@XZ          0049f690 f i log.obj
 0001:0009e6a0       ??1TC_LOG@@UAE@XZ          0049f6a0 f i log.obj
 0001:0009e6b0       ??_ETC_LOG@@UAEPAXI@Z      0049f6b0 f i log.obj
 0001:0009e6b0       ??_GTC_LOG@@UAEPAXI@Z      0049f6b0 f i log.obj
 0001:0009e6e0       ??0TC_LOG_DUMMY@@QAE@XZ    0049f6e0 f i log.obj
 0001:0009e6f0       ?open@TC_LOG_DUMMY@@UAEHPBD@Z 0049f6f0 f i log.obj
 0001:0009e700       ?close@TC_LOG_DUMMY@@UAEXXZ 0049f700 f i log.obj
 0001:0009e710       ?log_xid@TC_LOG_DUMMY@@UAEHPAVTHD@@_K@Z 0049f710 f i log.obj
 0001:0009e720       ?unlog@TC_LOG_DUMMY@@UAEXK_K@Z 0049f720 f i log.obj
 0001:0009e730       ??1TC_LOG_DUMMY@@UAE@XZ    0049f730 f i log.obj
 0001:0009e740       ??0TC_LOG_MMAP@@QAE@XZ     0049f740 f i log.obj
 0001:0009e760       ??1TC_LOG_MMAP@@UAE@XZ     0049f760 f i log.obj
 0001:0009e770       ??0st_log_info@@QAE@XZ     0049f770 f i log.obj
 0001:0009e7a0       ??1st_log_info@@QAE@XZ     0049f7a0 f i log.obj
 0001:0009e7c0       ?is_open@MYSQL_LOG@@QAEHXZ 0049f7c0 f i log.obj
 0001:0009e7e0       ?enter_cond@THD@@QAEPBDPAUpthread_cond_t@@PAU_RTL_CRITICAL_SECTION@@PBD@Z 0049f7e0 f i log.obj
 0001:0009e820       ?exit_cond@THD@@QAEXPBD@Z  0049f820 f i log.obj
 0001:0009e890       ?write@Log_event@@UAEHPAUst_io_cache@@@Z 0049f890 f i log.obj
 0001:0009e8f0       ?get_cache_stmt@Log_event@@QAEHXZ 0049f8f0 f i log.obj
 0001:0009e900       ?free_temp_buf@Log_event@@QAEXXZ 0049f900 f i log.obj
 0001:0009e930       ?is_valid@Format_description_log_event@@UBEHXZ 0049f930 f i log.obj
 0001:0009e970       ?notify_group_relay_log_name_update@st_relay_log_info@@QAEXXZ 0049f970 f i log.obj
 0001:0009e990       ??1MYSQL_LOG@@UAE@XZ       0049f990 f i log.obj
 0001:0009eb00       ??0MYSQL_LOG@@QAE@XZ       0049fb00 f   log.obj
 0001:0009ebb0       ??_GMYSQL_LOG@@UAEPAXI@Z   0049fbb0 f i log.obj
 0001:0009ebb0       ??_EMYSQL_LOG@@UAEPAXI@Z   0049fbb0 f i log.obj
 0001:0009ebe0       ?init@MYSQL_LOG@@QAEXW4enum_log_type@@W4cache_type@@HK@Z 0049fbe0 f   log.obj
 0001:0009ec20       ?init_pthread_objects@MYSQL_LOG@@QAEXXZ 0049fc20 f   log.obj
 0001:0009ec60       ?generate_name@MYSQL_LOG@@QAEPBDPBD0HPAD@Z 0049fc60 f   log.obj
 0001:0009ed00       ?open_index_file@MYSQL_LOG@@QAEHPBD0@Z 0049fd00 f   log.obj
 0001:0009edd0       ?raw_get_current_log@MYSQL_LOG@@QAEHPAUst_log_info@@@Z 0049fdd0 f   log.obj
 0001:0009efd0       ?find_log_pos@MYSQL_LOG@@QAEHPAUst_log_info@@PBDH@Z 0049ffd0 f   log.obj
 0001:0009f190       ?find_next_log@MYSQL_LOG@@QAEHPAUst_log_info@@H@Z 004a0190 f   log.obj
 0001:0009f280       ?update_log_index@MYSQL_LOG@@QAEHPAUst_log_info@@H@Z 004a0280 f   log.obj
 0001:0009f2f0       ?purge_logs_before_date@MYSQL_LOG@@QAEHJ@Z 004a02f0 f   log.obj
 0001:0009f5b0       ?make_log_name@MYSQL_LOG@@QAEXPADPBD@Z 004a05b0 f   log.obj
 0001:0009f610       ?is_active@MYSQL_LOG@@QAEHPBD@Z 004a0610 f   log.obj
 0001:0009f680       ?flush_and_sync@MYSQL_LOG@@QAEHXZ 004a0680 f   log.obj
 0001:0009f6f0       ?start_union_events@MYSQL_LOG@@QAEXPAVTHD@@_K@Z 004a06f0 f   log.obj
 0001:0009f730       ?stop_union_events@MYSQL_LOG@@QAEXPAVTHD@@@Z 004a0730 f   log.obj
 0001:0009f750       ?is_query_in_union@MYSQL_LOG@@QAEHPAVTHD@@_K@Z 004a0750 f   log.obj
 0001:0009f7a0       ?next_file_id@MYSQL_LOG@@QAEIXZ 004a07a0 f   log.obj
 0001:0009f7e0       ?wait_for_update@MYSQL_LOG@@QAEXPAVTHD@@H@Z 004a07e0 f   log.obj
 0001:0009f850       ?set_max_size@MYSQL_LOG@@QAEXK@Z 004a0850 f   log.obj
 0001:0009f980       ?sql_perror@@YAXPBD@Z      004a0980 f   log.obj
 0001:0009f990       ?flush_error_log@@YAHXZ    004a0990 f   log.obj
 0001:0009fba0       ?signal_update@MYSQL_LOG@@QAEXXZ 004a0ba0 f   log.obj
 0001:0009fd70       ?vprint_msg_to_log@@YAXW4loglevel@@PBDPAD@Z 004a0d70 f   log.obj
 0001:0009fe00       ?sql_print_error@@YAXPBDZZ 004a0e00 f   log.obj
 0001:0009fe20       ?sql_print_warning@@YAXPBDZZ 004a0e20 f   log.obj
 0001:0009fe40       ?sql_print_information@@YAXPBDZZ 004a0e40 f   log.obj
 0001:0009fe60       ?overflow@TC_LOG_MMAP@@AAEHXZ 004a0e60 f   log.obj
 0001:0009fe90       ?sync@TC_LOG_MMAP@@AAEHXZ  004a0e90 f   log.obj
 0001:0009ff80       ?unlog@TC_LOG_MMAP@@UAEXK_K@Z 004a0f80 f   log.obj
 0001:000a0030       ?close@TC_LOG_MMAP@@UAEXXZ 004a1030 f   log.obj
 0001:000a0190       ?recover@TC_LOG_MMAP@@QAEHXZ 004a1190 f   log.obj
 0001:000a0310       ?using_heuristic_recover@TC_LOG@@QAEHXZ 004a1310 f   log.obj
 0001:000a0370       ?close@MYSQL_LOG@@UAEXXZ   004a1370 f   log.obj
 0001:000a03a0       ?recover@MYSQL_LOG@@QAEHPAUst_io_cache@@PAVFormat_description_log_event@@@Z 004a13a0 f   log.obj
 0001:000a0520       ??_GTC_LOG_DUMMY@@UAEPAXI@Z 004a1520 f i log.obj
 0001:000a0520       ??_ETC_LOG_DUMMY@@UAEPAXI@Z 004a1520 f i log.obj
 0001:000a0550       ??_ETC_LOG_MMAP@@UAEPAXI@Z 004a1550 f i log.obj
 0001:000a0550       ??_GTC_LOG_MMAP@@UAEPAXI@Z 004a1550 f i log.obj
 0001:000a0580       ??1Log_event@@UAE@XZ       004a1580 f i log.obj
 0001:000a05b0       ?get_db@Log_event@@UAEPBDXZ 004a15b0 f i log.obj
 0001:000a05d0       ?write_data_header@Log_event@@UAEHPAUst_io_cache@@@Z 004a15d0 f i log.obj
 0001:000a05e0       ?write_data_body@Log_event@@UAEHPAUst_io_cache@@@Z 004a15e0 f i log.obj
 0001:000a05f0       ?is_artificial_event@Log_event@@UAEHXZ 004a15f0 f i log.obj
 0001:000a0600       ?get_data_size@Log_event@@UAEHXZ 004a1600 f i log.obj
 0001:000a0610       ??_GLog_event@@UAEPAXI@Z   004a1610 f i log.obj
 0001:000a0610       ??_ELog_event@@UAEPAXI@Z   004a1610 f i log.obj
 0001:000a0660       ??1Query_log_event@@UAE@XZ 004a1660 f i log.obj
 0001:000a06b0       ?get_db@Query_log_event@@UAEPBDXZ 004a16b0 f i log.obj
 0001:000a06c0       ?get_type_code@Query_log_event@@UAE?AW4Log_event_type@@XZ 004a16c0 f i log.obj
 0001:000a06d0       ?write_post_header_for_derived@Query_log_event@@UAEHPAUst_io_cache@@@Z 004a16d0 f i log.obj
 0001:000a06e0       ?is_valid@Query_log_event@@UBEHXZ 004a16e0 f i log.obj
 0001:000a06f0       ?get_post_header_size_for_derived@Query_log_event@@UAEKXZ 004a16f0 f i log.obj
 0001:000a0700       ??_GQuery_log_event@@UAEPAXI@Z 004a1700 f i log.obj
 0001:000a0700       ??_EQuery_log_event@@UAEPAXI@Z 004a1700 f i log.obj
 0001:000a0760       ??1Start_log_event_v3@@UAE@XZ 004a1760 f i log.obj
 0001:000a0790       ??1Format_description_log_event@@UAE@XZ 004a1790 f i log.obj
 0001:000a07e0       ?is_artificial_event@Start_log_event_v3@@UAEHXZ 004a17e0 f i log.obj
 0001:000a07f0       ?get_type_code@Format_description_log_event@@UAE?AW4Log_event_type@@XZ 004a17f0 f i log.obj
 0001:000a0800       ?get_data_size@Format_description_log_event@@UAEHXZ 004a1800 f i log.obj
 0001:000a0810       ??_EFormat_description_log_event@@UAEPAXI@Z 004a1810 f i log.obj
 0001:000a0810       ??_GFormat_description_log_event@@UAEPAXI@Z 004a1810 f i log.obj
 0001:000a0870       ??0Intvar_log_event@@QAE@PAVTHD@@E_K@Z 004a1870 f i log.obj
 0001:000a08b0       ?get_type_code@Intvar_log_event@@UAE?AW4Log_event_type@@XZ 004a18b0 f i log.obj
 0001:000a08c0       ?get_data_size@Intvar_log_event@@UAEHXZ 004a18c0 f i log.obj
 0001:000a08d0       ?is_valid@Intvar_log_event@@UBEHXZ 004a18d0 f i log.obj
 0001:000a08e0       ??1Intvar_log_event@@UAE@XZ 004a18e0 f i log.obj
 0001:000a0910       ??_GIntvar_log_event@@UAEPAXI@Z 004a1910 f i log.obj
 0001:000a0910       ??_EIntvar_log_event@@UAEPAXI@Z 004a1910 f i log.obj
 0001:000a0960       ??0Rand_log_event@@QAE@PAVTHD@@_K1@Z 004a1960 f i log.obj
 0001:000a09b0       ?get_type_code@Rand_log_event@@UAE?AW4Log_event_type@@XZ 004a19b0 f i log.obj
 0001:000a09c0       ?get_data_size@Rand_log_event@@UAEHXZ 004a19c0 f i log.obj
 0001:000a09d0       ?is_valid@Rand_log_event@@UBEHXZ 004a19d0 f i log.obj
 0001:000a09e0       ??1Rand_log_event@@UAE@XZ  004a19e0 f i log.obj
 0001:000a0a10       ??_ERand_log_event@@UAEPAXI@Z 004a1a10 f i log.obj
 0001:000a0a10       ??_GRand_log_event@@UAEPAXI@Z 004a1a10 f i log.obj
 0001:000a0a60       ??0Xid_log_event@@QAE@PAVTHD@@_K@Z 004a1a60 f i log.obj
 0001:000a0aa0       ?get_type_code@Xid_log_event@@UAE?AW4Log_event_type@@XZ 004a1aa0 f i log.obj
 0001:000a0ab0       ?get_data_size@Xid_log_event@@UAEHXZ 004a1ab0 f i log.obj
 0001:000a0ac0       ?is_valid@Xid_log_event@@UBEHXZ 004a1ac0 f i log.obj
 0001:000a0ad0       ??1Xid_log_event@@UAE@XZ   004a1ad0 f i log.obj
 0001:000a0b00       ??_EXid_log_event@@UAEPAXI@Z 004a1b00 f i log.obj
 0001:000a0b00       ??_GXid_log_event@@UAEPAXI@Z 004a1b00 f i log.obj
 0001:000a0b50       ??0User_var_log_event@@QAE@PAVTHD@@PADI1KW4Item_result@@I@Z 004a1b50 f i log.obj
 0001:000a0bb0       ?get_type_code@User_var_log_event@@UAE?AW4Log_event_type@@XZ 004a1bb0 f i log.obj
 0001:000a0bc0       ?is_valid@User_var_log_event@@UBEHXZ 004a1bc0 f i log.obj
 0001:000a0bd0       ??1User_var_log_event@@UAE@XZ 004a1bd0 f i log.obj
 0001:000a0c00       ??_EUser_var_log_event@@UAEPAXI@Z 004a1c00 f i log.obj
 0001:000a0c00       ??_GUser_var_log_event@@UAEPAXI@Z 004a1c00 f i log.obj
 0001:000a0c50       ??0Stop_log_event@@QAE@XZ  004a1c50 f i log.obj
 0001:000a0c70       ?get_type_code@Stop_log_event@@UAE?AW4Log_event_type@@XZ 004a1c70 f i log.obj
 0001:000a0c80       ?is_valid@Stop_log_event@@UBEHXZ 004a1c80 f i log.obj
 0001:000a0c90       ??1Stop_log_event@@UAE@XZ  004a1c90 f i log.obj
 0001:000a0cc0       ??_EStop_log_event@@UAEPAXI@Z 004a1cc0 f i log.obj
 0001:000a0cc0       ??_GStop_log_event@@UAEPAXI@Z 004a1cc0 f i log.obj
 0001:000a0d10       ??1Rotate_log_event@@UAE@XZ 004a1d10 f i log.obj
 0001:000a0d60       ?get_type_code@Rotate_log_event@@UAE?AW4Log_event_type@@XZ 004a1d60 f i log.obj
 0001:000a0d70       ?get_data_size@Rotate_log_event@@UAEHXZ 004a1d70 f i log.obj
 0001:000a0d80       ?is_valid@Rotate_log_event@@UBEHXZ 004a1d80 f i log.obj
 0001:000a0d90       ??_ERotate_log_event@@UAEPAXI@Z 004a1d90 f i log.obj
 0001:000a0d90       ??_GRotate_log_event@@UAEPAXI@Z 004a1d90 f i log.obj
 0001:000a0e00       ??1Muted_query_log_event@@UAE@XZ 004a1e00 f i log.obj
 0001:000a0e50       ?check_binlog_magic@@YAHPAUst_io_cache@@PAPBD@Z 004a1e50 f   log.obj
 0001:000a0f00       ?open_binlog@@YAHPAUst_io_cache@@PBDPAPBD@Z 004a1f00 f   log.obj
 0001:000a1150       ?generate_new_name@MYSQL_LOG@@QAEHPADPBD@Z 004a2150 f   log.obj
 0001:000a11e0       ?open@MYSQL_LOG@@QAEHPBDW4enum_log_type@@0W4cache_type@@HKH@Z 004a21e0 f   log.obj
 0001:000a19c0       ?get_current_log@MYSQL_LOG@@QAEHPAUst_log_info@@@Z 004a29c0 f   log.obj
 0001:000a1a00       ?purge_logs@MYSQL_LOG@@QAEHPBDHHHPA_K@Z 004a2a00 f   log.obj
 0001:000a1cd0       ?write@MYSQL_LOG@@QAAHPAVTHD@@W4enum_server_command@@PBDZZ 004a2cd0 f   log.obj
 0001:000a2100       ?write@MYSQL_LOG@@QAEHPAVTHD@@PBDIJ@Z 004a3100 f   log.obj
 0001:000a27c0       ?close@MYSQL_LOG@@QAEXI@Z  004a37c0 f   log.obj
 0001:000a2a50       ?open@TC_LOG_MMAP@@UAEHPBD@Z 004a3a50 f   log.obj
 0001:000a2e90       ?get_active_from_pool@TC_LOG_MMAP@@AAEXXZ 004a3e90 f   log.obj
 0001:000a2fb0       ?log_xid@TC_LOG_MMAP@@UAEHPAVTHD@@_K@Z 004a3fb0 f   log.obj
 0001:000a31c0       ?cleanup@MYSQL_LOG@@QAEXXZ 004a41c0 f   log.obj
 0001:000a3240       ?reset_logs@MYSQL_LOG@@QAEHPAVTHD@@@Z 004a4240 f   log.obj
 0001:000a34b0       ?purge_first_log@MYSQL_LOG@@QAEHPAUst_relay_log_info@@H@Z 004a44b0 f   log.obj
 0001:000a36a0       ?new_file@MYSQL_LOG@@QAEXH@Z 004a46a0 f   log.obj
 0001:000a38e0       ?append@MYSQL_LOG@@QAEHPAVLog_event@@@Z 004a48e0 f   log.obj
 0001:000a39a0       ?appendv@MYSQL_LOG@@QAAHPBDIZZ 004a49a0 f   log.obj
 0001:000a3a70       ?rotate_and_purge@MYSQL_LOG@@QAEXI@Z 004a4a70 f   log.obj
 0001:000a3b40       ?write@MYSQL_LOG@@QAEHPAVTHD@@PAUst_io_cache@@PAVLog_event@@@Z 004a4b40 f   log.obj
 0001:000a3fb0       ?open@MYSQL_LOG@@UAEHPBD@Z 004a4fb0 f   log.obj
 0001:000a42b0       ?unlog@MYSQL_LOG@@UAEXK_K@Z 004a52b0 f   log.obj
 0001:000a4690       ?write@MYSQL_LOG@@QAEHPAVLog_event@@@Z 004a5690 f   log.obj
 0001:000a4b70       ?log_xid@MYSQL_LOG@@UAEHPAVTHD@@_K@Z 004a5b70 f   log.obj
 0001:000a4e00       ?ha_external_lock@handler@@QAEHPAVTHD@@H@Z 004a5e00 f i lock.obj
 0001:000a4e20       ?placeholder@TABLE_LIST@@QAEHXZ 004a5e20 f i lock.obj
 0001:000a4e70       ?safe_time@THD@@SAXPAJ@Z   004a5e70 f i lock.obj
 0001:000a4ec0       ?lock_time@THD@@QAEXXZ     004a5ec0 f i lock.obj
 0001:000a4ee0       ?mysql_lock_merge@@YAPAUst_mysql_lock@@PAU1@0@Z 004a5ee0 f   lock.obj
 0001:000a5050       ?mysql_lock_have_duplicate@@YAPAUTABLE_LIST@@PAVTHD@@PAU1@1@Z 004a6050 f   lock.obj
 0001:000a5190       ?lock_table_name@@YAHPAVTHD@@PAUTABLE_LIST@@@Z 004a6190 f   lock.obj
 0001:000a5320       ?wait_for_locked_table_names@@YAHPAVTHD@@PAUTABLE_LIST@@@Z 004a6320 f   lock.obj
 0001:000a5470       ?lock_global_read_lock@@YAHPAVTHD@@@Z 004a6470 f   lock.obj
 0001:000a5570       ?unlock_global_read_lock@@YAXPAVTHD@@@Z 004a6570 f   lock.obj
 0001:000a55f0       ?wait_if_global_read_lock@@YAHPAVTHD@@HH@Z 004a65f0 f   lock.obj
 0001:000a5780       ?start_waiting_global_read_lock@@YAXPAVTHD@@@Z 004a6780 f   lock.obj
 0001:000a5800       ?make_global_read_lock_block_commit@@YAHPAVTHD@@@Z 004a6800 f   lock.obj
 0001:000a5900       ?broadcast_refresh@@YAXXZ  004a6900 f   lock.obj
 0001:000a5d60       ?unlock_table_name@@YAXPAVTHD@@PAUTABLE_LIST@@@Z 004a6d60 f   lock.obj
 0001:000a5da0       ?unlock_table_names@@YAXPAVTHD@@PAUTABLE_LIST@@1@Z 004a6da0 f   lock.obj
 0001:000a5e10       ?mysql_unlock_tables@@YAXPAVTHD@@PAUst_mysql_lock@@@Z 004a6e10 f   lock.obj
 0001:000a5e60       ?mysql_unlock_some_tables@@YAXPAVTHD@@PAPAUst_table@@I@Z 004a6e60 f   lock.obj
 0001:000a5ee0       ?mysql_unlock_read_tables@@YAXPAVTHD@@PAUst_mysql_lock@@@Z 004a6ee0 f   lock.obj
 0001:000a5ff0       ?mysql_lock_remove@@YAXPAVTHD@@PAUst_mysql_lock@@PAUst_table@@H@Z 004a6ff0 f   lock.obj
 0001:000a6130       ?mysql_lock_abort@@YAXPAVTHD@@PAUst_table@@@Z 004a7130 f   lock.obj
 0001:000a62e0       ?mysql_lock_abort_for_thread@@YAHPAVTHD@@PAUst_table@@@Z 004a72e0 f   lock.obj
 0001:000a64d0       ?lock_and_wait_for_table_name@@YAHPAVTHD@@PAUTABLE_LIST@@@Z 004a74d0 f   lock.obj
 0001:000a6570       ?lock_table_names@@YAHPAVTHD@@PAUTABLE_LIST@@@Z 004a7570 f   lock.obj
 0001:000a65f0       ?mysql_lock_tables@@YAPAUst_mysql_lock@@PAVTHD@@PAPAUst_table@@IIPAH@Z 004a75f0 f   lock.obj
 0001:000a6a40       ?next_query_id@@YA_KXZ     004a7a40 f i log_event.obj
 0001:000a6a70       ?is_empty@base_ilist@@QAEHXZ 004a7a70 f i log_event.obj
 0001:000a6a90       ??0base_ilist_iterator@@QAE@AAVbase_ilist@@@Z 004a7a90 f i log_event.obj
 0001:000a6ab0       ?next@base_ilist_iterator@@QAEPAXXZ 004a7ab0 f i log_event.obj
 0001:000a6ae0       ??0TABLE_LIST@@QAE@XZ      004a7ae0 f i log_event.obj
 0001:000a6af0       ?store@Protocol@@QAEHK@Z   004a7af0 f i log_event.obj
 0001:000a6b10       ?resolve_in_table_list_only@Name_resolution_context@@QAEXPAUTABLE_LIST@@@Z 004a7b10 f i log_event.obj
 0001:000a6b30       ?set_time@THD@@QAEXJ@Z     004a7b30 f i log_event.obj
 0001:000a6b50       ?set_db@THD@@QAEHPBDI@Z    004a7b50 f i log_event.obj
 0001:000a6c10       ??0sql_ex_info@@QAE@XZ     004a7c10 f i log_event.obj
 0001:000a6c20       ?force_new_format@sql_ex_info@@QAEXXZ 004a7c20 f i log_event.obj
 0001:000a6c30       ?new_format@sql_ex_info@@QAEHXZ 004a7c30 f i log_event.obj
 0001:000a6c70       ??2Log_event@@SAPAXI@Z     004a7c70 f i log_event.obj
 0001:000a6c90       ?register_temp_buf@Log_event@@QAEXPAD@Z 004a7c90 f i log_event.obj
 0001:000a6ca0       ?check_fname_outside_temp_buf@Load_log_event@@QAEHXZ 004a7ca0 f i log_event.obj
 0001:000a6cb0       ?notify_group_master_log_name_update@st_relay_log_info@@QAEXXZ 004a7cb0 f i log_event.obj
 0001:000a6cd0       ?inc_event_relay_log_pos@st_relay_log_info@@QAEXXZ 004a7cd0 f i log_event.obj
 0001:000a6d20       ?ignored_error_code@@YAHH@Z 004a7d20 f i log_event.obj
 0001:000a70c0       ?str_to_hex@@YAPADPADPBDI@Z 004a80c0 f   log_event.obj
 0001:000a7110       ?append_query_string@@YAHPAUcharset_info_st@@PBVString@@PAV2@@Z 004a8110 f   log_event.obj
 0001:000a7230       ?get_type_str@Log_event@@QAEPBDXZ 004a8230 f   log_event.obj
 0001:000a7330       ??0Log_event@@QAE@PAVTHD@@GH@Z 004a8330 f   log_event.obj
 0001:000a7390       ??0Log_event@@QAE@XZ       004a8390 f   log_event.obj
 0001:000a73e0       ??0Log_event@@QAE@PBDPBVFormat_description_log_event@@@Z 004a83e0 f   log_event.obj
 0001:000a7480       ?exec_event@Log_event@@UAEHPAUst_relay_log_info@@@Z 004a8480 f   log_event.obj
 0001:000a7510       ?pack_info@Log_event@@UAEXPAVProtocol@@@Z 004a8510 f   log_event.obj
 0001:000a7530       ?net_send@Log_event@@QAEHPAVProtocol@@PBD_K@Z 004a8530 f   log_event.obj
 0001:000a7600       ?write_header@Log_event@@QAEHPAUst_io_cache@@K@Z 004a8600 f   log_event.obj
 0001:000a76d0       ?read_log_event@Log_event@@SAHPAUst_io_cache@@PAVString@@PAU_RTL_CRITICAL_SECTION@@@Z 004a86d0 f   log_event.obj
 0001:000a7870       ?pack_info@Query_log_event@@UAEXPAVProtocol@@@Z 004a8870 f   log_event.obj
 0001:000a7990       ?write@Query_log_event@@UAEHPAUst_io_cache@@@Z 004a8990 f   log_event.obj
 0001:000a7ce0       ?pack_info@Start_log_event_v3@@UAEXPAVProtocol@@@Z 004a8ce0 f   log_event.obj
 0001:000a7d70       ?write@Start_log_event_v3@@UAEHPAUst_io_cache@@@Z 004a8d70 f   log_event.obj
 0001:000a7e10       ?exec_event@Start_log_event_v3@@UAEHPAUst_relay_log_info@@@Z 004a8e10 f   log_event.obj
 0001:000a7ec0       ?write@Format_description_log_event@@UAEHPAUst_io_cache@@@Z 004a8ec0 f   log_event.obj
 0001:000a7fa0       ?exec_event@Format_description_log_event@@UAEHPAUst_relay_log_info@@@Z 004a8fa0 f   log_event.obj
 0001:000a8090       ?calc_server_version_split@Format_description_log_event@@QAEXXZ 004a9090 f   log_event.obj
 0001:000a80e0       ?get_query_buffer_length@Load_log_event@@AAEIXZ 004a90e0 f   log_event.obj
 0001:000a8130       ?print_query@Load_log_event@@AAEXHPADPAPAD11@Z 004a9130 f   log_event.obj
 0001:000a8440       ?pack_info@Load_log_event@@UAEXPAVProtocol@@@Z 004a9440 f   log_event.obj
 0001:000a84f0       ?write_data_header@Load_log_event@@UAEHPAUst_io_cache@@@Z 004a94f0 f   log_event.obj
 0001:000a8570       ??1sql_exchange@@QAE@XZ    004a9570 f i log_event.obj
 0001:000a8580       ?write@Rotate_log_event@@UAEHPAUst_io_cache@@@Z 004a9580 f   log_event.obj
 0001:000a8630       ?exec_event@Rotate_log_event@@UAEHPAUst_relay_log_info@@@Z 004a9630 f   log_event.obj
 0001:000a87b0       ?get_var_type_name@Intvar_log_event@@QAEPBDXZ 004a97b0 f   log_event.obj
 0001:000a87e0       ?write@Intvar_log_event@@UAEHPAUst_io_cache@@@Z 004a97e0 f   log_event.obj
 0001:000a8870       ?exec_event@Intvar_log_event@@UAEHPAUst_relay_log_info@@@Z 004a9870 f   log_event.obj
 0001:000a88e0       ?pack_info@Rand_log_event@@UAEXPAVProtocol@@@Z 004a98e0 f   log_event.obj
 0001:000a8980       ?write@Rand_log_event@@UAEHPAUst_io_cache@@@Z 004a9980 f   log_event.obj
 0001:000a8a10       ?exec_event@Rand_log_event@@UAEHPAUst_relay_log_info@@@Z 004a9a10 f   log_event.obj
 0001:000a8a60       ?pack_info@Xid_log_event@@UAEXPAVProtocol@@@Z 004a9a60 f   log_event.obj
 0001:000a8af0       ?write@Xid_log_event@@UAEHPAUst_io_cache@@@Z 004a9af0 f   log_event.obj
 0001:000a8b40       ?exec_event@Xid_log_event@@UAEHPAUst_relay_log_info@@@Z 004a9b40 f   log_event.obj
 0001:000a8ba0       ?write@User_var_log_event@@UAEHPAUst_io_cache@@@Z 004a9ba0 f   log_event.obj
 0001:000a8da0       ?pack_info@Slave_log_event@@UAEXPAVProtocol@@@Z 004a9da0 f   log_event.obj
 0001:000a8e80       ?get_data_size@Slave_log_event@@UAEHXZ 004a9e80 f   log_event.obj
 0001:000a8e90       ?write@Slave_log_event@@UAEHPAUst_io_cache@@@Z 004a9e90 f   log_event.obj
 0001:000a8f00       ?init_from_mem_pool@Slave_log_event@@IAEXH@Z 004a9f00 f   log_event.obj
 0001:000a8f80       ?exec_event@Slave_log_event@@UAEHPAUst_relay_log_info@@@Z 004a9f80 f   log_event.obj
 0001:000a8fb0       ?exec_event@Stop_log_event@@UAEHPAUst_relay_log_info@@@Z 004a9fb0 f   log_event.obj
 0001:000a9020       ?write_data_header@Create_file_log_event@@UAEHPAUst_io_cache@@@Z 004aa020 f   log_event.obj
 0001:000a9080       ?write_base@Create_file_log_event@@QAEHPAUst_io_cache@@@Z 004aa080 f   log_event.obj
 0001:000a90b0       ?pack_info@Create_file_log_event@@UAEXPAVProtocol@@@Z 004aa0b0 f   log_event.obj
 0001:000a91c0       ?exec_event@Create_file_log_event@@UAEHPAUst_relay_log_info@@@Z 004aa1c0 f   log_event.obj
 0001:000a94e0       ?write@Append_block_log_event@@UAEHPAUst_io_cache@@@Z 004aa4e0 f   log_event.obj
 0001:000a9560       ?pack_info@Append_block_log_event@@UAEXPAVProtocol@@@Z 004aa560 f   log_event.obj
 0001:000a95d0       ?get_create_or_append@Append_block_log_event@@UBEHXZ 004aa5d0 f   log_event.obj
 0001:000a95e0       ?exec_event@Append_block_log_event@@UAEHPAUst_relay_log_info@@@Z 004aa5e0 f   log_event.obj
 0001:000a9830       ?write@Delete_file_log_event@@UAEHPAUst_io_cache@@@Z 004aa830 f   log_event.obj
 0001:000a9880       ?pack_info@Delete_file_log_event@@UAEXPAVProtocol@@@Z 004aa880 f   log_event.obj
 0001:000a98e0       ?exec_event@Delete_file_log_event@@UAEHPAUst_relay_log_info@@@Z 004aa8e0 f   log_event.obj
 0001:000a9980       ?write@Execute_load_log_event@@UAEHPAUst_io_cache@@@Z 004aa980 f   log_event.obj
 0001:000a99d0       ?pack_info@Execute_load_log_event@@UAEXPAVProtocol@@@Z 004aa9d0 f   log_event.obj
 0001:000a9a30       ?get_create_or_append@Begin_load_query_log_event@@UBEHXZ 004aaa30 f   log_event.obj
 0001:000a9a40       ?get_post_header_size_for_derived@Execute_load_query_log_event@@UAEKXZ 004aaa40 f   log_event.obj
 0001:000a9a50       ?write_post_header_for_derived@Execute_load_query_log_event@@UAEHPAUst_io_cache@@@Z 004aaa50 f   log_event.obj
 0001:000a9ac0       ?pack_info@Execute_load_query_log_event@@UAEXPAVProtocol@@@Z 004aaac0 f   log_event.obj
 0001:000a9bc0       ?write_data@sql_ex_info@@QAEHPAUst_io_cache@@@Z 004aabc0 f   log_event.obj
 0001:000a9d90       ?init@sql_ex_info@@QAEPADPAD0H@Z 004aad90 f   log_event.obj
 0001:000a9f00       ?is_empty@?$I_List@Vi_string_pair@@@@QAEHXZ 004aaf00 f i log_event.obj
 0001:000a9f20       ??0?$I_List_iterator@Vi_string_pair@@@@QAE@AAV?$I_List@Vi_string_pair@@@@@Z 004aaf20 f i log_event.obj
 0001:000a9f40       ??E?$I_List_iterator@Vi_string_pair@@@@QAEPAVi_string_pair@@H@Z 004aaf40 f i log_event.obj
 0001:000a9f70       ??0Item_float@@QAE@N@Z     004aaf70 f i log_event.obj
 0001:000a9fa0       ??0Item_return_int@@QAE@PBDIW4enum_field_types@@@Z 004aafa0 f i log_event.obj
 0001:000a9ff0       ?field_type@Item_return_int@@UBE?AW4enum_field_types@@XZ 004aaff0 f i log_event.obj
 0001:000aa000       ??1Item_func_set_user_var@@UAE@XZ 004ab000 f i log_event.obj
 0001:000aa080       ?data_size@sql_ex_info@@QAEHXZ 004ab080 f i log_event.obj
 0001:000aa0f0       ??1Load_log_event@@UAE@XZ  004ab0f0 f i log_event.obj
 0001:000aa1a0       ?get_db@Load_log_event@@UAEPBDXZ 004ab1a0 f i log_event.obj
 0001:000aa1b0       ?get_type_code@Load_log_event@@UAE?AW4Log_event_type@@XZ 004ab1b0 f i log_event.obj
 0001:000aa200       ?is_valid@Load_log_event@@UBEHXZ 004ab200 f i log_event.obj
 0001:000aa210       ?get_data_size@Load_log_event@@UAEHXZ 004ab210 f i log_event.obj
 0001:000aa250       ??_ELoad_log_event@@UAEPAXI@Z 004ab250 f i log_event.obj
 0001:000aa250       ??_GLoad_log_event@@UAEPAXI@Z 004ab250 f i log_event.obj
 0001:000aa280       ??0Stop_log_event@@QAE@PBDPBVFormat_description_log_event@@@Z 004ab280 f i log_event.obj
 0001:000aa2b0       ??1Append_block_log_event@@UAE@XZ 004ab2b0 f i log_event.obj
 0001:000aa2e0       ?init_show_field_list@Log_event@@SAXPAV?$List@VItem@@@@@Z 004ab2e0 f   log_event.obj
 0001:000aa640       ??0Query_log_event@@QAE@XZ 004ab640 f   log_event.obj
 0001:000aa6a0       ??0Query_log_event@@QAE@PAVTHD@@PBDKHHW4killed_state@1@@Z 004ab6a0 f   log_event.obj
 0001:000aa930       ??0Query_log_event@@QAE@PBDIPBVFormat_description_log_event@@W4Log_event_type@@@Z 004ab930 f   log_event.obj
 0001:000aad30       ?exec_event@Query_log_event@@QAEHPAUst_relay_log_info@@PBDK@Z 004abd30 f   log_event.obj
 0001:000ab570       ??0Muted_query_log_event@@QAE@XZ 004ac570 f   log_event.obj
 0001:000ab5d0       ?write@Muted_query_log_event@@UAEHPAUst_io_cache@@@Z 004ac5d0 f i log_event.obj
 0001:000ab5e0       ?write_post_header_for_derived@Muted_query_log_event@@UAEHPAUst_io_cache@@@Z 004ac5e0 f i log_event.obj
 0001:000ab5f0       ??0Start_log_event_v3@@QAE@XZ 004ac5f0 f   log_event.obj
 0001:000ab670       ?get_type_code@Start_log_event_v3@@UAE?AW4Log_event_type@@XZ 004ac670 f i log_event.obj
 0001:000ab680       ?is_valid@Start_log_event_v3@@UBEHXZ 004ac680 f i log_event.obj
 0001:000ab690       ?get_data_size@Start_log_event_v3@@UAEHXZ 004ac690 f i log_event.obj
 0001:000ab6a0       ??_EStart_log_event_v3@@UAEPAXI@Z 004ac6a0 f i log_event.obj
 0001:000ab6a0       ??_GStart_log_event_v3@@UAEPAXI@Z 004ac6a0 f i log_event.obj
 0001:000ab6f0       ??0Start_log_event_v3@@QAE@PBDPBVFormat_description_log_event@@@Z 004ac6f0 f   log_event.obj
 0001:000ab770       ??0Format_description_log_event@@QAE@EPBD@Z 004ac770 f   log_event.obj
 0001:000ab990       ??0Format_description_log_event@@QAE@PBDIPBV0@@Z 004ac990 f   log_event.obj
 0001:000aba00       ?write_data_body@Load_log_event@@UAEHPAUst_io_cache@@@Z 004aca00 f   log_event.obj
 0001:000abad0       ?copy_log_event@Load_log_event@@IAEHPBDKHPBVFormat_description_log_event@@@Z 004acad0 f   log_event.obj
 0001:000abbe0       ?set_fields@Load_log_event@@QAEXPBDAAV?$List@VItem@@@@PAUName_resolution_context@@@Z 004acbe0 f   log_event.obj
 0001:000abca0       ?exec_event@Load_log_event@@QAEHPAUst_net@@PAUst_relay_log_info@@H@Z 004acca0 f   log_event.obj
 0001:000ac5a0       ?pack_info@Rotate_log_event@@UAEXPAVProtocol@@@Z 004ad5a0 f   log_event.obj
 0001:000ac6a0       ??0Rotate_log_event@@QAE@PAVTHD@@PBDI_KI@Z 004ad6a0 f   log_event.obj
 0001:000ac760       ??0Rotate_log_event@@QAE@PBDIPBVFormat_description_log_event@@@Z 004ad760 f   log_event.obj
 0001:000ac810       ?pack_info@Intvar_log_event@@UAEXPAVProtocol@@@Z 004ad810 f   log_event.obj
 0001:000ac8c0       ??0Intvar_log_event@@QAE@PBDPBVFormat_description_log_event@@@Z 004ad8c0 f   log_event.obj
 0001:000ac910       ??0Rand_log_event@@QAE@PBDPBVFormat_description_log_event@@@Z 004ad910 f   log_event.obj
 0001:000ac960       ??0Xid_log_event@@QAE@PBDPBVFormat_description_log_event@@@Z 004ad960 f   log_event.obj
 0001:000ac9b0       ?pack_info@User_var_log_event@@UAEXPAVProtocol@@@Z 004ad9b0 f   log_event.obj
 0001:000acc60       ??0User_var_log_event@@QAE@PBDPBVFormat_description_log_event@@@Z 004adc60 f   log_event.obj
 0001:000acd00       ?exec_event@User_var_log_event@@UAEHPAUst_relay_log_info@@@Z 004add00 f   log_event.obj
 0001:000acfe0       ??0Slave_log_event@@QAE@PAVTHD@@PAUst_relay_log_info@@@Z 004adfe0 f   log_event.obj
 0001:000ad1a0       ?is_valid@Slave_log_event@@UBEHXZ 004ae1a0 f i log_event.obj
 0001:000ad1b0       ?get_type_code@Slave_log_event@@UAE?AW4Log_event_type@@XZ 004ae1b0 f i log_event.obj
 0001:000ad1c0       ??1Slave_log_event@@UAE@XZ 004ae1c0 f   log_event.obj
 0001:000ad210       ??0Slave_log_event@@QAE@PBDI@Z 004ae210 f   log_event.obj
 0001:000ad2a0       ?write_data_body@Create_file_log_event@@UAEHPAUst_io_cache@@@Z 004ae2a0 f   log_event.obj
 0001:000ad310       ??0Append_block_log_event@@QAE@PAVTHD@@PBDPADIH@Z 004ae310 f   log_event.obj
 0001:000ad390       ?get_type_code@Append_block_log_event@@UAE?AW4Log_event_type@@XZ 004ae390 f i log_event.obj
 0001:000ad3a0       ?get_data_size@Append_block_log_event@@UAEHXZ 004ae3a0 f i log_event.obj
 0001:000ad3b0       ?is_valid@Append_block_log_event@@UBEHXZ 004ae3b0 f i log_event.obj
 0001:000ad3c0       ?get_db@Append_block_log_event@@UAEPBDXZ 004ae3c0 f i log_event.obj
 0001:000ad3d0       ??_GAppend_block_log_event@@UAEPAXI@Z 004ae3d0 f i log_event.obj
 0001:000ad3d0       ??_EAppend_block_log_event@@UAEPAXI@Z 004ae3d0 f i log_event.obj
 0001:000ad420       ??0Append_block_log_event@@QAE@PBDIPBVFormat_description_log_event@@@Z 004ae420 f   log_event.obj
 0001:000ad490       ??0Delete_file_log_event@@QAE@PAVTHD@@PBDH@Z 004ae490 f   log_event.obj
 0001:000ad500       ?get_type_code@Delete_file_log_event@@UAE?AW4Log_event_type@@XZ 004ae500 f i log_event.obj
 0001:000ad510       ?get_data_size@Delete_file_log_event@@UAEHXZ 004ae510 f i log_event.obj
 0001:000ad520       ?is_valid@Delete_file_log_event@@UBEHXZ 004ae520 f i log_event.obj
 0001:000ad530       ?get_db@Delete_file_log_event@@UAEPBDXZ 004ae530 f i log_event.obj
 0001:000ad540       ??_EDelete_file_log_event@@UAEPAXI@Z 004ae540 f i log_event.obj
 0001:000ad540       ??_GDelete_file_log_event@@UAEPAXI@Z 004ae540 f i log_event.obj
 0001:000ad570       ??0Delete_file_log_event@@QAE@PBDIPBVFormat_description_log_event@@@Z 004ae570 f   log_event.obj
 0001:000ad5d0       ??0Execute_load_log_event@@QAE@PAVTHD@@PBDH@Z 004ae5d0 f   log_event.obj
 0001:000ad640       ?get_type_code@Execute_load_log_event@@UAE?AW4Log_event_type@@XZ 004ae640 f i log_event.obj
 0001:000ad650       ?get_data_size@Execute_load_log_event@@UAEHXZ 004ae650 f i log_event.obj
 0001:000ad660       ?is_valid@Execute_load_log_event@@UBEHXZ 004ae660 f i log_event.obj
 0001:000ad670       ?get_db@Execute_load_log_event@@UAEPBDXZ 004ae670 f i log_event.obj
 0001:000ad680       ??_GExecute_load_log_event@@UAEPAXI@Z 004ae680 f i log_event.obj
 0001:000ad680       ??_EExecute_load_log_event@@UAEPAXI@Z 004ae680 f i log_event.obj
 0001:000ad6b0       ??0Execute_load_log_event@@QAE@PBDIPBVFormat_description_log_event@@@Z 004ae6b0 f   log_event.obj
 0001:000ad710       ??0Begin_load_query_log_event@@QAE@PAVTHD@@PBDPADIH@Z 004ae710 f   log_event.obj
 0001:000ad770       ?get_type_code@Begin_load_query_log_event@@UAE?AW4Log_event_type@@XZ 004ae770 f i log_event.obj
 0001:000ad780       ??_GBegin_load_query_log_event@@UAEPAXI@Z 004ae780 f i log_event.obj
 0001:000ad780       ??_EBegin_load_query_log_event@@UAEPAXI@Z 004ae780 f i log_event.obj
 0001:000ad7b0       ??0Begin_load_query_log_event@@QAE@PBDIPBVFormat_description_log_event@@@Z 004ae7b0 f   log_event.obj
 0001:000ad820       ??0Execute_load_query_log_event@@QAE@PAVTHD@@PBDKIIW4enum_load_dup_handling@@HH@Z 004ae820 f   log_event.obj
 0001:000ad8a0       ?get_type_code@Execute_load_query_log_event@@UAE?AW4Log_event_type@@XZ 004ae8a0 f i log_event.obj
 0001:000ad8b0       ?is_valid@Execute_load_query_log_event@@UBEHXZ 004ae8b0 f i log_event.obj
 0001:000ad8d0       ??_GExecute_load_query_log_event@@UAEPAXI@Z 004ae8d0 f i log_event.obj
 0001:000ad8d0       ??_EExecute_load_query_log_event@@UAEPAXI@Z 004ae8d0 f i log_event.obj
 0001:000ad900       ??0Execute_load_query_log_event@@QAE@PBDIPBVFormat_description_log_event@@@Z 004ae900 f   log_event.obj
 0001:000ad9b0       ?exec_event@Execute_load_query_log_event@@UAEHPAUst_relay_log_info@@@Z 004ae9b0 f   log_event.obj
 0001:000adb30       ??_EItem_return_int@@UAEPAXI@Z 004aeb30 f i log_event.obj
 0001:000adb30       ??_GItem_return_int@@UAEPAXI@Z 004aeb30 f i log_event.obj
 0001:000adb50       ?exec_event@Load_log_event@@UAEHPAUst_relay_log_info@@@Z 004aeb50 f i log_event.obj
 0001:000adb70       ?exec_event@Query_log_event@@UAEHPAUst_relay_log_info@@@Z 004aeb70 f   log_event.obj
 0001:000adb90       ??_EMuted_query_log_event@@UAEPAXI@Z 004aeb90 f i log_event.obj
 0001:000adb90       ??_GMuted_query_log_event@@UAEPAXI@Z 004aeb90 f i log_event.obj
 0001:000adbc0       ??0Load_log_event@@QAE@PAVTHD@@PAVsql_exchange@@PBD2AAV?$List@VItem@@@@W4enum_duplicates@@HH@Z 004aebc0 f   log_event.obj
 0001:000adf40       ??0Load_log_event@@QAE@PBDIPBVFormat_description_log_event@@@Z 004aef40 f   log_event.obj
 0001:000ae030       ??_ESlave_log_event@@UAEPAXI@Z 004af030 f i log_event.obj
 0001:000ae030       ??_GSlave_log_event@@UAEPAXI@Z 004af030 f i log_event.obj
 0001:000ae090       ??0Create_file_log_event@@QAE@PAVTHD@@PAVsql_exchange@@PBD2AAV?$List@VItem@@@@W4enum_duplicates@@HPADIH@Z 004af090 f   log_event.obj
 0001:000ae130       ?get_type_code@Create_file_log_event@@UAE?AW4Log_event_type@@XZ 004af130 f i log_event.obj
 0001:000ae190       ?is_valid@Create_file_log_event@@UBEHXZ 004af190 f i log_event.obj
 0001:000ae1c0       ?get_data_size@Create_file_log_event@@UAEHXZ 004af1c0 f i log_event.obj
 0001:000ae240       ??_ECreate_file_log_event@@UAEPAXI@Z 004af240 f i log_event.obj
 0001:000ae240       ??_GCreate_file_log_event@@UAEPAXI@Z 004af240 f i log_event.obj
 0001:000ae290       ??0Create_file_log_event@@QAE@PBDIPBVFormat_description_log_event@@@Z 004af290 f   log_event.obj
 0001:000ae3e0       ?read_log_event@Log_event@@SAPAV1@PBDIPAPBDPBVFormat_description_log_event@@@Z 004af3e0 f   log_event.obj
 0001:000ae820       ?read_log_event@Log_event@@SAPAV1@PAUst_io_cache@@PAU_RTL_CRITICAL_SECTION@@PBVFormat_description_log_event@@@Z 004af820 f   log_event.obj
 0001:000aeaa0       ?exec_event@Execute_load_log_event@@UAEHPAUst_relay_log_info@@@Z 004afaa0 f   log_event.obj
 0001:000aed40       __my_b_net_read            004afd40 f   mf_iocache.obj
 0001:000aedf0       ?my_decimal_string_length@@YAHPBVmy_decimal@@@Z 004afdf0 f i my_decimal.obj
 0001:000aee20       ?decimal_operation_results@@YAHH@Z 004afe20 f   my_decimal.obj
 0001:000aefb0       ?my_decimal2string@@YAHIPBVmy_decimal@@IIDPAVString@@@Z 004affb0 f   my_decimal.obj
 0001:000af080       ?my_decimal2binary@@YAHIPBVmy_decimal@@PADHH@Z 004b0080 f   my_decimal.obj
 0001:000af130       ?str2my_decimal@@YAHIPBDIPAUcharset_info_st@@PAVmy_decimal@@@Z 004b0130 f   my_decimal.obj
 0001:000af2c0       ?date2my_decimal@@YAPAVmy_decimal@@PAUst_mysql_time@@PAV1@@Z 004b02c0 f   my_decimal.obj
 0001:000af3f0       _calc_days_in_year         004b03f0 f   my_time.obj
 0001:000af440       _check_date                004b0440 f   my_time.obj
 0001:000af4e0       _str_to_datetime           004b04e0 f   my_time.obj
 0001:000afce0       _check_time_range          004b0ce0 f   my_time.obj
 0001:000afd80       _year_2000_handling        004b0d80 f   my_time.obj
 0001:000afda0       _calc_daynr                004b0da0 f   my_time.obj
 0001:000afe60       _my_system_gmt_sec         004b0e60 f   my_time.obj
 0001:000b0110       _set_zero_time             004b1110 f   my_time.obj
 0001:000b0150       _my_time_to_str            004b1150 f   my_time.obj
 0001:000b01a0       _my_date_to_str            004b11a0 f   my_time.obj
 0001:000b01d0       _my_datetime_to_str        004b11d0 f   my_time.obj
 0001:000b0210       _my_TIME_to_str            004b1210 f   my_time.obj
 0001:000b0290       _number_to_datetime        004b1290 f   my_time.obj
 0001:000b0550       _TIME_to_ulonglong_datetime 004b1550 f   my_time.obj
 0001:000b05a0       _TIME_to_ulonglong_date    004b15a0 f   my_time.obj
 0001:000b05c0       _TIME_to_ulonglong_time    004b15c0 f   my_time.obj
 0001:000b05e0       _TIME_to_ulonglong         004b15e0 f   my_time.obj
 0001:000b0660       _str_to_time               004b1660 f   my_time.obj
 0001:000b0c80       _init_time                 004b1c80 f   my_time.obj
 0001:000b0d20       _myrg_rnext_same           004b1d20 f   myrg_rnext_same.obj
 0001:000b0dc0       ??2ilink@@SAPAXI@Z         004b1dc0 f i mysqld.obj
 0001:000b0de0       ??0ilink@@QAE@XZ           004b1de0 f i mysqld.obj
 0001:000b0e00       ?unlink@ilink@@QAEXXZ      004b1e00 f i mysqld.obj
 0001:000b0e30       ??1ilink@@UAE@XZ           004b1e30 f i mysqld.obj
 0001:000b0e70       ??_Eilink@@UAEPAXI@Z       004b1e70 f i mysqld.obj
 0001:000b0e70       ??_Gilink@@UAEPAXI@Z       004b1e70 f i mysqld.obj
 0001:000b0ec0       ?empty@base_ilist@@QAEXXZ  004b1ec0 f i mysqld.obj
 0001:000b0ed0       ??0base_ilist@@QAE@XZ      004b1ed0 f i mysqld.obj
 0001:000b0ef0       ?append@base_ilist@@QAEXPAUilink@@@Z 004b1ef0 f i mysqld.obj
 0001:000b0f10       ?push_back@base_ilist@@QAEXPAUilink@@@Z 004b1f10 f i mysqld.obj
 0001:000b0f40       ?get@base_ilist@@QAEPAUilink@@XZ 004b1f40 f i mysqld.obj
 0001:000b0f80       ??0Unknown_key_hook@@QAE@XZ 004b1f80 f i mysqld.obj
 0001:000b0f90       ??1Unknown_key_hook@@UAE@XZ 004b1f90 f i mysqld.obj
 0001:000b0fa0       ??_EUnknown_key_hook@@UAEPAXI@Z 004b1fa0 f i mysqld.obj
 0001:000b0fa0       ??_GUnknown_key_hook@@UAEPAXI@Z 004b1fa0 f i mysqld.obj
 0001:000b0fd0       ??0File_parser_dummy_hook@@QAE@XZ 004b1fd0 f i mysqld.obj
 0001:000b0fe0       ??1File_parser_dummy_hook@@UAE@XZ 004b1fe0 f i mysqld.obj
 0001:000b0ff0       ??0Comp_creator@@QAE@XZ    004b1ff0 f i mysqld.obj
 0001:000b1000       ??1Comp_creator@@UAE@XZ    004b2000 f i mysqld.obj
 0001:000b1010       ??_GComp_creator@@UAEPAXI@Z 004b2010 f i mysqld.obj
 0001:000b1010       ??_EComp_creator@@UAEPAXI@Z 004b2010 f i mysqld.obj
 0001:000b1040       ??0Eq_creator@@QAE@XZ      004b2040 f i mysqld.obj
 0001:000b1050       ??1Eq_creator@@UAE@XZ      004b2050 f i mysqld.obj
 0001:000b1060       ?symbol@Eq_creator@@UBEPBDH@Z 004b2060 f i mysqld.obj
 0001:000b1080       ?eqne_op@Eq_creator@@UBEHXZ 004b2080 f i mysqld.obj
 0001:000b1090       ?l_op@Eq_creator@@UBEHXZ   004b2090 f i mysqld.obj
 0001:000b10a0       ??_EEq_creator@@UAEPAXI@Z  004b20a0 f i mysqld.obj
 0001:000b10a0       ??_GEq_creator@@UAEPAXI@Z  004b20a0 f i mysqld.obj
 0001:000b10d0       ??0Ne_creator@@QAE@XZ      004b20d0 f i mysqld.obj
 0001:000b10e0       ??1Ne_creator@@UAE@XZ      004b20e0 f i mysqld.obj
 0001:000b10f0       ?symbol@Ne_creator@@UBEPBDH@Z 004b20f0 f i mysqld.obj
 0001:000b1110       ?eqne_op@Ne_creator@@UBEHXZ 004b2110 f i mysqld.obj
 0001:000b1120       ?l_op@Ne_creator@@UBEHXZ   004b2120 f i mysqld.obj
 0001:000b1130       ??_ENe_creator@@UAEPAXI@Z  004b2130 f i mysqld.obj
 0001:000b1130       ??_GNe_creator@@UAEPAXI@Z  004b2130 f i mysqld.obj
 0001:000b1160       ??0Gt_creator@@QAE@XZ      004b2160 f i mysqld.obj
 0001:000b1170       ??1Gt_creator@@UAE@XZ      004b2170 f i mysqld.obj
 0001:000b1180       ?symbol@Gt_creator@@UBEPBDH@Z 004b2180 f i mysqld.obj
 0001:000b11a0       ?eqne_op@Gt_creator@@UBEHXZ 004b21a0 f i mysqld.obj
 0001:000b11b0       ?l_op@Gt_creator@@UBEHXZ   004b21b0 f i mysqld.obj
 0001:000b11c0       ??_EGt_creator@@UAEPAXI@Z  004b21c0 f i mysqld.obj
 0001:000b11c0       ??_GGt_creator@@UAEPAXI@Z  004b21c0 f i mysqld.obj
 0001:000b11f0       ??0Lt_creator@@QAE@XZ      004b21f0 f i mysqld.obj
 0001:000b1200       ??1Lt_creator@@UAE@XZ      004b2200 f i mysqld.obj
 0001:000b1210       ?symbol@Lt_creator@@UBEPBDH@Z 004b2210 f i mysqld.obj
 0001:000b1230       ?eqne_op@Lt_creator@@UBEHXZ 004b2230 f i mysqld.obj
 0001:000b1240       ?l_op@Lt_creator@@UBEHXZ   004b2240 f i mysqld.obj
 0001:000b1250       ??_GLt_creator@@UAEPAXI@Z  004b2250 f i mysqld.obj
 0001:000b1250       ??_ELt_creator@@UAEPAXI@Z  004b2250 f i mysqld.obj
 0001:000b1280       ??0Ge_creator@@QAE@XZ      004b2280 f i mysqld.obj
 0001:000b1290       ??1Ge_creator@@UAE@XZ      004b2290 f i mysqld.obj
 0001:000b12a0       ?symbol@Ge_creator@@UBEPBDH@Z 004b22a0 f i mysqld.obj
 0001:000b12c0       ?eqne_op@Ge_creator@@UBEHXZ 004b22c0 f i mysqld.obj
 0001:000b12d0       ?l_op@Ge_creator@@UBEHXZ   004b22d0 f i mysqld.obj
 0001:000b12e0       ??_EGe_creator@@UAEPAXI@Z  004b22e0 f i mysqld.obj
 0001:000b12e0       ??_GGe_creator@@UAEPAXI@Z  004b22e0 f i mysqld.obj
 0001:000b1310       ??0Le_creator@@QAE@XZ      004b2310 f i mysqld.obj
 0001:000b1320       ??1Le_creator@@UAE@XZ      004b2320 f i mysqld.obj
 0001:000b1330       ?symbol@Le_creator@@UBEPBDH@Z 004b2330 f i mysqld.obj
 0001:000b1350       ?eqne_op@Le_creator@@UBEHXZ 004b2350 f i mysqld.obj
 0001:000b1360       ?l_op@Le_creator@@UBEHXZ   004b2360 f i mysqld.obj
 0001:000b1370       ??_ELe_creator@@UAEPAXI@Z  004b2370 f i mysqld.obj
 0001:000b1370       ??_GLe_creator@@UAEPAXI@Z  004b2370 f i mysqld.obj
 0001:000b13a0       ?open_query_log@MYSQL_LOG@@QAEHPBD@Z 004b23a0 f i mysqld.obj
 0001:000b1410       ?open_slow_log@MYSQL_LOG@@QAEHPBD@Z 004b2410 f i mysqld.obj
 0001:000b1480       ??0i_string@@QAE@PAD@Z     004b2480 f i mysqld.obj
 0001:000b14a0       ??0i_string_pair@@QAE@PAD0@Z 004b24a0 f i mysqld.obj
 0001:000b14d0       ?result_size_limit@Query_cache@@QAEXK@Z 004b24d0 f i mysqld.obj
 0001:000b14e0       ??1base_ilist@@QAE@XZ      004b24e0 f i mysqld.obj
 0001:000b1520       ??1?$I_List@Vi_string_pair@@@@QAE@XZ 004b2520 f i mysqld.obj
 0001:000b1560       ??1?$I_List@Vi_string@@@@QAE@XZ 004b2560 f i mysqld.obj
 0001:000b15a0       ??1?$I_List@VNAMED_LIST@@@@QAE@XZ 004b25a0 f i mysqld.obj
 0001:000b15e0       ?IsNT@NTService@@QAEHXZ    004b25e0 f i mysqld.obj
 0001:000b15f0       ?SetShutdownEvent@NTService@@QAEXPAX@Z 004b25f0 f i mysqld.obj
 0001:000b1600       ?kill_mysql@@YAXXZ         004b2600 f   mysqld.obj
 0001:000b1620       _print_signal_warning      004b2620 f   mysqld.obj
 0001:000b1be0       ?close_connection@@YAXPAVTHD@@IH@Z 004b2be0 f   mysqld.obj
 0001:000b1c60       ?flush_thread_cache@@YAXXZ 004b2c60 f   mysqld.obj
 0001:000b1e50       ?uname@@YAHPAUutsname@@@Z  004b2e50 f   mysqld.obj
 0001:000b21a0       ?decrement_handler_count@@YAXXZ 004b31a0 f   mysqld.obj
 0001:000b27b0       ?fn_format_relative_to_data_home@@YAHPADPBD11@Z 004b37b0 f   mysqld.obj
 0001:000b2e10       ?refresh_status@@YAXPAVTHD@@@Z 004b3e10 f   mysqld.obj
 0001:000b2ee0       ??0?$I_List@VNAMED_LIST@@@@QAE@XZ 004b3ee0 f i mysqld.obj
 0001:000b2f00       ?empty@?$I_List@VNAMED_LIST@@@@QAEXXZ 004b3f00 f i mysqld.obj
 0001:000b2f10       ??0?$I_List@VTHD@@@@QAE@XZ 004b3f10 f i mysqld.obj
 0001:000b2f30       ?empty@?$I_List@VTHD@@@@QAEXXZ 004b3f30 f i mysqld.obj
 0001:000b2f40       ?append@?$I_List@VTHD@@@@QAEXPAVTHD@@@Z 004b3f40 f i mysqld.obj
 0001:000b2f60       ?get@?$I_List@VTHD@@@@QAEPAVTHD@@XZ 004b3f60 f i mysqld.obj
 0001:000b2fa0       ??0?$I_List@Vi_string@@@@QAE@XZ 004b3fa0 f i mysqld.obj
 0001:000b2fc0       ?empty@?$I_List@Vi_string@@@@QAEXXZ 004b3fc0 f i mysqld.obj
 0001:000b2fd0       ?push_back@?$I_List@Vi_string@@@@QAEXPAVi_string@@@Z 004b3fd0 f i mysqld.obj
 0001:000b3000       ??0?$I_List@Vi_string_pair@@@@QAE@XZ 004b4000 f i mysqld.obj
 0001:000b3020       ?empty@?$I_List@Vi_string_pair@@@@QAEXXZ 004b4020 f i mysqld.obj
 0001:000b3030       ?push_back@?$I_List@Vi_string_pair@@@@QAEXPAVi_string_pair@@@Z 004b4030 f i mysqld.obj
 0001:000b3060       ??0?$I_List_iterator@VTHD@@@@QAE@AAV?$I_List@VTHD@@@@@Z 004b4060 f i mysqld.obj
 0001:000b3080       ??E?$I_List_iterator@VTHD@@@@QAEPAVTHD@@H@Z 004b4080 f i mysqld.obj
 0001:000b30b0       ??_EFile_parser_dummy_hook@@UAEPAXI@Z 004b40b0 f i mysqld.obj
 0001:000b30b0       ??_GFile_parser_dummy_hook@@UAEPAXI@Z 004b40b0 f i mysqld.obj
 0001:000b30e0       ??_Ei_string@@UAEPAXI@Z    004b40e0 f i mysqld.obj
 0001:000b30e0       ??_Gi_string@@UAEPAXI@Z    004b40e0 f i mysqld.obj
 0001:000b3110       ??_Gi_string_pair@@UAEPAXI@Z 004b4110 f i mysqld.obj
 0001:000b3110       ??_Ei_string_pair@@UAEPAXI@Z 004b4110 f i mysqld.obj
 0001:000b3140       ??1?$I_List@VTHD@@@@QAE@XZ 004b4140 f i mysqld.obj
 0001:000b34c0       ?unireg_end@@YAXXZ         004b44c0 f   mysqld.obj
 0001:000b34e0       _unireg_abort              004b44e0 f   mysqld.obj
 0001:000b3930       ?end_thread@@YAXPAVTHD@@H@Z 004b4930 f   mysqld.obj
 0001:000b4350       _handle_connections_sockets 004b5350 f   mysqld.obj
 0001:000b46e0       _handle_connections_namedpipes 004b56e0 f   mysqld.obj
 0001:000b4960       _handle_connections_shared_memory 004b5960 f   mysqld.obj
 0001:000b6fe0       _kill_server_thread        004b7fe0 f   mysqld.obj
 0001:000b7070       _end_thread_signal         004b8070 f   mysqld.obj
 0001:000b7140       _handle_shutdown           004b8140 f   mysqld.obj
 0001:000b7210       ?handle_kill@@YGHK@Z       004b8210 f   mysqld.obj
 0001:000b7c00       ?win_main@@YAHHPAPAD@Z     004b8c00 f   mysqld.obj
 0001:000b80c0       ?mysql_service@@YAHPAX@Z   004b90c0 f   mysqld.obj
 0001:000b8100       _main                      004b9100 f   mysqld.obj
 0001:000b8430       _my_net_init               004b9430 f   net_serv.obj
 0001:000b8500       _net_end                   004b9500 f   net_serv.obj
 0001:000b8520       _net_realloc               004b9520 f   net_serv.obj
 0001:000b8660       _net_clear                 004b9660 f   net_serv.obj
 0001:000b86e0       _net_real_write            004b96e0 f   net_serv.obj
 0001:000b8bb0       _my_net_read               004b9bb0 f   net_serv.obj
 0001:000b8e20       _my_net_set_read_timeout   004b9e20 f   net_serv.obj
 0001:000b8e50       _my_net_set_write_timeout  004b9e50 f   net_serv.obj
 0001:000b8e80       _net_flush                 004b9e80 f   net_serv.obj
 0001:000b9010       _my_net_write              004ba010 f   net_serv.obj
 0001:000b9110       _net_write_command         004ba110 f   net_serv.obj
 0001:000b92e0       ??0NTService@@QAE@XZ       004ba2e0 f   nt_servc.obj
 0001:000b93a0       ??1NTService@@QAE@XZ       004ba3a0 f   nt_servc.obj
 0001:000b93c0       ?GetOS@NTService@@QAEHXZ   004ba3c0 f   nt_servc.obj
 0001:000b9410       ?StartServiceA@NTService@@IAEHXZ 004ba410 f   nt_servc.obj
 0001:000b9450       ?StopService@NTService@@IAEXXZ 004ba450 f   nt_servc.obj
 0001:000b9490       ?PauseService@NTService@@IAEXXZ 004ba490 f   nt_servc.obj
 0001:000b94b0       ?ResumeService@NTService@@IAEXXZ 004ba4b0 f   nt_servc.obj
 0001:000b94d0       ?SetStatus@NTService@@IAEHKKKKK@Z 004ba4d0 f   nt_servc.obj
 0001:000b95a0       ?ServiceCtrlHandler@NTService@@KAXK@Z 004ba5a0 f   nt_servc.obj
 0001:000b96b0       ?Exit@NTService@@IAEXK@Z   004ba6b0 f   nt_servc.obj
 0001:000b9770       ?IsService@NTService@@QAEHPBD@Z 004ba770 f   nt_servc.obj
 0001:000b97c0       ?got_service_option@NTService@@QAEHPAPADPAD@Z 004ba7c0 f   nt_servc.obj
 0001:000b9840       ?is_super_user@NTService@@QAEHXZ 004ba840 f   nt_servc.obj
 0001:000b99e0       ?Stop@NTService@@QAEXXZ    004ba9e0 f   nt_servc.obj
 0001:000b9b30       ?ServiceMain@NTService@@KAXKPAPAD@Z 004bab30 f   nt_servc.obj
 0001:000b9d20       ?SeekStatus@NTService@@QAEHPBDH@Z 004bad20 f   nt_servc.obj
 0001:000b9f50       ?Init@NTService@@QAEJPBDPAX@Z 004baf50 f   nt_servc.obj
 0001:000b9fd0       ?Install@NTService@@QAEHHPBD0000@Z 004bafd0 f   nt_servc.obj
 0001:000ba140       ?Remove@NTService@@QAEHPBD@Z 004bb140 f   nt_servc.obj
 0001:000ba240       ?ha_index_or_rnd_end@handler@@QAEHXZ 004bb240 f i opt_range.obj
 0001:000ba280       ?argument_count@Item_func@@QBEIXZ 004bb280 f i opt_range.obj
 0001:000ba290       ?compare_elems@in_vector@@QAEHII@Z 004bb290 f i opt_range.obj
 0001:000ba2d0       ?argument_list@Item_cond@@QAEPAV?$List@VItem@@@@XZ 004bb2d0 f i opt_range.obj
 0001:000ba2e0       ?get_cost_calc_buff_size@Unique@@SAHKI_K@Z 004bb2e0 f i opt_range.obj
 0001:000ba330       ??0QUICK_RANGE@@QAE@PBDI0II@Z 004bb330 f i opt_range.obj
 0001:000ba390       ??1QUICK_SELECT_I@@UAE@XZ  004bb390 f i opt_range.obj
 0001:000ba3a0       ?range_end@QUICK_SELECT_I@@UAEXXZ 004bb3a0 f i opt_range.obj
 0001:000ba3b0       ?unique_key_range@QUICK_SELECT_I@@UAEHXZ 004bb3b0 f i opt_range.obj
 0001:000ba3c0       ?init_ror_merged_scan@QUICK_SELECT_I@@UAEHH@Z 004bb3c0 f i opt_range.obj
 0001:000ba3d0       ?save_last_pos@QUICK_SELECT_I@@UAEXXZ 004bb3d0 f i opt_range.obj
 0001:000ba3e0       ?add_info_string@QUICK_SELECT_I@@UAEXPAVString@@@Z 004bb3e0 f i opt_range.obj
 0001:000ba3f0       ??_GQUICK_SELECT_I@@UAEPAXI@Z 004bb3f0 f i opt_range.obj
 0001:000ba3f0       ??_EQUICK_SELECT_I@@UAEPAXI@Z 004bb3f0 f i opt_range.obj
 0001:000ba420       ??0SEL_ARG@@QAE@XZ         004bb420 f i opt_range.obj
 0001:000ba430       ??0SEL_ARG@@QAE@W4Type@0@@Z 004bb430 f i opt_range.obj
 0001:000ba460       ?merge_flags@SEL_ARG@@QAEXPAV1@@Z 004bb460 f i opt_range.obj
 0001:000ba470       ?maybe_smaller@SEL_ARG@@QAEXXZ 004bb470 f i opt_range.obj
 0001:000ba480       ?is_null_interval@SEL_ARG@@QAEHXZ 004bb480 f i opt_range.obj
 0001:000ba4a0       ?copy_min_to_min@SEL_ARG@@QAEXPAV1@@Z 004bb4a0 f i opt_range.obj
 0001:000ba4c0       ?copy_max_to_min@SEL_ARG@@QAEXPAV1@@Z 004bb4c0 f i opt_range.obj
 0001:000ba4e0       ?store_min@SEL_ARG@@QAEXIPAPADI@Z 004bb4e0 f i opt_range.obj
 0001:000ba580       ?store@SEL_ARG@@QAEXIPAPADI0I@Z 004bb580 f i opt_range.obj
 0001:000ba630       ?simple_key@SEL_ARG@@QAEHXZ 004bb630 f i opt_range.obj
 0001:000ba650       ?parent_ptr@SEL_ARG@@QAEPAPAV1@XZ 004bb650 f i opt_range.obj
 0001:000ba670       ??1?$List@VSEL_IMERGE@@@@QAE@XZ 004bb670 f i opt_range.obj
 0001:000ba680       ??1SEL_ARG@@QAE@XZ         004bb680 f i opt_range.obj
 0001:000ba690       ??0SEL_IMERGE@@QAE@XZ      004bb690 f i opt_range.obj
 0001:000ba6b0       ?or_sel_tree@SEL_IMERGE@@QAEHPAUst_qsel_param@@PAVSEL_TREE@@@Z 004bb6b0 f   opt_range.obj
 0001:000ba760       ??0SQL_SELECT@@QAE@XZ      004bb760 f   opt_range.obj
 0001:000ba7a0       ?cleanup@SQL_SELECT@@QAEXXZ 004bb7a0 f   opt_range.obj
 0001:000ba800       ??1SQL_SELECT@@QAE@XZ      004bb800 f   opt_range.obj
 0001:000ba860       ??0QUICK_SELECT_I@@QAE@XZ  004bb860 f   opt_range.obj
 0001:000ba880       ??0QUICK_RANGE_SELECT@@QAE@PAVTHD@@PAUst_table@@IHPAUst_mem_root@@@Z 004bb880 f   opt_range.obj
 0001:000ba990       ?reverse_sorted@QUICK_RANGE_SELECT@@UAEHXZ 004bb990 f i opt_range.obj
 0001:000ba9a0       ?save_last_pos@QUICK_RANGE_SELECT@@UAEXXZ 004bb9a0 f i opt_range.obj
 0001:000ba9c0       ?get_type@QUICK_RANGE_SELECT@@UAEHXZ 004bb9c0 f i opt_range.obj
 0001:000ba9d0       ?init@QUICK_RANGE_SELECT@@UAEHXZ 004bb9d0 f   opt_range.obj
 0001:000baa40       ?range_end@QUICK_RANGE_SELECT@@UAEXXZ 004bba40 f   opt_range.obj
 0001:000baa80       ??1QUICK_RANGE_SELECT@@UAE@XZ 004bba80 f   opt_range.obj
 0001:000babb0       ??1?$List@VQUICK_RANGE_SELECT@@@@QAE@XZ 004bbbb0 f i opt_range.obj
 0001:000babc0       ?init@QUICK_INDEX_MERGE_SELECT@@UAEHXZ 004bbbc0 f   opt_range.obj
 0001:000babd0       ?init@QUICK_ROR_INTERSECT_SELECT@@UAEHXZ 004bbbd0 f   opt_range.obj
 0001:000babe0       ?init_ror_merged_scan@QUICK_RANGE_SELECT@@UAEHH@Z 004bbbe0 f   opt_range.obj
 0001:000bad90       ??1?$List@VQUICK_SELECT_I@@@@QAE@XZ 004bbd90 f i opt_range.obj
 0001:000bada0       ?queue_cmp@QUICK_ROR_UNION_SELECT@@CAHPAXPAE1@Z 004bbda0 f   opt_range.obj
 0001:000badd0       ??0QUICK_RANGE@@QAE@XZ     004bbdd0 f   opt_range.obj
 0001:000badf0       ??0SEL_ARG@@QAE@AAV0@@Z    004bbdf0 f   opt_range.obj
 0001:000bae60       ?make_root@SEL_ARG@@QAEXXZ 004bbe60 f i opt_range.obj
 0001:000bae90       ??0SEL_ARG@@QAE@PAVField@@PBD1@Z 004bbe90 f   opt_range.obj
 0001:000baf00       ??0SEL_ARG@@QAE@PAVField@@EPAD1EEE@Z 004bbf00 f   opt_range.obj
 0001:000baf90       ?first@SEL_ARG@@QAEPAV1@XZ 004bbf90 f   opt_range.obj
 0001:000bafc0       ?last@SEL_ARG@@QAEPAV1@XZ  004bbfc0 f   opt_range.obj
 0001:000bb100       ?get_index_for_order@@YAIPAUst_table@@PAUst_order@@K@Z 004bc100 f   opt_range.obj
 0001:000bb2e0       ??2TABLE_READ_PLAN@@SAPAXIPAUst_mem_root@@@Z 004bc2e0 f i opt_range.obj
 0001:000bb300       ??1TABLE_READ_PLAN@@UAE@XZ 004bc300 f i opt_range.obj
 0001:000bb310       ??_ETABLE_READ_PLAN@@UAEPAXI@Z 004bc310 f i opt_range.obj
 0001:000bb310       ??_GTABLE_READ_PLAN@@UAEPAXI@Z 004bc310 f i opt_range.obj
 0001:000bb320       ??0TABLE_READ_PLAN@@QAE@XZ 004bc320 f i opt_range.obj
 0001:000bb330       ??0TRP_ROR_INTERSECT@@QAE@XZ 004bc330 f i opt_range.obj
 0001:000bb340       ??_ETRP_ROR_INTERSECT@@UAEPAXI@Z 004bc340 f i opt_range.obj
 0001:000bb340       ??_GTRP_ROR_INTERSECT@@UAEPAXI@Z 004bc340 f i opt_range.obj
 0001:000bb350       ??0TRP_ROR_UNION@@QAE@XZ   004bc350 f i opt_range.obj
 0001:000bb360       ??_GTRP_ROR_UNION@@UAEPAXI@Z 004bc360 f i opt_range.obj
 0001:000bb360       ??_ETRP_ROR_UNION@@UAEPAXI@Z 004bc360 f i opt_range.obj
 0001:000bb370       ??0TRP_INDEX_MERGE@@QAE@XZ 004bc370 f i opt_range.obj
 0001:000bb380       ??_ETRP_INDEX_MERGE@@UAEPAXI@Z 004bc380 f i opt_range.obj
 0001:000bb380       ??_GTRP_INDEX_MERGE@@UAEPAXI@Z 004bc380 f i opt_range.obj
 0001:000bb390       ??0TRP_GROUP_MIN_MAX@@QAE@HHPAUst_key_part_info@@IIIPAUst_key@@IIPAEPAVSEL_TREE@@PAVSEL_ARG@@IK@Z 004bc390 f i opt_range.obj
 0001:000bb450       ??_GTRP_GROUP_MIN_MAX@@UAEPAXI@Z 004bc450 f i opt_range.obj
 0001:000bb450       ??_ETRP_GROUP_MIN_MAX@@UAEPAXI@Z 004bc450 f i opt_range.obj
 0001:000bb5c0       ?get_sweep_read_cost@@YANPBUst_qsel_param@@K@Z 004bc5c0 f   opt_range.obj
 0001:000bbac0       ?ror_intersect_cpy@@YAXPAUROR_INTERSECT_INFO@@PBU1@@Z 004bcac0 f   opt_range.obj
 0001:000bc730       ?sel_trees_can_be_ored@@YAHPAVSEL_TREE@@0PAUst_qsel_param@@@Z 004bd730 f   opt_range.obj
 0001:000bc8b0       ?rb_insert@SEL_ARG@@QAEPAV1@PAV1@@Z 004bd8b0 f   opt_range.obj
 0001:000bc9c0       ?rb_delete_fixup@@YAPAVSEL_ARG@@PAV1@00@Z 004bd9c0 f   opt_range.obj
 0001:000bccb0       ?unique_key_range@QUICK_RANGE_SELECT@@UAEHXZ 004bdcb0 f   opt_range.obj
 0001:000bcd50       ?is_keys_used@QUICK_SELECT_I@@UAEHPAV?$List@VItem@@@@@Z 004bdd50 f   opt_range.obj
 0001:000bcd70       ?get_quick_select_for_ref@@YAPAVQUICK_RANGE_SELECT@@PAVTHD@@PAUst_table@@PAUst_table_ref@@K@Z 004bdd70 f   opt_range.obj
 0001:000bd000       ?get_next@QUICK_INDEX_MERGE_SELECT@@UAEHXZ 004be000 f   opt_range.obj
 0001:000bd090       ?get_next@QUICK_ROR_UNION_SELECT@@UAEHXZ 004be090 f   opt_range.obj
 0001:000bd1b0       ?reset@QUICK_RANGE_SELECT@@UAEHXZ 004be1b0 f   opt_range.obj
 0001:000bd340       ?get_next@QUICK_RANGE_SELECT@@UAEHXZ 004be340 f   opt_range.obj
 0001:000bd4d0       ?get_next_prefix@QUICK_RANGE_SELECT@@QAEHIPAE@Z 004be4d0 f   opt_range.obj
 0001:000bd680       ?get_next@QUICK_RANGE_SELECT_GEOM@@UAEHXZ 004be680 f   opt_range.obj
 0001:000bd730       ??1?$List@VQUICK_RANGE@@@@QAE@XZ 004be730 f i opt_range.obj
 0001:000bd740       ?cmp_next@QUICK_RANGE_SELECT@@IAEHPAVQUICK_RANGE@@@Z 004be740 f   opt_range.obj
 0001:000bd850       ?cmp_prev@QUICK_RANGE_SELECT@@IAEHPAVQUICK_RANGE@@@Z 004be850 f   opt_range.obj
 0001:000bd8a0       ?range_reads_after_key@QUICK_SELECT_DESC@@AAEHPAVQUICK_RANGE@@@Z 004be8a0 f   opt_range.obj
 0001:000bd8e0       ?add_info_string@QUICK_RANGE_SELECT@@UAEXPAVString@@@Z 004be8e0 f   opt_range.obj
 0001:000bd910       ?add_keys_and_lengths@QUICK_RANGE_SELECT@@UAEXPAVString@@0@Z 004be910 f   opt_range.obj
 0001:000bde30       ??0QUICK_GROUP_MIN_MAX_SELECT@@QAE@PAUst_table@@PAVJOIN@@HHPAUst_key_part_info@@IIPAUst_key@@INKIPAEPAUst_mem_root@@@Z 004bee30 f   opt_range.obj
 0001:000bdf90       ?reverse_sorted@QUICK_GROUP_MIN_MAX_SELECT@@UAEHXZ 004bef90 f i opt_range.obj
 0001:000bdfa0       ?unique_key_range@QUICK_GROUP_MIN_MAX_SELECT@@UAEHXZ 004befa0 f i opt_range.obj
 0001:000bdfb0       ?get_type@QUICK_GROUP_MIN_MAX_SELECT@@UAEHXZ 004befb0 f i opt_range.obj
 0001:000bdfc0       ??1QUICK_GROUP_MIN_MAX_SELECT@@UAE@XZ 004befc0 f   opt_range.obj
 0001:000be060       ?add_range@QUICK_GROUP_MIN_MAX_SELECT@@QAEHPAVSEL_ARG@@@Z 004bf060 f   opt_range.obj
 0001:000be160       ?adjust_prefix_ranges@QUICK_GROUP_MIN_MAX_SELECT@@QAEXXZ 004bf160 f   opt_range.obj
 0001:000be1c0       ?update_key_stat@QUICK_GROUP_MIN_MAX_SELECT@@QAEXXZ 004bf1c0 f   opt_range.obj
 0001:000be2a0       ?reset@QUICK_GROUP_MIN_MAX_SELECT@@UAEHXZ 004bf2a0 f   opt_range.obj
 0001:000be340       ?next_prefix@QUICK_GROUP_MIN_MAX_SELECT@@AAEHXZ 004bf340 f   opt_range.obj
 0001:000be410       ?next_min_in_range@QUICK_GROUP_MIN_MAX_SELECT@@AAEHXZ 004bf410 f   opt_range.obj
 0001:000be6c0       ?next_max_in_range@QUICK_GROUP_MIN_MAX_SELECT@@AAEHXZ 004bf6c0 f   opt_range.obj
 0001:000be900       ?add_keys_and_lengths@QUICK_GROUP_MIN_MAX_SELECT@@UAEXPAVString@@0@Z 004bf900 f   opt_range.obj
 0001:000be970       ??0?$List@VQUICK_RANGE_SELECT@@@@QAE@XZ 004bf970 f i opt_range.obj
 0001:000be990       ?push_back@?$List@VQUICK_RANGE_SELECT@@@@QAEHPAVQUICK_RANGE_SELECT@@@Z 004bf990 f i opt_range.obj
 0001:000be9f0       ?delete_elements@?$List@VQUICK_RANGE_SELECT@@@@QAEXXZ 004bf9f0 f i opt_range.obj
 0001:000bea40       ??0?$List@VQUICK_SELECT_I@@@@QAE@XZ 004bfa40 f i opt_range.obj
 0001:000bea60       ?push_back@?$List@VQUICK_SELECT_I@@@@QAEHPAVQUICK_SELECT_I@@@Z 004bfa60 f i opt_range.obj
 0001:000beac0       ?delete_elements@?$List@VQUICK_SELECT_I@@@@QAEXXZ 004bfac0 f i opt_range.obj
 0001:000beb10       ??0?$List@VQUICK_RANGE@@@@QAE@XZ 004bfb10 f i opt_range.obj
 0001:000beb30       ?push_front@?$List@VQUICK_RANGE@@@@QAEHPAVQUICK_RANGE@@@Z 004bfb30 f i opt_range.obj
 0001:000beb80       ??E?$List_iterator@VQUICK_RANGE@@@@QAEPAVQUICK_RANGE@@H@Z 004bfb80 f i opt_range.obj
 0001:000beba0       ?rewind@?$List_iterator@VQUICK_RANGE@@@@QAEXXZ 004bfba0 f i opt_range.obj
 0001:000bebb0       ?ref@?$List_iterator@VQUICK_RANGE@@@@QAEPAPAVQUICK_RANGE@@XZ 004bfbb0 f i opt_range.obj
 0001:000bebc0       ??0?$List@VSEL_IMERGE@@@@QAE@XZ 004bfbc0 f i opt_range.obj
 0001:000bebe0       ?push_back@?$List@VSEL_IMERGE@@@@QAEHPAVSEL_IMERGE@@@Z 004bfbe0 f i opt_range.obj
 0001:000bec40       ?head@?$List@VSEL_IMERGE@@@@QAEPAVSEL_IMERGE@@XZ 004bfc40 f i opt_range.obj
 0001:000bec50       ??E?$List_iterator@VSEL_IMERGE@@@@QAEPAVSEL_IMERGE@@H@Z 004bfc50 f i opt_range.obj
 0001:000bec70       ??E?$List_iterator_fast@VQUICK_RANGE_SELECT@@@@QAEPAVQUICK_RANGE_SELECT@@H@Z 004bfc70 f i opt_range.obj
 0001:000bec90       ?rewind@?$List_iterator_fast@VQUICK_RANGE_SELECT@@@@QAEXXZ 004bfc90 f i opt_range.obj
 0001:000beca0       ??E?$List_iterator_fast@VQUICK_SELECT_I@@@@QAEPAVQUICK_SELECT_I@@H@Z 004bfca0 f i opt_range.obj
 0001:000becc0       ??E?$List_iterator_fast@VSEL_IMERGE@@@@QAEPAVSEL_IMERGE@@H@Z 004bfcc0 f i opt_range.obj
 0001:000bece0       ?rewind@?$List_iterator@VItem@@@@QAEXXZ 004bfce0 f i opt_range.obj
 0001:000becf0       ??0?$List@VItem_sum@@@@QAE@XZ 004bfcf0 f i opt_range.obj
 0001:000bed10       ?push_back@?$List@VItem_sum@@@@QAEHPAVItem_sum@@@Z 004bfd10 f i opt_range.obj
 0001:000bed70       ??E?$List_iterator@VItem_sum@@@@QAEPAVItem_sum@@H@Z 004bfd70 f i opt_range.obj
 0001:000bed90       ?rewind@?$List_iterator@VItem_sum@@@@QAEXXZ 004bfd90 f i opt_range.obj
 0001:000beda0       ??_9@$BPE@AE               004bfda0 f i opt_range.obj
 0001:000bedb0       ??EItem_equal_iterator@@QAEPAVItem_field@@H@Z 004bfdb0 f i opt_range.obj
 0001:000bedd0       ??0QUICK_RANGE_SELECT@@AAE@ABV0@@Z 004bfdd0 f i opt_range.obj
 0001:000bee10       ??_GQUICK_RANGE_SELECT@@UAEPAXI@Z 004bfe10 f i opt_range.obj
 0001:000bee10       ??_EQUICK_RANGE_SELECT@@UAEPAXI@Z 004bfe10 f i opt_range.obj
 0001:000bee40       ??0QUICK_RANGE_SELECT_GEOM@@QAE@PAVTHD@@PAUst_table@@IHPAUst_mem_root@@@Z 004bfe40 f i opt_range.obj
 0001:000bee80       ?cmp_min_to_min@SEL_ARG@@QAEHPAV1@@Z 004bfe80 f i opt_range.obj
 0001:000beeb0       ?cmp_min_to_max@SEL_ARG@@QAEHPAV1@@Z 004bfeb0 f i opt_range.obj
 0001:000beee0       ?cmp_max_to_max@SEL_ARG@@QAEHPAV1@@Z 004bfee0 f i opt_range.obj
 0001:000bef10       ?cmp_max_to_min@SEL_ARG@@QAEHPAV1@@Z 004bff10 f i opt_range.obj
 0001:000bef40       ?clone_and@SEL_ARG@@QAEPAV1@PAV1@@Z 004bff40 f i opt_range.obj
 0001:000bf040       ?clone_first@SEL_ARG@@QAEPAV1@PAV1@@Z 004c0040 f i opt_range.obj
 0001:000bf0b0       ?clone_last@SEL_ARG@@QAEPAV1@PAV1@@Z 004c00b0 f i opt_range.obj
 0001:000bf110       ?copy_min@SEL_ARG@@QAEHPAV1@@Z 004c0110 f i opt_range.obj
 0001:000bf180       ?copy_max@SEL_ARG@@QAEHPAV1@@Z 004c0180 f i opt_range.obj
 0001:000bf1f0       ?store_min_key@SEL_ARG@@QAEXPAUst_key_part@@PAPADPAI@Z 004c01f0 f i opt_range.obj
 0001:000bf290       ?store_max_key@SEL_ARG@@QAEXPAUst_key_part@@PAPADPAI@Z 004c0290 f i opt_range.obj
 0001:000bf330       ?increment_use_count@SEL_ARG@@QAEXJ@Z 004c0330 f i opt_range.obj
 0001:000bf3b0       ?free_tree@SEL_ARG@@QAEXXZ 004c03b0 f i opt_range.obj
 0001:000bf400       ??0SEL_TREE@@QAE@W4Type@0@@Z 004c0400 f i opt_range.obj
 0001:000bf430       ??0SEL_TREE@@QAE@XZ        004c0430 f i opt_range.obj
 0001:000bf480       ?or_sel_tree_with_checks@SEL_IMERGE@@QAEHPAUst_qsel_param@@PAVSEL_TREE@@@Z 004c0480 f   opt_range.obj
 0001:000bf520       ?or_sel_imerge_with_checks@SEL_IMERGE@@QAEHPAUst_qsel_param@@PAV1@@Z 004c0520 f   opt_range.obj
 0001:000bf580       ?imerge_list_or_list@@YAHPAUst_qsel_param@@PAV?$List@VSEL_IMERGE@@@@1@Z 004c0580 f   opt_range.obj
 0001:000bf600       ?make_select@@YAPAVSQL_SELECT@@PAUst_table@@_K1PAVItem@@HPAH@Z 004c0600 f   opt_range.obj
 0001:000bf730       ??0QUICK_INDEX_MERGE_SELECT@@QAE@PAVTHD@@PAUst_table@@@Z 004c0730 f   opt_range.obj
 0001:000bf7b0       ?reverse_sorted@QUICK_INDEX_MERGE_SELECT@@UAEHXZ 004c07b0 f i opt_range.obj
 0001:000bf7c0       ?unique_key_range@QUICK_INDEX_MERGE_SELECT@@UAEHXZ 004c07c0 f i opt_range.obj
 0001:000bf7d0       ?get_type@QUICK_INDEX_MERGE_SELECT@@UAEHXZ 004c07d0 f i opt_range.obj
 0001:000bf7e0       ?push_quick_back@QUICK_INDEX_MERGE_SELECT@@QAEHPAVQUICK_RANGE_SELECT@@@Z 004c07e0 f   opt_range.obj
 0001:000bf880       ??0QUICK_ROR_INTERSECT_SELECT@@QAE@PAVTHD@@PAUst_table@@HPAUst_mem_root@@@Z 004c0880 f   opt_range.obj
 0001:000bf950       ?reverse_sorted@QUICK_ROR_INTERSECT_SELECT@@UAEHXZ 004c0950 f i opt_range.obj
 0001:000bf960       ?unique_key_range@QUICK_ROR_INTERSECT_SELECT@@UAEHXZ 004c0960 f i opt_range.obj
 0001:000bf970       ?get_type@QUICK_ROR_INTERSECT_SELECT@@UAEHXZ 004c0970 f i opt_range.obj
 0001:000bf980       ?push_quick_back@QUICK_ROR_INTERSECT_SELECT@@QAEHPAVQUICK_RANGE_SELECT@@@Z 004c0980 f   opt_range.obj
 0001:000bf9e0       ??1QUICK_ROR_INTERSECT_SELECT@@UAE@XZ 004c09e0 f   opt_range.obj
 0001:000bfa50       ??0QUICK_ROR_UNION_SELECT@@QAE@PAVTHD@@PAUst_table@@@Z 004c0a50 f   opt_range.obj
 0001:000bfae0       ?reverse_sorted@QUICK_ROR_UNION_SELECT@@UAEHXZ 004c0ae0 f i opt_range.obj
 0001:000bfaf0       ?unique_key_range@QUICK_ROR_UNION_SELECT@@UAEHXZ 004c0af0 f i opt_range.obj
 0001:000bfb00       ?get_type@QUICK_ROR_UNION_SELECT@@UAEHXZ 004c0b00 f i opt_range.obj
 0001:000bfb10       ?init@QUICK_ROR_UNION_SELECT@@UAEHXZ 004c0b10 f   opt_range.obj
 0001:000bfbb0       ?push_quick_back@QUICK_ROR_UNION_SELECT@@QAEHPAVQUICK_SELECT_I@@@Z 004c0bb0 f   opt_range.obj
 0001:000bfc10       ??1QUICK_ROR_UNION_SELECT@@UAE@XZ 004c0c10 f   opt_range.obj
 0001:000bfc80       ?clone@SEL_ARG@@QAEPAV1@PAUst_qsel_param@@PAV1@PAPAV1@@Z 004c0c80 f   opt_range.obj
 0001:000bfe20       ?clone_tree@SEL_ARG@@QAEPAV1@PAUst_qsel_param@@@Z 004c0e20 f   opt_range.obj
 0001:000bfe80       ??0TRP_RANGE@@QAE@PAVSEL_ARG@@I@Z 004c0e80 f i opt_range.obj
 0001:000bfea0       ??_GTRP_RANGE@@UAEPAXI@Z   004c0ea0 f i opt_range.obj
 0001:000bfea0       ??_ETRP_RANGE@@UAEPAXI@Z   004c0ea0 f i opt_range.obj
 0001:000bfeb0       ?make_quick@TRP_INDEX_MERGE@@UAEPAVQUICK_SELECT_I@@PAUst_qsel_param@@HPAUst_mem_root@@@Z 004c0eb0 f   opt_range.obj
 0001:000bff90       ?make_quick@TRP_ROR_UNION@@UAEPAVQUICK_SELECT_I@@PAUst_qsel_param@@HPAUst_mem_root@@@Z 004c0f90 f   opt_range.obj
 0001:000c08c0       ?insert@SEL_ARG@@QAEPAV1@PAV1@@Z 004c18c0 f   opt_range.obj
 0001:000c09a0       ?find_range@SEL_ARG@@QAEPAV1@PAV1@@Z 004c19a0 f   opt_range.obj
 0001:000c0a10       ?tree_delete@SEL_ARG@@QAEPAV1@PAV1@@Z 004c1a10 f   opt_range.obj
 0001:000c1140       ?get_quick_keys@@YAHPAUst_qsel_param@@PAVQUICK_RANGE_SELECT@@PAUst_key_part@@PAVSEL_ARG@@PADI4I@Z 004c2140 f   opt_range.obj
 0001:000c1530       ?row_in_ranges@QUICK_RANGE_SELECT@@IAEHXZ 004c2530 f   opt_range.obj
 0001:000c15e0       ?get_next@QUICK_SELECT_DESC@@UAEHXZ 004c25e0 f   opt_range.obj
 0001:000c17f0       ??_EQUICK_GROUP_MIN_MAX_SELECT@@UAEPAXI@Z 004c27f0 f i opt_range.obj
 0001:000c17f0       ??_GQUICK_GROUP_MIN_MAX_SELECT@@UAEPAXI@Z 004c27f0 f i opt_range.obj
 0001:000c1820       ?next_min@QUICK_GROUP_MIN_MAX_SELECT@@AAEHXZ 004c2820 f   opt_range.obj
 0001:000c1950       ?next_max@QUICK_GROUP_MIN_MAX_SELECT@@AAEHXZ 004c2950 f   opt_range.obj
 0001:000c1990       ?update_min_result@QUICK_GROUP_MIN_MAX_SELECT@@AAEXXZ 004c2990 f   opt_range.obj
 0001:000c1a20       ?update_max_result@QUICK_GROUP_MIN_MAX_SELECT@@AAEXXZ 004c2a20 f   opt_range.obj
 0001:000c1ab0       ??0?$List_iterator@VQUICK_RANGE@@@@QAE@AAV?$List@VQUICK_RANGE@@@@@Z 004c2ab0 f i opt_range.obj
 0001:000c1ad0       ?concat@?$List@VSEL_IMERGE@@@@QAEXPAV1@@Z 004c2ad0 f i opt_range.obj
 0001:000c1b00       ??0?$List_iterator@VSEL_IMERGE@@@@QAE@AAV?$List@VSEL_IMERGE@@@@@Z 004c2b00 f i opt_range.obj
 0001:000c1b20       ??0?$List_iterator_fast@VQUICK_RANGE_SELECT@@@@QAE@AAV?$List@VQUICK_RANGE_SELECT@@@@@Z 004c2b20 f i opt_range.obj
 0001:000c1b40       ??0?$List_iterator_fast@VQUICK_SELECT_I@@@@QAE@AAV?$List@VQUICK_SELECT_I@@@@@Z 004c2b40 f i opt_range.obj
 0001:000c1b60       ??0?$List_iterator_fast@VSEL_IMERGE@@@@QAE@AAV?$List@VSEL_IMERGE@@@@@Z 004c2b60 f i opt_range.obj
 0001:000c1b80       ??0?$List_iterator@VItem_sum@@@@QAE@AAV?$List@VItem_sum@@@@@Z 004c2b80 f i opt_range.obj
 0001:000c1ba0       ??0Item_equal_iterator@@QAE@AAVItem_equal@@@Z 004c2ba0 f i opt_range.obj
 0001:000c1bd0       ??_EQUICK_RANGE_SELECT_GEOM@@UAEPAXI@Z 004c2bd0 f i opt_range.obj
 0001:000c1bd0       ??_GQUICK_RANGE_SELECT_GEOM@@UAEPAXI@Z 004c2bd0 f i opt_range.obj
 0001:000c1c00       ?is_same@SEL_ARG@@QAEHPAV1@@Z 004c2c00 f i opt_range.obj
 0001:000c1c70       ?imerge_list_and_list@@YAXPAV?$List@VSEL_IMERGE@@@@0@Z 004c2c70 f i opt_range.obj
 0001:000c1ca0       ??1QUICK_INDEX_MERGE_SELECT@@UAE@XZ 004c2ca0 f   opt_range.obj
 0001:000c1d10       ??_GQUICK_ROR_INTERSECT_SELECT@@UAEPAXI@Z 004c2d10 f i opt_range.obj
 0001:000c1d10       ??_EQUICK_ROR_INTERSECT_SELECT@@UAEPAXI@Z 004c2d10 f i opt_range.obj
 0001:000c1d40       ?init_ror_merged_scan@QUICK_ROR_INTERSECT_SELECT@@UAEHH@Z 004c2d40 f   opt_range.obj
 0001:000c1e10       ?reset@QUICK_ROR_INTERSECT_SELECT@@UAEHXZ 004c2e10 f   opt_range.obj
 0001:000c1e70       ??_EQUICK_ROR_UNION_SELECT@@UAEPAXI@Z 004c2e70 f i opt_range.obj
 0001:000c1e70       ??_GQUICK_ROR_UNION_SELECT@@UAEPAXI@Z 004c2e70 f i opt_range.obj
 0001:000c1ea0       ?reset@QUICK_ROR_UNION_SELECT@@UAEHXZ 004c2ea0 f   opt_range.obj
 0001:000c2600       ?get_quick_select@@YAPAVQUICK_RANGE_SELECT@@PAUst_qsel_param@@IPAVSEL_ARG@@PAUst_mem_root@@@Z 004c3600 f   opt_range.obj
 0001:000c2770       ?is_keys_used@QUICK_INDEX_MERGE_SELECT@@UAEHPAV?$List@VItem@@@@@Z 004c3770 f   opt_range.obj
 0001:000c27d0       ?is_keys_used@QUICK_ROR_INTERSECT_SELECT@@UAEHPAV?$List@VItem@@@@@Z 004c37d0 f   opt_range.obj
 0001:000c2830       ?is_keys_used@QUICK_ROR_UNION_SELECT@@UAEHPAV?$List@VItem@@@@@Z 004c3830 f   opt_range.obj
 0001:000c2880       ?read_keys_and_merge@QUICK_INDEX_MERGE_SELECT@@QAEHXZ 004c3880 f   opt_range.obj
 0001:000c2ad0       ?get_next@QUICK_ROR_INTERSECT_SELECT@@UAEHXZ 004c3ad0 f   opt_range.obj
 0001:000c2cb0       ??0QUICK_SELECT_DESC@@QAE@PAVQUICK_RANGE_SELECT@@I@Z 004c3cb0 f   opt_range.obj
 0001:000c2e40       ?reverse_sorted@QUICK_SELECT_DESC@@UAEHXZ 004c3e40 f i opt_range.obj
 0001:000c2e50       ?get_type@QUICK_SELECT_DESC@@UAEHXZ 004c3e50 f i opt_range.obj
 0001:000c2e60       ?reset@QUICK_SELECT_DESC@@EAEHXZ 004c3e60 f i opt_range.obj
 0001:000c2e80       ??_GQUICK_SELECT_DESC@@UAEPAXI@Z 004c3e80 f i opt_range.obj
 0001:000c2e80       ??_EQUICK_SELECT_DESC@@UAEPAXI@Z 004c3e80 f i opt_range.obj
 0001:000c2eb0       ?add_info_string@QUICK_INDEX_MERGE_SELECT@@UAEXPAVString@@@Z 004c3eb0 f   opt_range.obj
 0001:000c2fe0       ?add_info_string@QUICK_ROR_INTERSECT_SELECT@@UAEXPAVString@@@Z 004c3fe0 f   opt_range.obj
 0001:000c3140       ?add_info_string@QUICK_ROR_UNION_SELECT@@UAEXPAVString@@@Z 004c4140 f   opt_range.obj
 0001:000c3220       ?add_keys_and_lengths@QUICK_INDEX_MERGE_SELECT@@UAEXPAVString@@0@Z 004c4220 f   opt_range.obj
 0001:000c3440       ?add_keys_and_lengths@QUICK_ROR_INTERSECT_SELECT@@UAEXPAVString@@0@Z 004c4440 f   opt_range.obj
 0001:000c3660       ?add_keys_and_lengths@QUICK_ROR_UNION_SELECT@@UAEXPAVString@@0@Z 004c4660 f   opt_range.obj
 0001:000c39b0       ?make_quick@TRP_GROUP_MIN_MAX@@UAEPAVQUICK_SELECT_I@@PAUst_qsel_param@@HPAUst_mem_root@@@Z 004c49b0 f   opt_range.obj
 0001:000c3b70       ?init@QUICK_GROUP_MIN_MAX_SELECT@@UAEHXZ 004c4b70 f   opt_range.obj
 0001:000c3de0       ?get_next@QUICK_GROUP_MIN_MAX_SELECT@@UAEHXZ 004c4de0 f   opt_range.obj
 0001:000c3f60       ?remove@?$List_iterator@VSEL_IMERGE@@@@QAEXXZ 004c4f60 f i opt_range.obj
 0001:000c3fc0       ?imerge_list_or_tree@@YAHPAUst_qsel_param@@PAV?$List@VSEL_IMERGE@@@@PAVSEL_TREE@@@Z 004c4fc0 f   opt_range.obj
 0001:000c4040       ??_GQUICK_INDEX_MERGE_SELECT@@UAEPAXI@Z 004c5040 f i opt_range.obj
 0001:000c4040       ??_EQUICK_INDEX_MERGE_SELECT@@UAEPAXI@Z 004c5040 f i opt_range.obj
 0001:000c4070       ?reset@QUICK_INDEX_MERGE_SELECT@@UAEHXZ 004c5070 f   opt_range.obj
 0001:000c4080       ?make_quick@TRP_RANGE@@UAEPAVQUICK_SELECT_I@@PAUst_qsel_param@@HPAUst_mem_root@@@Z 004c5080 f i opt_range.obj
 0001:000c4440       ?make_quick@TRP_ROR_INTERSECT@@UAEPAVQUICK_SELECT_I@@PAUst_qsel_param@@HPAUst_mem_root@@@Z 004c5440 f   opt_range.obj
 0001:000c74d0       ?test_quick_select@SQL_SELECT@@QAEHPAVTHD@@V?$Bitmap@$0EA@@@_KKH@Z 004c84d0 f   opt_range.obj
 0001:000c7c90       ?make_const@Item_sum@@QAEXXZ 004c8c90 f i opt_sum.obj
 0001:000c7cb0       ?make_const@Item_sum_count@@QAEX_J@Z 004c8cb0 f i opt_sum.obj
 0001:000c7cf0       ?simple_pred@@YAHPAVItem_func@@PAPAVItem@@PAH@Z 004c8cf0 f   opt_sum.obj
 0001:000c87e0       ?opt_sum_query@@YAHPAUTABLE_LIST@@AAV?$List@VItem@@@@PAVItem@@@Z 004c97e0 f   opt_sum.obj
 0001:000c9110       _net_field_length@4        004ca110 f   pack.obj
 0001:000c9180       _net_field_length_ll       004ca180 f   pack.obj
 0001:000c91f0       _net_store_length          004ca1f0 f   pack.obj
 0001:000c9290       ?push_back@base_list@@QAEHPAXPAUst_mem_root@@@Z 004ca290 f i parse_file.obj
 0001:000c92f0       ??0File_parser@@QAE@XZ     004ca2f0 f i parse_file.obj
 0001:000c9440       ?rename_in_schema_file@@YADPBD00_KI@Z 004ca440 f   parse_file.obj
 0001:000c9700       ?sql_parse_prepare@@YAPAVFile_parser@@PBUst_lex_string@@PAUst_mem_root@@H@Z 004ca700 f   parse_file.obj
 0001:000c9950       ?read_escaped_string@@YADPAD0PAUst_lex_string@@@Z 004ca950 f   parse_file.obj
 0001:000c9a70       ?parse_escaped_string@@YAPADPAD0PAUst_mem_root@@PAUst_lex_string@@@Z 004caa70 f   parse_file.obj
 0001:000c9b80       ?process_unknown_string@File_parser_dummy_hook@@UAEHAAPADPADPAUst_mem_root@@1@Z 004cab80 f   parse_file.obj
 0001:000c9b90       ?push_back@?$List@Ust_lex_string@@@@QAEHPAUst_lex_string@@PAUst_mem_root@@@Z 004cab90 f i parse_file.obj
 0001:000c9bf0       ??E?$List_iterator_fast@Ust_lex_string@@@@QAEPAUst_lex_string@@H@Z 004cabf0 f i parse_file.obj
 0001:000c9c10       ??E?$List_iterator_fast@_K@@QAEPA_KH@Z 004cac10 f i parse_file.obj
 0001:000c9c30       ?push_back@?$List@_K@@QAEHPA_KPAUst_mem_root@@@Z 004cac30 f i parse_file.obj
 0001:000c9c90       ?get_file_options_ulllist@@YAHAAPADPAD11PAUFile_option@@PAUst_mem_root@@@Z 004cac90 f   parse_file.obj
 0001:000c9dd0       ?parse@File_parser@@QAEDPADPAUst_mem_root@@PAUFile_option@@IPAVUnknown_key_hook@@@Z 004cadd0 f   parse_file.obj
 0001:000ca2a0       ??0?$List_iterator_fast@Ust_lex_string@@@@QAE@AAV?$List@Ust_lex_string@@@@@Z 004cb2a0 f i parse_file.obj
 0001:000ca2c0       ??0?$List_iterator_fast@_K@@QAE@AAV?$List@_K@@@Z 004cb2c0 f i parse_file.obj
 0001:000ca5e0       ?sql_create_definition_file@@YADPBUst_lex_string@@00PADPAUFile_option@@I@Z 004cb5e0 f   parse_file.obj
 0001:000caa90       _randominit                004cba90 f   password.obj
 0001:000caad0       _my_rnd                    004cbad0 f   password.obj
 0001:000cab20       _hash_password             004cbb20 f   password.obj
 0001:000cabc0       _make_scrambled_password_323 004cbbc0 f   password.obj
 0001:000cac20       _scramble_323              004cbc20 f   password.obj
 0001:000cade0       _check_scramble_323        004cbde0 f   password.obj
 0001:000cafc0       _get_salt_from_password_323 004cbfc0 f   password.obj
 0001:000cb120       _make_password_from_salt_323 004cc120 f   password.obj
 0001:000cb150       _create_random_string      004cc150 f   password.obj
 0001:000cb1d0       _octet2hex                 004cc1d0 f   password.obj
 0001:000cb2e0       _make_scrambled_password   004cc2e0 f   password.obj
 0001:000cb3b0       _scramble                  004cc3b0 f   password.obj
 0001:000cb4f0       _check_scramble            004cc4f0 f   password.obj
 0001:000cb5f0       _get_salt_from_password    004cc5f0 f   password.obj
 0001:000cb610       _make_password_from_salt   004cc610 f   password.obj
 0001:000cb630       ?val_decimal@Item_proc_string@@UAEPAVmy_decimal@@PAV2@@Z 004cc630 f   procedure.obj
 0001:000cb670       ?val_decimal@Item_proc_int@@UAEPAVmy_decimal@@PAV2@@Z 004cc670 f   procedure.obj
 0001:000cb6d0       ?val_decimal@Item_proc_real@@UAEPAVmy_decimal@@PAV2@@Z 004cc6d0 f   procedure.obj
 0001:000cb710       ?setup_procedure@@YAPAVProcedure@@PAVTHD@@PAUst_order@@PAVselect_result@@AAV?$List@VItem@@@@PAH@Z 004cc710 f   procedure.obj
 0001:000cb7d0       ?prep_append@String@@QAEPADKK@Z 004cc7d0 f i protocol.obj
 0001:000cb820       ??0Send_field@@QAE@XZ      004cc820 f i protocol.obj
 0001:000cb830       ??1Protocol@@UAE@XZ        004cc830 f i protocol.obj
